
Bomberman.elf:     file format elf32-littlenios2
Bomberman.elf
architecture: nios2, flags 0x00000112:
EXEC_P, HAS_SYMS, D_PAGED
start address 0x010001b4

Program Header:
    LOAD off    0x00001000 vaddr 0x01000000 paddr 0x01000000 align 2**12
         filesz 0x00000020 memsz 0x00000020 flags r-x
    LOAD off    0x00001020 vaddr 0x01000020 paddr 0x01000020 align 2**12
         filesz 0x0005a668 memsz 0x0005a668 flags r-x
    LOAD off    0x0005b688 vaddr 0x0105a688 paddr 0x0105c3e4 align 2**12
         filesz 0x00001d5c memsz 0x00001d5c flags rw-
    LOAD off    0x0005e140 vaddr 0x0105e140 paddr 0x0105e140 align 2**12
         filesz 0x00000000 memsz 0x000015f0 flags rw-

Sections:
Idx Name          Size      VMA       LMA       File off  Algn
  0 .entry        00000020  01000000  01000000  00001000  2**5
                  CONTENTS, ALLOC, LOAD, READONLY, CODE
  1 .exceptions   00000194  01000020  01000020  00001020  2**2
                  CONTENTS, ALLOC, LOAD, READONLY, CODE
  2 .text         00057ef4  010001b4  010001b4  000011b4  2**2
                  CONTENTS, ALLOC, LOAD, READONLY, CODE
  3 .rodata       000025e0  010580a8  010580a8  000590a8  2**2
                  CONTENTS, ALLOC, LOAD, READONLY, DATA
  4 .rwdata       00001d5c  0105a688  0105c3e4  0005b688  2**2
                  CONTENTS, ALLOC, LOAD, DATA, SMALL_DATA
  5 .bss          000015f0  0105e140  0105e140  0005e140  2**2
                  ALLOC, SMALL_DATA
  6 .comment      00000026  00000000  00000000  0005d3e4  2**0
                  CONTENTS, READONLY
  7 .debug_aranges 00003568  00000000  00000000  0005d410  2**3
                  CONTENTS, READONLY, DEBUGGING
  8 .debug_pubnames 0001353a  00000000  00000000  00060978  2**0
                  CONTENTS, READONLY, DEBUGGING
  9 .debug_info   00148bee  00000000  00000000  00073eb2  2**0
                  CONTENTS, READONLY, DEBUGGING
 10 .debug_abbrev 0002176d  00000000  00000000  001bcaa0  2**0
                  CONTENTS, READONLY, DEBUGGING
 11 .debug_line   00067f11  00000000  00000000  001de20d  2**0
                  CONTENTS, READONLY, DEBUGGING
 12 .debug_frame  00009c34  00000000  00000000  00246120  2**2
                  CONTENTS, READONLY, DEBUGGING
 13 .debug_str    0001bc6e  00000000  00000000  0024fd54  2**0
                  CONTENTS, READONLY, DEBUGGING
 14 .debug_loc    000410d8  00000000  00000000  0026b9c2  2**0
                  CONTENTS, READONLY, DEBUGGING
 15 .debug_alt_sim_info 00000040  00000000  00000000  002aca9c  2**2
                  CONTENTS, READONLY, DEBUGGING
 16 .debug_ranges 0001a9a0  00000000  00000000  002acae0  2**3
                  CONTENTS, READONLY, DEBUGGING
 17 .thread_model 00000003  00000000  00000000  002e0931  2**0
                  CONTENTS, READONLY
 18 .cpu          0000000c  00000000  00000000  002e0934  2**0
                  CONTENTS, READONLY
 19 .qsys         00000001  00000000  00000000  002e0940  2**0
                  CONTENTS, READONLY
 20 .simulation_enabled 00000001  00000000  00000000  002e0941  2**0
                  CONTENTS, READONLY
 21 .stderr_dev   0000000b  00000000  00000000  002e0942  2**0
                  CONTENTS, READONLY
 22 .stdin_dev    0000000b  00000000  00000000  002e094d  2**0
                  CONTENTS, READONLY
 23 .stdout_dev   0000000b  00000000  00000000  002e0958  2**0
                  CONTENTS, READONLY
 24 .sopc_system_name 00000012  00000000  00000000  002e0963  2**0
                  CONTENTS, READONLY
 25 .quartus_project_dir 0000002f  00000000  00000000  002e0975  2**0
                  CONTENTS, READONLY
 26 .sopcinfo     00082a29  00000000  00000000  002e09a4  2**0
                  CONTENTS, READONLY
SYMBOL TABLE:
01000000 l    d  .entry	00000000 .entry
01000020 l    d  .exceptions	00000000 .exceptions
010001b4 l    d  .text	00000000 .text
010580a8 l    d  .rodata	00000000 .rodata
0105a688 l    d  .rwdata	00000000 .rwdata
0105e140 l    d  .bss	00000000 .bss
00000000 l    d  .comment	00000000 .comment
00000000 l    d  .debug_aranges	00000000 .debug_aranges
00000000 l    d  .debug_pubnames	00000000 .debug_pubnames
00000000 l    d  .debug_info	00000000 .debug_info
00000000 l    d  .debug_abbrev	00000000 .debug_abbrev
00000000 l    d  .debug_line	00000000 .debug_line
00000000 l    d  .debug_frame	00000000 .debug_frame
00000000 l    d  .debug_str	00000000 .debug_str
00000000 l    d  .debug_loc	00000000 .debug_loc
00000000 l    d  .debug_alt_sim_info	00000000 .debug_alt_sim_info
00000000 l    d  .debug_ranges	00000000 .debug_ranges
010001ec l       .text	00000000 alt_after_alt_main
00000000 l    df *ABS*	00000000 alt_irq_handler.c
00000000 l    df *ABS*	00000000 MatrixMap.cpp
00000000 l    df *ABS*	00000000 Player.cpp
010005b4 l     F .text	00000030 _GLOBAL__I__ZN6PlayerC2Ev
01000584 l     F .text	00000030 _GLOBAL__D__ZN6PlayerC2Ev
01000518 l     F .text	0000006c _Z41__static_initialization_and_destruction_0ii
0105e140 l     O .bss	00000001 _ZSt8__ioinit
00000000 l    df *ABS*	00000000 VGA_Screen.cpp
00000000 l    df *ABS*	00000000 hello_world.cpp
010011a8 l     F .text	00000030 _GLOBAL__I_main
01001178 l     F .text	00000030 _GLOBAL__D_main
0100110c l     F .text	0000006c _Z41__static_initialization_and_destruction_0ii
0105e141 l     O .bss	00000001 _ZSt8__ioinit
00000000 l    df *ABS*	00000000 ios_init.cc
00000000 l    df *ABS*	00000000 locale.cc
00000000 l    df *ABS*	00000000 locale_init.cc
00000000 l    df *ABS*	00000000 ext-inst.cc
00000000 l    df *ABS*	00000000 ios-inst.cc
00000000 l    df *ABS*	00000000 istream-inst.cc
0100691c l     F .text	00000030 .LTHUNK0
01006b9c l     F .text	00000050 .LTHUNK1
00000000 l    df *ABS*	00000000 istream.cc
00000000 l    df *ABS*	00000000 locale-inst.cc
0100ca84 l     F .text	0000000c _GLOBAL__I_.._.._.._.._.._src_gcc_4.1_libstdc___v3_src_locale_inst.cc_6FCA3617_D056A43E
0100c54c l     F .text	000000f4 _ZSt17__verify_groupingPKcmRKSs
0100c640 l     F .text	00000444 _Z41__static_initialization_and_destruction_0ii
00000000 l    df *ABS*	00000000 locale-misc-inst.cc
00000000 l    df *ABS*	00000000 misc-inst.cc
00000000 l    df *ABS*	00000000 ostream-inst.cc
0102b398 l     F .text	0000002c .LTHUNK0
0102b3f0 l     F .text	0000004c .LTHUNK1
00000000 l    df *ABS*	00000000 streambuf-inst.cc
00000000 l    df *ABS*	00000000 streambuf.cc
00000000 l    df *ABS*	00000000 string-inst.cc
00000000 l    df *ABS*	00000000 atomicity.cc
00000000 l    df *ABS*	00000000 collate_members.cc
00000000 l    df *ABS*	00000000 messages_members.cc
00000000 l    df *ABS*	00000000 monetary_members.cc
00000000 l    df *ABS*	00000000 numeric_members.cc
00000000 l    df *ABS*	00000000 time_members.cc
00000000 l    df *ABS*	00000000 basic_file.cc
01034a24 l     F .text	00000180 _ZN14__gnu_internal10fopen_modeESt13_Ios_Openmode
01034c6c l     F .text	00000090 _ZN14__gnu_internal6xwriteEiPKcl
00000000 l    df *ABS*	00000000 c++locale.cc
010593ac l     O .rodata	00000018 _ZN9__gnu_cxx14category_namesE
00000000 l    df *ABS*	00000000 eh_throw.cc
010354cc l     F .text	00000060 _Z23__gxx_exception_cleanup19_Unwind_Reason_CodeP17_Unwind_Exception
00000000 l    df *ABS*	00000000 vmi_class_type_info.cc
00000000 l    df *ABS*	00000000 eh_term_handler.cc
00000000 l    df *ABS*	00000000 new_opv.cc
00000000 l    df *ABS*	00000000 eh_catch.cc
00000000 l    df *ABS*	00000000 del_op.cc
00000000 l    df *ABS*	00000000 del_opv.cc
00000000 l    df *ABS*	00000000 eh_unex_handler.cc
00000000 l    df *ABS*	00000000 tinfo.cc
00000000 l    df *ABS*	00000000 eh_personality.cc
01036068 l     F .text	00000030 _Z12read_uleb128PKhPj
01036098 l     F .text	00000054 _Z12read_sleb128PKhPi
010360ec l     F .text	0000009c _Z16get_adjusted_ptrPKSt9type_infoS1_PPv
01036188 l     F .text	000001d4 _Z28read_encoded_value_with_basehjPKhPj
0103635c l     F .text	00000090 _Z21base_of_encoded_valuehP15_Unwind_Context
010363ec l     F .text	00000100 _Z17parse_lsda_headerP15_Unwind_ContextPKhP16lsda_header_info
010364ec l     F .text	00000084 _Z15get_ttype_entryP16lsda_header_infoj
01036570 l     F .text	00000084 _Z20check_exception_specP16lsda_header_infoPKSt9type_infoPvi
00000000 l    df *ABS*	00000000 class_type_info.cc
00000000 l    df *ABS*	00000000 si_class_type_info.cc
00000000 l    df *ABS*	00000000 pure.cc
00000000 l    df *ABS*	00000000 eh_globals.cc
0105e1e8 l     O .bss	00000008 eh_globals
00000000 l    df *ABS*	00000000 eh_terminate.cc
00000000 l    df *ABS*	00000000 new_op.cc
00000000 l    df *ABS*	00000000 eh_call.cc
00000000 l    df *ABS*	00000000 eh_exception.cc
00000000 l    df *ABS*	00000000 new_handler.cc
00000000 l    df *ABS*	00000000 eh_alloc.cc
0105e290 l     O .bss	00000800 emergency_buffer
0105e1f4 l     O .bss	00000004 emergency_used
00000000 l    df *ABS*	00000000 codecvt.cc
0103755c l     F .text	0000000c _GLOBAL__I__ZNSt7codecvtIcc10_mbstate_tE2idE
01037558 l     F .text	00000004 _Z41__static_initialization_and_destruction_0ii
00000000 l    df *ABS*	00000000 compatibility.cc
00000000 l    df *ABS*	00000000 ctype.cc
01038030 l     F .text	0000000c _GLOBAL__I__ZNSt10ctype_base5spaceE
0103802c l     F .text	00000004 _Z41__static_initialization_and_destruction_0ii
00000000 l    df *ABS*	00000000 functexcept.cc
00000000 l    df *ABS*	00000000 globals_locale.cc
00000000 l    df *ABS*	00000000 globals_io.cc
00000000 l    df *ABS*	00000000 ios.cc
0105e238 l     O .bss	00000004 _ZZNSt8ios_base6xallocEvE6_S_top
00000000 l    df *ABS*	00000000 ios_failure.cc
00000000 l    df *ABS*	00000000 ios_locale.cc
00000000 l    df *ABS*	00000000 locale_facets.cc
00000000 l    df *ABS*	00000000 stdexcept.cc
00000000 l    df *ABS*	00000000 fstream-inst.cc
0103e54c l     F .text	00000130 .LTHUNK0
0103e810 l     F .text	00000128 .LTHUNK1
0103f0c4 l     F .text	00000130 .LTHUNK2
0103f4c8 l     F .text	00000138 .LTHUNK3
0103f618 l     F .text	000001c0 .LTHUNK4
0103f618 l     F .text	000001c0 .LTHUNK5
0103f7f0 l     F .text	000001b8 .LTHUNK6
0103f7f0 l     F .text	000001b8 .LTHUNK7
00000000 l    df *ABS*	00000000 iostream-inst.cc
01040200 l     F .text	0000000c _GLOBAL__I_.._.._.._.._.._src_gcc_4.1_libstdc___v3_src_iostream_inst.cc_1FD5A050_35F6FF9C
010401f4 l     F .text	0000000c _GLOBAL__D_.._.._.._.._.._src_gcc_4.1_libstdc___v3_src_iostream_inst.cc_1FD5A050_35F6FF9C
010401c4 l     F .text	00000030 _Z41__static_initialization_and_destruction_0ii
0105e23c l     O .bss	00000001 _ZSt8__ioinit
0104022c l     F .text	00000084 .LTHUNK0
0104022c l     F .text	00000084 .LTHUNK1
010406f0 l     F .text	00000094 .LTHUNK2
010406f0 l     F .text	00000094 .LTHUNK3
00000000 l    df *ABS*	00000000 bad_typeid.cc
00000000 l    df *ABS*	00000000 bad_cast.cc
00000000 l    df *ABS*	00000000 libgcc2.c
00000000 l    df *ABS*	00000000 libgcc2.c
00000000 l    df *ABS*	00000000 libgcc2.c
00000000 l    df *ABS*	00000000 fp-bit.c
00000000 l    df *ABS*	00000000 dp-bit.c
00000000 l    df *ABS*	00000000 lib2-divmod.c
0104175c l     F .text	0000007c udivmodsi4
00000000 l    df *ABS*	00000000 lib2-mul.c
00000000 l    df *ABS*	00000000 unwind-sjlj.c
0105e240 l     O .bss	00000004 fc_static
010419a0 l     F .text	00000100 _Unwind_ForcedUnwind_Phase2
01041ab8 l     F .text	000000cc _Unwind_RaiseException_Phase2
01041b84 l     F .text	00000028 uw_install_context
00000000 l    df *ABS*	00000000 libgcc2.c
00000000 l    df *ABS*	00000000 fp-bit.c
00000000 l    df *ABS*	00000000 dp-bit.c
00000000 l    df *ABS*	00000000 abort.c
00000000 l    df *ABS*	00000000 ctype_.c
0105a08d l     O .rodata	00000180 _ctype_b
00000000 l    df *ABS*	00000000 errno.c
00000000 l    df *ABS*	00000000 fclose.c
00000000 l    df *ABS*	00000000 fdopen.c
00000000 l    df *ABS*	00000000 fflush.c
00000000 l    df *ABS*	00000000 fileno.c
00000000 l    df *ABS*	00000000 findfp.c
01042694 l     F .text	00000058 std
010427a0 l     F .text	00000008 __fp_lock
010427a8 l     F .text	00000008 __fp_unlock
00000000 l    df *ABS*	00000000 flags.c
00000000 l    df *ABS*	00000000 fopen.c
00000000 l    df *ABS*	00000000 fread.c
00000000 l    df *ABS*	00000000 mallocr.c
00000000 l    df *ABS*	00000000 fseek.c
00000000 l    df *ABS*	00000000 fstatr.c
00000000 l    df *ABS*	00000000 ftell.c
00000000 l    df *ABS*	00000000 fwalk.c
00000000 l    df *ABS*	00000000 fwrite.c
00000000 l    df *ABS*	00000000 getc.c
00000000 l    df *ABS*	00000000 impure.c
0105a6c0 l     O .rwdata	00000400 impure_data
00000000 l    df *ABS*	00000000 int_errno.c
00000000 l    df *ABS*	00000000 locale.c
0105c3a8 l     O .rwdata	00000004 charset
0105a220 l     O .rodata	00000030 lconv
00000000 l    df *ABS*	00000000 makebuf.c
00000000 l    df *ABS*	00000000 malloc.c
00000000 l    df *ABS*	00000000 mallocr.c
00000000 l    df *ABS*	00000000 memchr.c
00000000 l    df *ABS*	00000000 memcmp.c
00000000 l    df *ABS*	00000000 memcpy.c
00000000 l    df *ABS*	00000000 memmove.c
00000000 l    df *ABS*	00000000 memset.c
00000000 l    df *ABS*	00000000 openr.c
00000000 l    df *ABS*	00000000 printf.c
00000000 l    df *ABS*	00000000 putc.c
00000000 l    df *ABS*	00000000 putchar.c
00000000 l    df *ABS*	00000000 puts.c
00000000 l    df *ABS*	00000000 refill.c
01044de0 l     F .text	0000001c lflush
00000000 l    df *ABS*	00000000 rget.c
00000000 l    df *ABS*	00000000 sbrkr.c
00000000 l    df *ABS*	00000000 setvbuf.c
00000000 l    df *ABS*	00000000 signal.c
00000000 l    df *ABS*	00000000 signalr.c
00000000 l    df *ABS*	00000000 sprintf.c
00000000 l    df *ABS*	00000000 sscanf.c
010454c0 l     F .text	00000008 eofread
00000000 l    df *ABS*	00000000 stdio.c
00000000 l    df *ABS*	00000000 strcmp.c
00000000 l    df *ABS*	00000000 strcoll.c
00000000 l    df *ABS*	00000000 strcpy.c
00000000 l    df *ABS*	00000000 strdup.c
00000000 l    df *ABS*	00000000 strdup_r.c
00000000 l    df *ABS*	00000000 strftime.c
010458e8 l     F .text	0000018c iso_year_adjust
0105a300 l     O .rodata	0000001c dname_len
0105a2e4 l     O .rodata	0000001c dname
0105a34c l     O .rodata	00000030 mname_len
0105a31c l     O .rodata	00000030 mname
00000000 l    df *ABS*	00000000 strlen.c
00000000 l    df *ABS*	00000000 strtod.c
010469a4 l     F .text	00000048 match
0105aee8 l     O .rwdata	00000014 fpi.1950
0105a38c l     O .rodata	00000028 tinytens
0105aed4 l     O .rwdata	00000014 fpinan.1986
00000000 l    df *ABS*	00000000 strxfrm.c
00000000 l    df *ABS*	00000000 tzlock.c
00000000 l    df *ABS*	00000000 tzvars.c
00000000 l    df *ABS*	00000000 ungetc.c
00000000 l    df *ABS*	00000000 vfprintf.c
010483fc l     F .text	00000058 __sprint_r
0105a40e l     O .rodata	00000010 blanks.3452
0105a3fe l     O .rodata	00000010 zeroes.3453
00000000 l    df *ABS*	00000000 vfscanf.c
0105a426 l     O .rodata	00000022 basefix.3357
00000000 l    df *ABS*	00000000 wbuf.c
00000000 l    df *ABS*	00000000 writer.c
00000000 l    df *ABS*	00000000 wsetup.c
00000000 l    df *ABS*	00000000 abs.c
00000000 l    df *ABS*	00000000 closer.c
00000000 l    df *ABS*	00000000 dtoa.c
0104be4c l     F .text	00000244 quorem
00000000 l    df *ABS*	00000000 fvwrite.c
00000000 l    df *ABS*	00000000 gdtoa-gethex.c
0104dae0 l     F .text	00000024 htinit
0104db6c l     F .text	000000b0 rshift
00000000 l    df *ABS*	00000000 gdtoa-hexnan.c
0104e418 l     F .text	0000004c L_shift
00000000 l    df *ABS*	00000000 gettzinfo.c
0105aefc l     O .rwdata	00000040 tzinfo
00000000 l    df *ABS*	00000000 isattyr.c
00000000 l    df *ABS*	00000000 iswspace.c
00000000 l    df *ABS*	00000000 labs.c
00000000 l    df *ABS*	00000000 lseekr.c
00000000 l    df *ABS*	00000000 mbrtowc.c
00000000 l    df *ABS*	00000000 mbtowc_r.c
00000000 l    df *ABS*	00000000 mprec.c
0105a584 l     O .rodata	0000000c p05.2458
00000000 l    df *ABS*	00000000 readr.c
00000000 l    df *ABS*	00000000 mallocr.c
00000000 l    df *ABS*	00000000 s_isinfd.c
00000000 l    df *ABS*	00000000 s_isnand.c
00000000 l    df *ABS*	00000000 sccl.c
00000000 l    df *ABS*	00000000 sf_nan.c
00000000 l    df *ABS*	00000000 snprintf.c
00000000 l    df *ABS*	00000000 strtol.c
00000000 l    df *ABS*	00000000 strtoll_r.c
00000000 l    df *ABS*	00000000 strtoul.c
00000000 l    df *ABS*	00000000 strtoull_r.c
00000000 l    df *ABS*	00000000 mallocr.c
00000000 l    df *ABS*	00000000 libgcc2.c
00000000 l    df *ABS*	00000000 fp-bit.c
00000000 l    df *ABS*	00000000 fp-bit.c
00000000 l    df *ABS*	00000000 fp-bit.c
00000000 l    df *ABS*	00000000 dp-bit.c
01051038 l     F .text	00000410 _fpadd_parts
00000000 l    df *ABS*	00000000 dp-bit.c
00000000 l    df *ABS*	00000000 dp-bit.c
00000000 l    df *ABS*	00000000 dp-bit.c
00000000 l    df *ABS*	00000000 dp-bit.c
00000000 l    df *ABS*	00000000 dp-bit.c
00000000 l    df *ABS*	00000000 dp-bit.c
00000000 l    df *ABS*	00000000 dp-bit.c
00000000 l    df *ABS*	00000000 dp-bit.c
00000000 l    df *ABS*	00000000 dp-bit.c
00000000 l    df *ABS*	00000000 dp-bit.c
00000000 l    df *ABS*	00000000 dp-bit.c
00000000 l    df *ABS*	00000000 dp-bit.c
00000000 l    df *ABS*	00000000 dp-bit.c
00000000 l    df *ABS*	00000000 libgcc2.c
00000000 l    df *ABS*	00000000 fp-bit.c
00000000 l    df *ABS*	00000000 fp-bit.c
00000000 l    df *ABS*	00000000 dp-bit.c
00000000 l    df *ABS*	00000000 dp-bit.c
00000000 l    df *ABS*	00000000 fp-bit.c
00000000 l    df *ABS*	00000000 alt_close.c
01052814 l     F .text	00000060 alt_get_errno
00000000 l    df *ABS*	00000000 alt_dev.c
01052874 l     F .text	0000002c alt_dev_null_write
00000000 l    df *ABS*	00000000 alt_errno.c
00000000 l    df *ABS*	00000000 alt_exit.c
010528a0 l     F .text	00000040 alt_sim_halt
00000000 l    df *ABS*	00000000 alt_fstat.c
010529d8 l     F .text	00000060 alt_get_errno
00000000 l    df *ABS*	00000000 alt_getpid.c
00000000 l    df *ABS*	00000000 alt_isatty.c
01052b1c l     F .text	00000060 alt_get_errno
00000000 l    df *ABS*	00000000 alt_kill.c
01052cbc l     F .text	00000060 alt_get_errno
00000000 l    df *ABS*	00000000 alt_load.c
01052d9c l     F .text	0000006c alt_load_section
00000000 l    df *ABS*	00000000 alt_lseek.c
01052efc l     F .text	00000060 alt_get_errno
00000000 l    df *ABS*	00000000 alt_main.c
00000000 l    df *ABS*	00000000 alt_malloc_lock.c
00000000 l    df *ABS*	00000000 alt_open.c
01053008 l     F .text	000000f8 alt_file_locked
0105328c l     F .text	00000060 alt_get_errno
00000000 l    df *ABS*	00000000 alt_read.c
01053410 l     F .text	00000060 alt_get_errno
00000000 l    df *ABS*	00000000 alt_release_fd.c
00000000 l    df *ABS*	00000000 alt_sbrk.c
0105c3d4 l     O .rwdata	00000004 heap_end
00000000 l    df *ABS*	00000000 alt_usleep.c
00000000 l    df *ABS*	00000000 alt_write.c
010536f8 l     F .text	00000060 alt_get_errno
00000000 l    df *ABS*	00000000 alt_sys_init.c
0105b0e4 l     O .rwdata	00001060 jtag_uart_0
0105c144 l     O .rwdata	0000002c parallel_port_0
0105c170 l     O .rwdata	00000048 video_character_buffer_with_dma_0
0105c1b8 l     O .rwdata	00000054 buffer_dma
0105c20c l     O .rwdata	0000002c Altera_UP_SD_Card_Avalon_Interface_0
01053ab0 l     F .text	00000038 alt_dev_reg
00000000 l    df *ABS*	00000000 altera_avalon_jtag_uart_fd.c
00000000 l    df *ABS*	00000000 altera_avalon_jtag_uart_init.c
01053cf0 l     F .text	00000228 altera_avalon_jtag_uart_irq
01053f18 l     F .text	000000b0 altera_avalon_jtag_uart_timeout
00000000 l    df *ABS*	00000000 altera_avalon_jtag_uart_ioctl.c
00000000 l    df *ABS*	00000000 altera_avalon_jtag_uart_read.c
00000000 l    df *ABS*	00000000 altera_avalon_jtag_uart_write.c
00000000 l    df *ABS*	00000000 altera_avalon_timer_sc.c
01054594 l     F .text	00000070 alt_avalon_timer_sc_irq
00000000 l    df *ABS*	00000000 altera_up_avalon_parallel_port.c
00000000 l    df *ABS*	00000000 altera_up_avalon_video_character_buffer_with_dma.c
00000000 l    df *ABS*	00000000 altera_up_avalon_video_pixel_buffer_dma.c
00000000 l    df *ABS*	00000000 alt_alarm_start.c
00000000 l    df *ABS*	00000000 alt_busy_sleep.c
00000000 l    df *ABS*	00000000 alt_dcache_flush_all.c
00000000 l    df *ABS*	00000000 alt_dev_llist_insert.c
010562f8 l     F .text	00000060 alt_get_errno
00000000 l    df *ABS*	00000000 alt_do_ctors.c
00000000 l    df *ABS*	00000000 alt_do_dtors.c
00000000 l    df *ABS*	00000000 alt_find_dev.c
00000000 l    df *ABS*	00000000 alt_find_file.c
00000000 l    df *ABS*	00000000 alt_get_fd.c
00000000 l    df *ABS*	00000000 alt_icache_flush_all.c
00000000 l    df *ABS*	00000000 alt_iic.c
00000000 l    df *ABS*	00000000 alt_iic_isr_register.c
00000000 l    df *ABS*	00000000 alt_io_redirect.c
0105698c l     F .text	000000d8 alt_open_fd
00000000 l    df *ABS*	00000000 alt_irq_vars.c
00000000 l    df *ABS*	00000000 alt_tick.c
00000000 l    df *ABS*	00000000 altera_nios2_qsys_irq.c
00000000 l    df *ABS*	00000000 atexit.c
00000000 l    df *ABS*	00000000 exit.c
00000000 l    df *ABS*	00000000 __atexit.c
00000000 l    df *ABS*	00000000 __call_atexit.c
01056e20 l     F .text	00000004 register_fini
0102c6d4  w    F .text	000002c4 _ZNSo5writeEPKcl
0105c2f2 g     O .rwdata	00000001 _ZNSt10ctype_base5digitE
01032fec  w    F .text	0000005c _ZNSs2atEm
0103734c g     F .text	00000040 __cxa_free_exception
010097c8  w    F .text	000001f0 _ZNSirsERf
01031988  w    F .text	00000034 _ZNSsC1IN9__gnu_cxx17__normal_iteratorIPcSsEEEET_S4_RKSaIcE
0103d980  w    F .text	000000a8 _ZNSt13basic_fstreamIcSt11char_traitsIcEE7is_openEv
01044b44 g     F .text	0000001c putchar
0100a178  w    F .text	000001f0 _ZNSirsERj
0100c090 g     F .text	000004bc _ZStrsIcSt11char_traitsIcEERSt13basic_istreamIT_T0_ES6_PS3_
01036018 g     F .text	00000008 _ZNKSt9type_info15__is_function_pEv
0104ecf0 g     F .text	00000094 _mprec_log10
01058f68  w    O .rodata	00000040 _ZTVN9__gnu_cxx18stdio_sync_filebufIcSt11char_traitsIcEEE
010370fc g     F .text	00000018 _ZSt10unexpectedv
01002048 g     F .text	00000008 _ZNSt6localeC2EPNS_5_ImplE
01059c20  w    O .rodata	00000010 _ZTTSt14basic_ifstreamIcSt11char_traitsIcEE
0102cd0c  w    F .text	000002e0 _ZNSolsEPSt15basic_streambufIcSt11char_traitsIcEE
01038594 g     F .text	00000034 _ZSt18__throw_bad_typeidv
0104eddc g     F .text	00000088 __any_on
0100d950  w    F .text	00000040 _ZNKSt11__timepunctIcE7_M_daysEPPKc
0104e6b8 g     F .text	00000070 _isatty_r
0105a55c g     O .rodata	00000028 __mprec_tinytens
0103a868 g     F .text	00000030 _ZNSt14overflow_errorC1ERKSs
0100d460  w    F .text	00000044 _ZNKSt7num_getIcSt19istreambuf_iteratorIcSt11char_traitsIcEEE3getES3_S3_RSt8ios_baseRSt12_Ios_IostateRb
01052f5c g     F .text	0000006c alt_main
010457e0 g     F .text	0000008c strcpy
01005e6c  w    F .text	0000004c _ZNSt9basic_iosIcSt11char_traitsIcEEC2Ev
0100db1c  w    F .text	00000044 _ZNKSt8time_getIcSt19istreambuf_iteratorIcSt11char_traitsIcEEE8get_timeES3_S3_RSt8ios_baseRSt12_Ios_IostateP2tm
01055668 g     F .text	000003d8 alt_up_pixel_buffer_dma_draw_vline
010314ac  w    F .text	00000040 _ZNKSs6substrEmm
0102639c  w    F .text	00000028 _ZNKSt7num_putIcSt19ostreambuf_iteratorIcSt11char_traitsIcEEE6do_putES3_RSt8ios_basecm
0105c282  w    O .rwdata	00000001 _ZNSt17moneypunct_bynameIcLb0EE4intlE
0105e224 g     O .bss	00000008 _ZN14__gnu_internal10time_get_cE
01044b68 g     F .text	000000a0 _puts_r
01059dc0  w    O .rodata	00000028 _ZTCSd0_Si
0100daf8  w    F .text	00000018 _ZNSt8time_getIcSt19istreambuf_iteratorIcSt11char_traitsIcEEEC2Em
0105f4a0 g     O .bss	00000100 alt_irq
0105c2c0  w    O .rwdata	00000004 _ZNSs4nposE
0100dea8  w    F .text	00000030 _ZNKSt5ctypeIcE8do_widenEPKcS2_Pc
0104e76c g     F .text	00000078 _lseek_r
0102f390  w    F .text	0000000c _ZNSt15basic_streambufIcSt11char_traitsIcEE5sputnEPKcl
0105e17c  w    O .bss	00000004 _ZNSt8messagesIcE2idE
0100fefc  w    F .text	00000068 _ZNSt16__numpunct_cacheIcED2Ev
01005dc8  w    F .text	00000058 _ZNSt9basic_iosIcSt11char_traitsIcEE4initEPSt15basic_streambufIcS1_E
01041950 g     F .text	00000014 _Unwind_GetIPInfo
01058348  w    O .rodata	00000012 _ZTSNSt6locale5facetE
01034e08 g     F .text	0000008c _ZNSt12__basic_fileIcE7seekoffExSt12_Ios_Seekdir
01038274 g     F .text	00000090 _ZNSt5ctypeIcEC2EPKcbm
0105c3e4 g       *ABS*	00000000 __flash_rwdata_start
0102bee0  w    F .text	00000414 _ZStlsISt11char_traitsIcEERSt13basic_ostreamIcT_ES5_PKc
010381e4 g     F .text	00000090 _ZNSt5ctypeIcEC1EPKcbm
01058674  w    O .rodata	0000001c _ZTVSt15messages_bynameIcE
01042988 g     F .text	000000a0 __sflags
01004df8 g     F .text	00000018 _ZNSt6locale13_S_initializeEv
01051b58 g     F .text	00000088 __eqdf2
01007700  w    F .text	00000004 _ZStrsISt11char_traitsIcEERSt13basic_istreamIcT_ES5_Rh
01059d68  w    O .rodata	0000003c _ZTVSd
0103d8d8  w    F .text	000000a8 _ZNKSt13basic_fstreamIcSt11char_traitsIcEE7is_openEv
010137d8  w    F .text	00000180 _ZNSt17moneypunct_bynameIcLb1EEC2EPKcm
010353e4 g     F .text	00000074 __cxa_rethrow
0102f39c  w    F .text	00000008 _ZNKSt15basic_streambufIcSt11char_traitsIcEE5ebackEv
01058990  w    O .rodata	00000020 _ZTISt21__ctype_abstract_baseIcE
01000674 g     F .text	00000048 _ZN6Player9move_leftEv
010418f0 g     F .text	0000000c _Unwind_SjLj_Unregister
01030b30  w    F .text	00000018 _ZNKSs6rbeginEv
01033d48 g     F .text	000000c8 _ZNSt10moneypunctIcLb0EED2Ev
0103701c g     F .text	00000014 _ZSt14set_unexpectedPFvvE
0100cdc8  w    F .text	00000040 _ZNKSt10moneypunctIcLb0EE13do_neg_formatEv
0103f7d8  w    F .text	00000010 _ZTv0_n12_NSt13basic_fstreamIcSt11char_traitsIcEED1Ev
010318a0  w    F .text	000000b4 _ZNSs12_S_constructIN9__gnu_cxx17__normal_iteratorIPcSsEEEES2_T_S4_RKSaIcESt20forward_iterator_tag
0103e53c  w    F .text	00000010 _ZTv0_n12_NSt14basic_ofstreamIcSt11char_traitsIcEED0Ev
0103160c  w    F .text	00000020 _ZNSs13_S_copy_charsEPcN9__gnu_cxx17__normal_iteratorIS_SsEES2_
01033a1c  w    F .text	00000024 _ZNSs7replaceEmmRKSs
01041940 g     F .text	00000010 _Unwind_GetIP
0103512c g     F .text	00000008 _ZNSt6locale5facet17_S_clone_c_localeERPi
0105f730 g       *ABS*	00000000 __alt_heap_start
0103d134  w    F .text	00000064 _ZNSt14basic_ofstreamIcSt11char_traitsIcEE4openEPKcSt13_Ios_Openmode
0102b398  w    F .text	0000002c _ZNSoD1Ev
0103aae8 g     F .text	00000030 _ZNSt12length_errorC1ERKSs
0102bb78  w    F .text	00000368 _ZNSolsEl
01045378 g     F .text	00000074 _kill_r
0103e1ac  w    F .text	000001a8 _ZNSt13basic_fstreamIcSt11char_traitsIcEEC1Ev
0102f5bc  w    F .text	00000038 _ZNSt15basic_streambufIcSt11char_traitsIcEED0Ev
010330c8  w    F .text	00000038 _ZNSs5beginEv
0103733c g     F .text	00000010 _ZNSt9bad_allocD2Ev
010448e0 g     F .text	00000044 printf
0102f5f4  w    F .text	00000014 _ZNSt15basic_streambufIcSt11char_traitsIcEED1Ev
010078d0  w    F .text	000001d8 _ZNSi5ungetEv
0102a1e0  w    F .text	0000009c _ZN9__gnu_cxx18stdio_sync_filebufIcSt11char_traitsIcEE7seekoffExSt12_Ios_SeekdirSt13_Ios_Openmode
01036edc g     F .text	00000034 _ZNK10__cxxabiv120__si_class_type_info20__do_find_public_srcElPKvPKNS_17__class_type_infoES2_
0102f624  w    F .text	00000008 _ZNSt15basic_streambufIcSt11char_traitsIcEE9pbackfailEi
0105e144 g     O .bss	00000004 _ZNSt6locale10_S_classicE
0100d2e4  w    F .text	0000003c _ZNKSt9money_putIcSt19ostreambuf_iteratorIcSt11char_traitsIcEEE3putES3_bRSt8ios_basecRKSs
010452b8 g     F .text	000000a0 _signal_r
01034070 g     F .text	00000138 _ZNSt10moneypunctIcLb0EE24_M_initialize_moneypunctEPiPKc
010021b8 g     F .text	000000ac _ZNSt6localeC1ERKS_
010596a4  w    O .rodata	00000013 _ZTSSt14overflow_error
010455dc g     F .text	00000068 __sseek
01058338  w    O .rodata	00000010 _ZTVNSt6locale5facetE
010426fc g     F .text	000000a4 __sinit
01026324  w    F .text	00000078 _ZNKSt7num_putIcSt19ostreambuf_iteratorIcSt11char_traitsIcEEE6do_putES3_RSt8ios_basecPKv
0102ddc4  w    F .text	00000378 _ZNSolsEy
01000b38 g     F .text	00000048 _ZN10VGA_Screen17init_pixel_bufferEv
0104bac4 g     F .text	00000130 __swbuf_r
01015d60  w    F .text	000000c0 _ZNSt14collate_bynameIcED1Ev
01054868 g     F .text	00000114 alt_up_char_buffer_string
0105e260 g     O .bss	00000004 _daylight
0105c2b8  w    O .rwdata	00000008 _ZTISt15basic_streambufIcSt11char_traitsIcEE
0100f814  w    F .text	00000034 _ZNSt14codecvt_bynameIcc10_mbstate_tED0Ev
01002148 g     F .text	00000010 _ZNSt6locale5facetD0Ev
01005a58  w    F .text	000000e4 _ZN9__gnu_cxx13stdio_filebufIcSt11char_traitsIcEED0Ev
01034bb0 g     F .text	0000000c _ZNSt12__basic_fileIcEC1EPi
010327c8  w    F .text	000000f8 _ZNSs6assignEPKcm
0100dba4  w    F .text	00000044 _ZNKSt8time_getIcSt19istreambuf_iteratorIcSt11char_traitsIcEEE11get_weekdayES3_S3_RSt8ios_baseRSt12_Ios_IostateP2tm
01036ecc g     F .text	00000010 _ZN10__cxxabiv120__si_class_type_infoD2Ev
01043b5c g     F .text	00000084 _setlocale_r
010594dc  w    O .rodata	00000025 _ZTSN10__cxxabiv120__si_class_type_infoE
01058fec  w    O .rodata	00000028 _ZTVSo
01058dec  w    O .rodata	00000016 _ZTSSt10moneypunctIcLb1EE
0100e670  w    F .text	000000f4 _ZSt9has_facetISt9money_putIcSt19ostreambuf_iteratorIcSt11char_traitsIcEEEEbRKSt6locale
010427fc g     F .text	0000009c __sfmoreglue
0105c344 g     O .rwdata	00000004 _ZNSt8ios_base6badbitE
010483e0 g     F .text	0000001c ungetc
0100d990  w    F .text	00000040 _ZNKSt11__timepunctIcE19_M_days_abbreviatedEPPKc
01002058 g     F .text	00000008 _ZNSt6locale5facet13_S_get_c_nameEv
01052fe8 g     F .text	00000020 __malloc_unlock
0103b2f8  w    F .text	00000054 _ZNSt13basic_filebufIcSt11char_traitsIcEE27_M_allocate_internal_bufferEv
0100dce8  w    F .text	0000000c _ZNKSt7collateIcE7compareEPKcS2_S2_S2_
01030000  w    F .text	00000018 _ZNSs7_M_moveEPcPKcm
01035680 g     F .text	00000240 _ZNK10__cxxabiv121__vmi_class_type_info11__do_upcastEPKNS_17__class_type_infoEPKvRNS1_15__upcast_resultE
0100dfa4  w    F .text	00000010 _ZNSt8time_getIcSt19istreambuf_iteratorIcSt11char_traitsIcEEED2Ev
0105c324 g     O .rwdata	00000004 _ZNSt8ios_base9showpointE
010119ec  w    F .text	00000018 _ZNSt9money_getIcSt19istreambuf_iteratorIcSt11char_traitsIcEEEC2Em
0100f230  w    F .text	00000058 _ZSt9use_facetISt7codecvtIcc10_mbstate_tEERKT_RKSt6locale
01029c70  w    F .text	0000009c _ZNKSt7num_getIcSt19istreambuf_iteratorIcSt11char_traitsIcEEE6do_getES3_S3_RSt8ios_baseRSt12_Ios_IostateRPv
01033a70  w    F .text	00000064 _ZNSs7replaceEN9__gnu_cxx17__normal_iteratorIPcSsEES2_PKc
01007148  w    F .text	00000220 _ZSt2wsIcSt11char_traitsIcEERSt13basic_istreamIT_T0_ES6_
01005fa4  w    F .text	000000dc _ZNSt9basic_iosIcSt11char_traitsIcEEC1EPSt15basic_streambufIcS1_E
010469ec g     F .text	000015cc _strtod_r
01035e24 g     F .text	00000020 _ZSt18uncaught_exceptionv
0100f020  w    F .text	00000058 _ZSt9use_facetISt10moneypunctIcLb0EEERKT_RKSt6locale
0102a8e8  w    F .text	00000018 _ZStlsIcSt11char_traitsIcEERSt13basic_ostreamIT_T0_ES6_St5_Setw
01059664  w    O .rodata	0000000c _ZTISt15underflow_error
0100fd1c  w    F .text	00000108 _ZNSt11__timepunctIcED2Ev
01032438  w    F .text	000000bc _ZNSsD2Ev
01054798 g     F .text	000000d0 alt_up_char_buffer_draw
010067e0  w    F .text	00000028 _ZStrsIcSt11char_traitsIcEERSt13basic_istreamIT_T0_ES6_St14_Resetiosflags
0100fe24  w    F .text	00000070 _ZNSt16__numpunct_cacheIcED0Ev
0103b930  w    F .text	00000250 _ZNSt13basic_filebufIcSt11char_traitsIcEEC1Ev
010322f0  w    F .text	0000008c _ZNSspLEc
01000e94 g     F .text	0000005c _ZN10VGA_Screen23erase_and_redraw_playerEiiii
0103dad0  w    F .text	000000a8 _ZNSt14basic_ofstreamIcSt11char_traitsIcEE7is_openEv
01031edc  w    F .text	000000e0 _ZNSs6appendEmc
01006b9c  w    F .text	00000050 _ZNSiD0Ev
0102f594  w    F .text	00000028 _ZNSt15basic_streambufIcSt11char_traitsIcEE6sbumpcEv
010446f0 g     F .text	000000e0 memmove
01005c18  w    F .text	000000dc _ZN9__gnu_cxx13stdio_filebufIcSt11char_traitsIcEED2Ev
0100f858  w    F .text	00000010 _ZNSt14codecvt_bynameIcc10_mbstate_tED2Ev
01007528  w    F .text	000001d4 _ZStrsIcSt11char_traitsIcEERSt13basic_istreamIT_T0_ES6_RS3_
010587fc  w    O .rodata	00000034 _ZTVSt17moneypunct_bynameIcLb0EE
01010390  w    F .text	00000010 _ZNSt17moneypunct_bynameIcLb1EED1Ev
010124ac  w    F .text	000000d0 _ZNSt10moneypunctIcLb0EEC1EPiPKcm
0102f3ac  w    F .text	00000008 _ZNKSt15basic_streambufIcSt11char_traitsIcEE5egptrEv
01058880  w    O .rodata	00000034 _ZTVSt10moneypunctIcLb1EE
01037288 g     F .text	00000010 _ZNSt9exceptionD2Ev
010427ec g     F .text	00000010 _cleanup
01050114 g     F .text	000000bc snprintf
0105c2ac  w    O .rwdata	00000008 _ZTTSo
01059c58  w    O .rodata	00000040 _ZTVSt13basic_filebufIcSt11char_traitsIcEE
0102b4a4  w    F .text	0000036c _ZNSolsEb
0104ee64 g     F .text	000000bc _Balloc
01031880  w    F .text	00000020 _ZNSs13_S_copy_charsEPcN9__gnu_cxx17__normal_iteratorIPKcSsEES4_
0105c2ec g     O .rwdata	00000001 _ZNSt10ctype_base5spaceE
01058bdc  w    O .rodata	0000000c _ZTISt8time_putIcSt19ostreambuf_iteratorIcSt11char_traitsIcEEE
0103da28  w    F .text	000000a8 _ZNKSt14basic_ofstreamIcSt11char_traitsIcEE7is_openEv
0100ce90  w    F .text	00000030 _ZNKSt10moneypunctIcLb1EE11curr_symbolEv
01059708  w    O .rodata	00000011 _ZTSSt12out_of_range
0105c340 g     O .rwdata	00000004 _ZNSt8ios_base10floatfieldE
01059e80  w    O .rodata	0000000c _ZTISt8bad_cast
01030018  w    F .text	00000018 _ZNSs7_M_copyEPcPKcm
01024dd0  w    F .text	0000003c _ZNKSt7num_getIcSt19istreambuf_iteratorIcSt11char_traitsIcEEE6do_getES3_S3_RSt8ios_baseRSt12_Ios_IostateRl
01032950  w    F .text	00000040 _ZNSsaSEPKc
01033ad4 g     F .text	00000014 _ZN9__gnu_cxx18__exchange_and_addEPVii
0105e1d4  w    O .bss	00000008 _ZGVNSt8messagesIcE2idE
0100f744  w    F .text	00000010 _ZNSt15messages_bynameIcED2Ev
01038664 g     F .text	00000108 _ZSt19__throw_ios_failurePKc
0105c37c  w    O .rwdata	00000008 _ZTISt8ios_base
01054a18 g     F .text	000001ac alt_up_pixel_buffer_dma_draw
0101e950  w    F .text	000003c8 _ZNKSt9money_putIcSt19ostreambuf_iteratorIcSt11char_traitsIcEEE6do_putES3_bRSt8ios_basece
01051c68 g     F .text	00000088 __gtdf2
0100e0f4  w    F .text	00000010 _ZNSt7num_getIcSt19istreambuf_iteratorIcSt11char_traitsIcEEED2Ev
0105952c  w    O .rodata	00000014 _ZTVSt13bad_exception
0104221c g     F .text	00000010 __errno
0102fa88 g     F .text	00000188 _ZSt17__copy_streambufsIcSt11char_traitsIcEElPSt15basic_streambufIT_T0_ES6_
0100e0b0  w    F .text	00000034 _ZNSt7num_getIcSt19istreambuf_iteratorIcSt11char_traitsIcEEED0Ev
010395c0  w    F .text	00000034 _ZNSt14overflow_errorD0Ev
01058830  w    O .rodata	0000001c _ZTVSt8messagesIcE
0102f3d4  w    F .text	00000008 _ZNKSt15basic_streambufIcSt11char_traitsIcEE5pbaseEv
0105c254 g     O .rwdata	00000004 _ZNSt6locale3allE
010549d8 g     F .text	00000040 alt_up_pixel_buffer_dma_open_dev
0102a2d4  w    F .text	00000030 _ZN9__gnu_cxx18stdio_sync_filebufIcSt11char_traitsIcEE9underflowEv
01002158 g     F .text	00000010 _ZNSt6locale5facetD1Ev
01000000 g     F .entry	0000000c __reset
0105c284  w    O .rwdata	00000008 _ZTISt10ctype_base
0105c2c8  w    O .rwdata	00000001 _ZNSs4_Rep11_S_terminalE
0100e104  w    F .text	00000034 _ZNSt9money_putIcSt19ostreambuf_iteratorIcSt11char_traitsIcEEED0Ev
01058ba0  w    O .rodata	0000003b _ZTSSt8time_putIcSt19ostreambuf_iteratorIcSt11char_traitsIcEEE
0105e19c  w    O .bss	00000008 _ZGVNSt9money_putIcSt19ostreambuf_iteratorIcSt11char_traitsIcEEE2idE
01003d70 g     F .text	0000007c _ZNSt6locale5_Impl16_M_replace_facetEPKS0_PKNS_2idE
010307c8  w    F .text	000000e0 _ZNKSs16find_last_not_ofEPKcmm
010589f4  w    O .rodata	0000000c _ZTISt18__moneypunct_cacheIcLb1EE
0100d160  w    F .text	00000054 _ZNSt18__moneypunct_cacheIcLb0EEC1Em
01041980 g     F .text	00000008 _Unwind_GetRegionStart
01037640 g     F .text	000000e4 _ZNSt7codecvtIcc10_mbstate_tED0Ev
0105c2f6 g     O .rwdata	00000001 _ZNSt10ctype_base5graphE
0105c328 g     O .rwdata	00000004 _ZNSt8ios_base7showposE
01028d10  w    F .text	00000f60 _ZNKSt7num_getIcSt19istreambuf_iteratorIcSt11char_traitsIcEEE14_M_extract_intImEES3_S3_S3_RSt8ios_baseRSt12_Ios_IostateRT_
01013358  w    F .text	00000180 _ZNSt17moneypunct_bynameIcLb0EEC1EPKcm
0103d780  w    F .text	00000158 _ZNSt13basic_filebufIcSt11char_traitsIcEE9showmanycEv
0103c850  w    F .text	000001b4 _ZNSt13basic_filebufIcSt11char_traitsIcEE5closeEv
01000020 g       *ABS*	00000000 __flash_exceptions_start
01013004  w    F .text	00000010 _ZNSt15time_put_bynameIcSt19ostreambuf_iteratorIcSt11char_traitsIcEEED1Ev
0105c281  w    O .rwdata	00000001 _ZNSt10moneypunctIcLb1EE4intlE
01043624 g     F .text	00000074 _fstat_r
01040784  w    F .text	000000b4 _ZNSdC1Ev
01037114 g     F .text	00000100 _Znwm
01030568  w    F .text	00000064 _ZNSs4_Rep10_M_disposeERKSaIcE
0105e244 g     O .bss	00000004 errno
01041724 g     F .text	00000038 __make_dp
0100694c  w    F .text	00000034 _ZNSiC2EPSt15basic_streambufIcSt11char_traitsIcEE
01044e48 g     F .text	00000014 __srget
01058a50  w    O .rodata	00000023 _ZTSSt14codecvt_bynameIcc10_mbstate_tE
01033afc g     F .text	0000002c _ZNKSt7collateIcE10_M_compareEPKcS2_
0101d914  w    F .text	0000037c _ZNKSt9money_getIcSt19istreambuf_iteratorIcSt11char_traitsIcEEE6do_getES3_S3_bRSt8ios_baseRSt12_Ios_IostateRSs
0104b9c4 g     F .text	00000024 __svfscanf
01030c44  w    F .text	0000003c _ZNSsC2EmcRKSaIcE
0102f420  w    F .text	00000008 _ZNSt15basic_streambufIcSt11char_traitsIcEE9showmanycEv
01002b2c g     F .text	000002a8 _ZNSt6locale5_ImplD1Ev
01058360 g     O .rodata	0000000c _ZNSt6locale5_Impl11_S_id_ctypeE
010319bc  w    F .text	000000fc _ZNSsC1ERKSs
01030964  w    F .text	0000007c _ZNKSs7compareEPKc
01005eb8  w    F .text	00000098 _ZNKSt9basic_iosIcSt11char_traitsIcEE6narrowEcc
01011448  w    F .text	000000d0 _ZNSt11__timepunctIcEC2Em
0104e754 g     F .text	00000018 labs
0100d254  w    F .text	0000004c _ZNKSt9money_getIcSt19istreambuf_iteratorIcSt11char_traitsIcEEE3getES3_S3_bRSt8ios_baseRSt12_Ios_IostateRSs
0103e800  w    F .text	00000010 _ZTv0_n12_NSt14basic_ofstreamIcSt11char_traitsIcEED1Ev
01010594  w    F .text	0000014c _ZSt13__int_to_charIcyEiPT_T0_PKS0_St13_Ios_Fmtflagsb
01041d50 g     F .text	00000080 _Unwind_Backtrace
01037fc0 g     F .text	0000006c _ZNKSt5ctypeIcE10do_tolowerEPcPKc
01052388 g     F .text	0000002c __make_fp
01031140  w    F .text	00000088 _ZNKSs4copyEPcmm
0105c348 g     O .rwdata	00000004 _ZNSt8ios_base6eofbitE
01037568 g     F .text	000000d8 _ZNSt7codecvtIcc10_mbstate_tEC1EPim
0105860c  w    O .rodata	00000010 _ZTVSt18__moneypunct_cacheIcLb1EE
01005008 g     F .text	000000c0 _ZNSt6localeC1Ev
0105e26c g     O .bss	00000004 alt_argv
0105c364 g     O .rwdata	00000004 _ZNSt8ios_base3outE
01064238 g       *ABS*	00000000 _gp
01009d98  w    F .text	000001f0 _ZNSirsERm
0100fe94  w    F .text	00000068 _ZNSt16__numpunct_cacheIcED1Ev
010535a4 g     F .text	00000030 usleep
0100d0e0  w    F .text	00000040 _ZNKSt10moneypunctIcLb1EE13do_pos_formatEv
01040838 g     F .text	00000034 _ZNSt10bad_typeidD0Ev
0102f458  w    F .text	0000004c _ZNSt15basic_streambufIcSt11char_traitsIcEEC1ERKS2_
010395f4  w    F .text	00000010 _ZNSt14overflow_errorD1Ev
0102af24  w    F .text	0000018c _ZNSo5flushEv
0100f588  w    F .text	000000bc _ZNSt8messagesIcED1Ev
0100f288  w    F .text	000000c4 _ZNSt7collateIcED0Ev
0100cd64  w    F .text	0000000c _ZNKSt10moneypunctIcLb0EE16do_decimal_pointEv
01034e94 g     F .text	00000094 _ZNSt12__basic_fileIcE8xsputn_2EPKclS2_l
0100d378  w    F .text	00000030 _ZNKSt8numpunctIcE8groupingEv
0100cc9c  w    F .text	000000c8 _ZNKSt10moneypunctIcLb0EE10neg_formatEv
01054bc4 g     F .text	00000058 alt_up_pixel_buffer_dma_change_back_buffer_address
0104088c g     F .text	00000034 _ZNSt8bad_castD0Ev
0100d5f8  w    F .text	00000044 _ZNKSt7num_getIcSt19istreambuf_iteratorIcSt11char_traitsIcEEE3getES3_S3_RSt8ios_baseRSt12_Ios_IostateRy
01052a38 g     F .text	00000020 getpid
01039abc g     F .text	000000e0 _ZNSt8ios_baseD1Ev
01032b84  w    F .text	00000038 _ZNSs6assignEmc
01017650  w    F .text	000001d4 _ZNKSt8time_getIcSt19istreambuf_iteratorIcSt11char_traitsIcEEE11do_get_dateES3_S3_RSt8ios_baseRSt12_Ios_IostateP2tm
0102f384  w    F .text	0000000c _ZNSt15basic_streambufIcSt11char_traitsIcEE5sgetnEPcl
0102fd08  w    F .text	0000000c _ZNKSs4_Rep12_M_is_leakedEv
01059aa8  w    O .rodata	0000003c _ZTVSt13basic_fstreamIcSt11char_traitsIcEE
0105c2f4 g     O .rwdata	00000001 _ZNSt10ctype_base6xdigitE
01000fa8 g     F .text	00000060 _ZN10VGA_Screen18draw_diagonal_lineEP27alt_up_pixel_buffer_dma_dev
010365f4 g     F .text	00000180 __cxa_call_unexpected
0102f51c  w    F .text	0000002c _ZNSt15basic_streambufIcSt11char_traitsIcEEC1Ev
0101205c  w    F .text	0000009c _ZNKSt10moneypunctIcLb1EE16do_positive_signEv
01000240 g     F .text	0000010c _ZN9MatrixMap7gen_mapEv
01029fa0  w    F .text	00000008 _ZN9__gnu_cxx18stdio_sync_filebufIcSt11char_traitsIcEE4fileEv
0103dcc8  w    F .text	00000394 _ZNSt13basic_filebufIcSt11char_traitsIcEE5imbueERKSt6locale
01035e1c g     F .text	00000008 __cxa_get_exception_ptr
01059e10  w    O .rodata	00000020 _ZTISd
0105f08c g     O .bss	0000008c _ZSt4cerr
0104022c  w    F .text	00000084 _ZNSdD1Ev
010104cc  w    F .text	000000c8 _ZNSt10moneypunctIcLb0EEC2Em
01034d88 g     F .text	00000008 _ZNSt12__basic_fileIcE2fdEv
010045f4 g     F .text	000007b0 _ZNSt6locale5_ImplC1Em
01030038  w    F .text	0000000c _ZNKSsixEm
0103b3ac  w    F .text	000000a8 _ZNKSt13basic_filebufIcSt11char_traitsIcEE7is_openEv
0105af64 g     O .rwdata	00000180 alt_fd_list
0102ebc0  w    F .text	0000036c _ZNSolsEt
01024e0c  w    F .text	000006e0 _ZNKSt7num_getIcSt19istreambuf_iteratorIcSt11char_traitsIcEEE6do_getES3_S3_RSt8ios_baseRSt12_Ios_IostateRb
0103997c g     F .text	00000058 _ZNSt8ios_base17register_callbackEPFvNS_5eventERS_iEi
0100e2a0  w    F .text	000000f4 _ZSt9has_facetISt8time_getIcSt19istreambuf_iteratorIcSt11char_traitsIcEEEEbRKSt6locale
0100cf2c  w    F .text	000000c8 _ZNKSt10moneypunctIcLb1EE10pos_formatEv
01017d20  w    F .text	000002d4 _ZNKSt7collateIcE10do_compareEPKcS2_S2_S2_
0100a368  w    F .text	00000214 _ZNSirsERi
01006724  w    F .text	00000034 _ZNSirsEPFRSt9basic_iosIcSt11char_traitsIcEES3_E
01025edc  w    F .text	00000448 _ZNKSt7num_putIcSt19ostreambuf_iteratorIcSt11char_traitsIcEEE13_M_insert_intImEES3_S3_RSt8ios_basecT_
01043aa8 g     F .text	00000090 _getc_r
010128b4  w    F .text	000000d0 _ZNSt10moneypunctIcLb1EEC1EPiPKcm
0103ccac  w    F .text	00000188 _ZNSt13basic_fstreamIcSt11char_traitsIcEEC2Ev
01043a10 g     F .text	00000098 getc
01010c24  w    F .text	00000124 _ZNSt15messages_bynameIcEC2EPKcm
0100d7dc  w    F .text	00000038 _ZNKSt7num_putIcSt19ostreambuf_iteratorIcSt11char_traitsIcEEE3putES3_RSt8ios_basecx
0105971c  w    O .rodata	00000014 _ZTVSt12out_of_range
01044b60 g     F .text	00000008 _putchar_r
01041d00 g     F .text	00000050 _Unwind_SjLj_ForcedUnwind
01003e44 g     F .text	000007b0 _ZNSt6locale5_ImplC2Em
01041914 g     F .text	00000014 _Unwind_GetCFA
01037008 g     F .text	00000014 _ZSt13set_terminatePFvvE
01056420 g     F .text	00000094 alt_find_dev
01044650 g     F .text	000000a0 memcpy
0104e464 g     F .text	00000248 __hexnan
01059d00  w    O .rodata	00000028 _ZTSSt14basic_ifstreamIcSt11char_traitsIcEE
010302e4  w    F .text	00000010 _ZNSsC2Ev
01005670  w    F .text	000001f4 _ZN9__gnu_cxx13stdio_filebufIcSt11char_traitsIcEEC2EP7__sFILESt13_Ios_Openmodem
0103dc20  w    F .text	000000a8 _ZNSt14basic_ifstreamIcSt11char_traitsIcEE7is_openEv
01010e50  w    F .text	000000d8 _ZNSt17__timepunct_cacheIcEC2Em
01021c78  w    F .text	00000204 _ZNKSt7num_getIcSt19istreambuf_iteratorIcSt11char_traitsIcEEE6do_getES3_S3_RSt8ios_baseRSt12_Ios_IostateRd
0100daa0  w    F .text	00000018 _ZNSt8time_putIcSt19ostreambuf_iteratorIcSt11char_traitsIcEEEC2Em
010301d4  w    F .text	0000000c _ZNKSs17find_first_not_ofERKSsm
01030044  w    F .text	000000a4 _ZNKSs17find_first_not_ofEPKcmm
010179f8  w    F .text	00000328 _ZNKSt7collateIcE12do_transformEPKcS2_
01044ecc g     F .text	000001d0 setvbuf
01058c90  w    O .rodata	0000000c _ZTISt15numpunct_bynameIcE
010586e0  w    O .rodata	00000014 _ZTVSt15time_put_bynameIcSt19ostreambuf_iteratorIcSt11char_traitsIcEEE
01035124 g     F .text	00000008 _ZNSt6locale5facet19_S_destroy_c_localeERPi
01058f04  w    O .rodata	0000000c _ZTISt12ctype_bynameIcE
0105497c g     F .text	0000005c alt_up_char_buffer_clear
0103178c  w    F .text	00000034 _ZNSsC1IPKcEET_S2_RKSaIcE
010155c8  w    F .text	0000043c _ZNSt5__padIcSt11char_traitsIcEE6_S_padERSt8ios_basecPcPKcllb
0100e090  w    F .text	00000010 _ZNSt7num_putIcSt19ostreambuf_iteratorIcSt11char_traitsIcEEED1Ev
0102c2fc  w    F .text	000003b8 _ZStlsISt11char_traitsIcEERSt13basic_ostreamIcT_ES5_c
010427e0 g     F .text	0000000c _cleanup_r
01058708  w    O .rodata	00000030 _ZTVSt7num_putIcSt19ostreambuf_iteratorIcSt11char_traitsIcEEE
01051e88 g     F .text	000000f8 __floatsidf
0100e394  w    F .text	000000f4 _ZSt9has_facetISt8time_putIcSt19ostreambuf_iteratorIcSt11char_traitsIcEEEEbRKSt6locale
01056a64 g     F .text	00000078 alt_io_redirect
0100d884  w    F .text	00000038 _ZNKSt7num_putIcSt19ostreambuf_iteratorIcSt11char_traitsIcEEE3putES3_RSt8ios_basece
0100d0c8  w    F .text	0000000c _ZNKSt10moneypunctIcLb1EE16do_thousands_sepEv
01051d78 g     F .text	00000088 __ltdf2
010596e8  w    O .rodata	00000014 _ZTVSt11range_error
0100dc84  w    F .text	0000000c _ZNKSt8messagesIcE4openERKSsRKSt6localePKc
0103adc4 g     F .text	00000104 _ZNSt13runtime_errorD2Ev
01059bd0  w    O .rodata	00000028 _ZTCSt14basic_ofstreamIcSt11char_traitsIcEE0_So
0105e154  w    O .bss	00000004 _ZNSt10moneypunctIcLb0EE2idE
010390cc g     F .text	00000190 _ZSt21__throw_runtime_errorPKc
010580a8 g       *ABS*	00000000 __DTOR_END__
0105a688 g     O .rwdata	00000038 _ZNSt17__timepunct_cacheIcE12_S_timezonesE
0103fb38  w    F .text	00000354 _ZNSt13basic_fstreamIcSt11char_traitsIcEEC1EPKcSt13_Ios_Openmode
01030288  w    F .text	00000050 _ZNKSs5rfindEPKcm
010583bc  w    O .rodata	000000b8 _ZN9__gnu_cxx4ropeIcSaIcEE10_S_min_lenE
0105c29c  w    O .rwdata	00000008 _ZTISt10money_base
01001070 g     F .text	0000009c _ZN10VGA_Screen4initEv
01015a04  w    F .text	00000060 _ZNKSt7num_putIcSt19ostreambuf_iteratorIcSt11char_traitsIcEEE6_M_padEclRSt8ios_basePcPKcRi
0103a9d8 g     F .text	000000b0 _ZNSt11logic_errorC2ERKSs
01059788  w    O .rodata	00000014 _ZTVSt16invalid_argument
01036d14 g     F .text	00000010 _ZN10__cxxabiv117__class_type_infoD1Ev
01059bf8  w    O .rodata	00000028 _ZTVSt14basic_ifstreamIcSt11char_traitsIcEE
010302f4  w    F .text	00000010 _ZN9__gnu_cxxeqIPKcSsEEbRKNS_17__normal_iteratorIT_T0_EES8_
01044c08 g     F .text	00000014 puts
01059418  w    O .rodata	0000000c _ZTIN10__cxxabiv121__vmi_class_type_infoE
0100e148  w    F .text	00000010 _ZNSt9money_putIcSt19ostreambuf_iteratorIcSt11char_traitsIcEEED2Ev
01033218  w    F .text	00000150 _ZStplIcSt11char_traitsIcESaIcEESbIT_T0_T1_EPKS3_RKS6_
0103d37c  w    F .text	00000318 _ZNSt13basic_filebufIcSt11char_traitsIcEE7seekoffExSt12_Ios_SeekdirSt13_Ios_Openmode
01058f54  w    O .rodata	00000011 _ZTSSt12codecvt_base
010588b4  w    O .rodata	00000010 _ZTVSt11__timepunctIcE
010095d8  w    F .text	000001f0 _ZNSirsERd
0104e864 g     F .text	00000040 mbrtowc
0100d904  w    F .text	00000018 _ZNKSt11__timepunctIcE15_M_time_formatsEPPKc
0105ed88 g     O .bss	0000000c _ZN14__gnu_internal13moneypunct_cfE
01058d58  w    O .rodata	0000001d _ZTSSt17moneypunct_bynameIcLb0EE
0103a8f8 g     F .text	00000030 _ZNSt11range_errorC2ERKSs
01007aa8  w    F .text	00000200 _ZNSi7putbackEc
0104b9e8 g     F .text	00000068 _vfscanf_r
0100fae4  w    F .text	00000010 _ZNSt12ctype_bynameIcED1Ev
0104ec40 g     F .text	000000b0 __ratio
0103b1e4  w    F .text	0000003c _ZNSt13basic_filebufIcSt11char_traitsIcEE15_M_create_pbackEv
01010b00  w    F .text	00000124 _ZNSt15messages_bynameIcEC1EPKcm
010107f0  w    F .text	000000c8 _ZNSt7collateIcEC1EPim
01012c14  w    F .text	00000018 _ZNSt15time_get_bynameIcSt19istreambuf_iteratorIcSt11char_traitsIcEEEC2EPKcm
01031d28  w    F .text	00000004 _ZNSsaSERKSs
010584e8  w    O .rodata	0000000c _ZTIN9__gnu_cxx13stdio_filebufIcSt11char_traitsIcEEE
01004da4 g     F .text	00000054 _ZNSt6locale18_S_initialize_onceEv
010596fc  w    O .rodata	0000000c _ZTISt12out_of_range
0102ff70  w    F .text	00000038 _ZNKSs15_M_check_lengthEmmPKc
0105c2ed g     O .rwdata	00000001 _ZNSt10ctype_base5printE
01058a2c  w    O .rodata	00000016 _ZTSSt14collate_bynameIcE
010119a4  w    F .text	00000018 _ZNSt9money_putIcSt19ostreambuf_iteratorIcSt11char_traitsIcEEEC1Em
0105e15c  w    O .bss	00000004 _ZNSt9money_getIcSt19istreambuf_iteratorIcSt11char_traitsIcEEE2idE
01030b48  w    F .text	000000c0 _ZNSs12_S_constructEmcRKSaIcE
0103a574 g     F .text	000000d8 _ZNSt10__num_base15_S_format_floatERKSt8ios_basePcc
01054c74 g     F .text	00000034 alt_up_pixel_buffer_dma_check_swap_buffers_status
01054130 g     F .text	00000224 altera_avalon_jtag_uart_read
01043da4 g     F .text	00000014 malloc
01044924 g     F .text	00000034 _printf_r
00000000 g       *ABS*	00000000 __alt_mem_onchip_memory2_0
01041898 g     F .text	00000008 __udivsi3
0100d938  w    F .text	00000018 _ZNKSt11__timepunctIcE8_M_am_pmEPPKc
01052a58 g     F .text	000000c4 isatty
01012b0c  w    F .text	000000c0 _ZNSt8messagesIcEC1Em
0100ab80  w    F .text	000001c0 _ZNSi6sentryC2ERSib
0102f3b4  w    F .text	00000010 _ZNSt15basic_streambufIcSt11char_traitsIcEE5gbumpEi
01008848  w    F .text	00000350 _ZNSi3getEPclc
0104509c g     F .text	000000cc _raise_r
0104e728 g     F .text	0000002c iswspace
01058ce4  w    O .rodata	0000003c _ZTSSt9money_getIcSt19istreambuf_iteratorIcSt11char_traitsIcEEE
0102c998  w    F .text	00000320 _ZNSo3putEc
010586f4  w    O .rodata	00000014 _ZTVSt8time_putIcSt19ostreambuf_iteratorIcSt11char_traitsIcEEE
0105a46c g     O .rodata	000000c8 __mprec_tens
0103272c  w    F .text	0000009c _ZNSs15_M_replace_safeEmmPKcm
01038a8c g     F .text	00000190 _ZSt22__throw_overflow_errorPKc
0102d6cc  w    F .text	00000380 _ZNSolsEf
0103cf0c  w    F .text	000001c8 _ZNSt13basic_filebufIcSt11char_traitsIcEE4openEPKcSt13_Ios_Openmode
01037724 g     F .text	000000d0 _ZNSt7codecvtIcc10_mbstate_tEC2Em
0100285c g     F .text	000002d0 _ZNKSt6localeeqERKS_
01006538  w    F .text	000001e4 _ZNSt9basic_iosIcSt11char_traitsIcEE7copyfmtERKS2_
01003918 g     F .text	00000458 _ZNSt6locale5_Impl16_M_install_facetEPKNS_2idEPKNS_5facetE
01055310 g     F .text	00000358 alt_up_pixel_buffer_dma_draw_hline
0100ff64  w    F .text	00000080 _ZNSt18__moneypunct_cacheIcLb1EED0Ev
0103aab8 g     F .text	00000030 _ZNSt12out_of_rangeC2ERKSs
0100f408  w    F .text	000000bc _ZNSt7collateIcED2Ev
0102c6c4  w    F .text	00000010 _ZStlsISt11char_traitsIcEERSt13basic_ostreamIcT_ES5_h
01003670 g     F .text	000002a8 _ZNSt6locale5_ImplD2Ev
01043b38 g     F .text	00000008 __locale_charset
0102aa78  w    F .text	000000a0 _ZNSo6sentryD2Ev
010589b0  w    O .rodata	00000018 _ZTSSt16__numpunct_cacheIcE
0102f3ec  w    F .text	00000010 _ZNSt15basic_streambufIcSt11char_traitsIcEE5pbumpEi
01031d2c  w    F .text	00000128 _ZNSs7reserveEm
01050e2c g     F .text	000000a4 __fixunsdfsi
01030d78  w    F .text	000000c8 _ZNKSs7compareEmmPKc
0105e1ac  w    O .bss	00000008 _ZGVNSt7num_getIcSt19istreambuf_iteratorIcSt11char_traitsIcEEE2idE
0102fcc0  w    F .text	0000000c _ZNKSs4sizeEv
01000418 g     F .text	000000b0 _ZN9MatrixMap12print_matrixEv
0105e254 g     O .bss	00000004 __malloc_top_pad
010324f4  w    F .text	00000238 _ZNSs9_M_mutateEmmm
010335fc  w    F .text	000002e0 _ZNSs7replaceEmmPKcm
01030378  w    F .text	00000058 _ZNKSs16find_last_not_ofEcm
01045374 g     F .text	00000004 _getpid_r
01010244  w    F .text	00000034 _ZNSt15numpunct_bynameIcED0Ev
0102b810  w    F .text	00000368 _ZNSolsEm
0105836c g     O .rodata	00000010 _ZNSt6locale5_Impl13_S_id_numericE
0103394c  w    F .text	00000010 _ZNSs7replaceEN9__gnu_cxx17__normal_iteratorIPcSsEES2_PKcm
010030c0 g     F .text	000002ec _ZNSt6locale5_ImplC2ERKS0_m
01050a50 g     F .text	00000024 strtoul
0105c3a4 g     O .rwdata	00000004 __mb_cur_max
010320c8  w    F .text	00000040 _ZNSs6appendEPKc
0103d198  w    F .text	00000064 _ZNSt14basic_ifstreamIcSt11char_traitsIcEE4openEPKcSt13_Ios_Openmode
0105c38c g     O .rwdata	00000004 _ZNSt10__num_base11_S_atoms_inE
0103ed34  w    F .text	000001f4 _ZNSt14basic_ifstreamIcSt11char_traitsIcEEC1EPKcSt13_Ios_Openmode
01059834  w    O .rodata	0000000c _ZTSSt8ios_base
0100cbd4  w    F .text	000000c8 _ZNKSt10moneypunctIcLb0EE10pos_formatEv
01043b40 g     F .text	0000000c _localeconv_r
01035560 g     F .text	00000010 _ZN10__cxxabiv121__vmi_class_type_infoD1Ev
010303d0  w    F .text	00000064 _ZNKSs17find_first_not_ofEcm
01050a74 g     F .text	000002f0 _strtoull_r
0104f5c8 g     F .text	0000003c __i2b
0104d644 g     F .text	0000049c __sfvwrite_r
01036d34 g     F .text	00000060 _ZNK10__cxxabiv117__class_type_info10__do_catchEPKSt9type_infoPPvj
0100829c  w    F .text	000001dc _ZNSi6ignoreEv
010014c0 g     F .text	000004bc _ZNSt8ios_base4InitC2Ev
010451f0 g     F .text	000000b4 __sigtramp_r
0102fc40  w    F .text	00000008 _ZNKSs9_M_ibeginEv
01034bc8 g     F .text	00000008 _ZNSt12__basic_fileIcE4fileEv
0103a758 g     F .text	000000b0 _ZNSt13runtime_errorC2ERKSs
01011cb4  w    F .text	0000009c _ZNKSt10moneypunctIcLb0EE14do_curr_symbolEv
010268b8  w    F .text	00000358 _ZNKSt7num_putIcSt19ostreambuf_iteratorIcSt11char_traitsIcEEE6do_putES3_RSt8ios_basecb
01006184  w    F .text	00000030 _ZNSt9basic_iosIcSt11char_traitsIcEE11_M_setstateESt12_Ios_Iostate
01059b0c  w    O .rodata	0000003c _ZTCSt13basic_fstreamIcSt11char_traitsIcEE0_Sd
010103b0  w    F .text	000000c8 _ZNSt10moneypunctIcLb1EEC2Em
01044e5c g     F .text	00000070 _sbrk_r
0105c32c g     O .rwdata	00000004 _ZNSt8ios_base6skipwsE
01055b04 g     F .text	000000d8 helper_plot_pixel
010104bc  w    F .text	00000010 _ZNSt17moneypunct_bynameIcLb0EED2Ev
0100cf20  w    F .text	0000000c _ZNKSt10moneypunctIcLb1EE11frac_digitsEv
01008b98  w    F .text	00000064 _ZNSi3getEPcl
01058914  w    O .rodata	0000002c _ZTVSt23__codecvt_abstract_baseIcc10_mbstate_tE
0105c2b4  w    O .rwdata	00000003 _ZTSSo
010342e0 g     F .text	000000d0 _ZNSt8numpunctIcED0Ev
0103c030  w    F .text	00000110 _ZNSt13basic_filebufIcSt11char_traitsIcEE7_M_seekExSt12_Ios_Seekdir10_mbstate_t
01034ff0 g     F .text	00000080 _ZNSt12__basic_fileIcE4openEPKcSt13_Ios_Openmodei
01059bc0  w    O .rodata	00000010 _ZTTSt14basic_ofstreamIcSt11char_traitsIcEE
01059424  w    O .rodata	00000020 _ZTVSt9type_info
0100df94  w    F .text	00000010 _ZNSt8time_getIcSt19istreambuf_iteratorIcSt11char_traitsIcEEED1Ev
01059770  w    O .rodata	00000015 _ZTSSt16invalid_argument
010583a0 g     O .rodata	0000001c _ZNSt6locale5_Impl19_S_facet_categoriesE
0103ebec  w    F .text	00000148 _ZNSt14basic_ofstreamIcSt11char_traitsIcEEC2Ev
010385fc g     F .text	00000034 _ZSt17__throw_bad_allocv
0102f61c  w    F .text	00000008 _ZNSt15basic_streambufIcSt11char_traitsIcEE8overflowEi
0103d0d4  w    F .text	00000060 _ZNSt13basic_fstreamIcSt11char_traitsIcEE4openEPKcSt13_Ios_Openmode
01011560  w    F .text	00000018 _ZNSt7num_getIcSt19istreambuf_iteratorIcSt11char_traitsIcEEEC2Em
01058d84  w    O .rodata	0000000f _ZTSSt8messagesIcE
010119bc  w    F .text	00000018 _ZNSt9money_putIcSt19ostreambuf_iteratorIcSt11char_traitsIcEEEC2Em
0100a57c  w    F .text	000001f0 _ZNSirsERt
0105e16c  w    O .bss	00000004 _ZNSt7num_putIcSt19ostreambuf_iteratorIcSt11char_traitsIcEEE2idE
0102fc10  w    F .text	00000010 _ZNSt11char_traitsIcE2eqERKcS2_
0100e158  w    F .text	00000034 _ZNSt9money_getIcSt19istreambuf_iteratorIcSt11char_traitsIcEEED0Ev
0104f970 g     F .text	00000078 _read_r
01037258 g     F .text	00000010 _ZNKSt9exception4whatEv
01030750  w    F .text	00000068 _ZNKSs4findEcm
0105aac0 g     O .rwdata	0000000c __lc_ctype
0105c3cc g     O .rwdata	00000004 alt_max_fd
010309e0  w    F .text	00000050 _ZNKSs16find_last_not_ofEPKcm
01058a00  w    O .rodata	0000001e _ZTSSt18__moneypunct_cacheIcLb0EE
01011814  w    F .text	000000cc _ZNSt8numpunctIcEC2EPSt16__numpunct_cacheIcEm
010523b4 g     F .text	00000138 __unpack_d
01030914  w    F .text	00000050 _ZNKSs4findEPKcm
0104222c g     F .text	00000110 _fclose_r
0100d4e8  w    F .text	00000044 _ZNKSt7num_getIcSt19istreambuf_iteratorIcSt11char_traitsIcEEE3getES3_S3_RSt8ios_baseRSt12_Ios_IostateRt
01030a80  w    F .text	00000050 _ZNKSs12find_last_ofEPKcm
01059d34  w    O .rodata	00000027 _ZTSSt13basic_filebufIcSt11char_traitsIcEE
010301e0  w    F .text	000000a8 _ZNKSs5rfindEPKcmm
0100dce4  w    F .text	00000004 _ZNKSt8messagesIcE8do_closeEi
010595a8  w    O .rodata	0000000c _ZTISt9bad_alloc
0103b454  w    F .text	00000050 _ZNSt13basic_filebufIcSt11char_traitsIcEE4syncEv
0102fc34  w    F .text	0000000c _ZNKSs6_M_repEv
01042608 g     F .text	00000034 fflush
0105eb38 g     O .bss	00000220 _ZN14__gnu_internal7ctype_cE
0105e258 g     O .bss	00000004 __malloc_max_sbrked_mem
01058e6c  w    O .rodata	0000000e _ZTSSt7collateIcE
0105838c g     O .rodata	00000014 _ZNSt6locale5_Impl14_S_id_monetaryE
0100d63c  w    F .text	00000044 _ZNKSt7num_getIcSt19istreambuf_iteratorIcSt11char_traitsIcEEE3getES3_S3_RSt8ios_baseRSt12_Ios_IostateRf
01032c8c  w    F .text	00000050 _ZNSs5eraseEN9__gnu_cxx17__normal_iteratorIPcSsEE
0105f304 g     O .bss	00000074 _ZN14__gnu_internal8buf_cerrE
0100eec0  w    F .text	00000058 _ZSt9use_facetISt8time_putIcSt19ostreambuf_iteratorIcSt11char_traitsIcEEEERKT_RKSt6locale
0105c248 g     O .rwdata	00000004 _ZNSt6locale4timeE
0103b7cc  w    F .text	00000164 _ZNSt13basic_filebufIcSt11char_traitsIcEE19_M_terminate_outputEv
0100f180  w    F .text	00000058 _ZSt9use_facetISt8numpunctIcEERKT_RKSt6locale
0100ce34  w    F .text	0000002c _ZNKSt10moneypunctIcLb1EE13thousands_sepEv
01016240  w    F .text	00001410 _ZNKSt8time_getIcSt19istreambuf_iteratorIcSt11char_traitsIcEEE21_M_extract_via_formatES3_S3_RSt8ios_baseRSt12_Ios_IostateP2tmPKc
01033048  w    F .text	00000044 _ZNSsixEm
01031bb4  w    F .text	00000174 _ZNSs6assignERKSs
010416d0 g     F .text	00000054 __extendsfdf2
0105e1bc  w    O .bss	00000008 _ZGVNSt11__timepunctIcE2idE
010118e0  w    F .text	000000c4 _ZNSt8numpunctIcEC1Em
01059824  w    O .rodata	00000010 _ZTVSt8ios_base
0105f1f4 g     O .bss	00000028 _ZN14__gnu_internal13buf_cerr_syncE
0100d2a0  w    F .text	00000044 _ZNKSt9money_putIcSt19ostreambuf_iteratorIcSt11char_traitsIcEEE3putES3_bRSt8ios_basece
010514c8 g     F .text	00000074 __adddf3
01050ed0 g     F .text	00000078 __nesf2
01035244 g     F .text	000000c8 _ZSt14__convert_to_vIfEvPKcRT_RSt12_Ios_IostateRKPi
01058e88  w    O .rodata	0000000f _ZTSSt8numpunctIcE
010594b0  w    O .rodata	0000002c _ZTVN10__cxxabiv120__si_class_type_infoE
0102a900  w    F .text	00000068 _ZStlsIcSt11char_traitsIcEERSt13basic_ostreamIT_T0_ES6_St8_Setbase
0105e1dc  w    O .bss	00000008 _ZGVNSt7collateIcE2idE
0100f848  w    F .text	00000010 _ZNSt14codecvt_bynameIcc10_mbstate_tED1Ev
0100f128  w    F .text	00000058 _ZSt9use_facetISt7num_putIcSt19ostreambuf_iteratorIcSt11char_traitsIcEEEERKT_RKSt6locale
010406e8  w    F .text	00000008 _ZThn8_NSdD0Ev
0103237c  w    F .text	000000bc _ZNSsD1Ev
0104eb20 g     F .text	00000120 __b2d
0102a6b8  w    F .text	00000008 _ZNSolsEPFRSoS_E
01054ca8 g     F .text	0000016c alt_up_pixel_buffer_dma_clear_screen
010408c0 g     F .text	00000010 _ZNSt8bad_castD1Ev
01041070 g     F .text	00000660 __umoddi3
01052e08 g     F .text	000000f4 lseek
01058f44  w    O .rodata	0000000f _ZTSSt10money_base
0103308c  w    F .text	0000003c _ZNSs3endEv
01005f94  w    F .text	00000010 _ZNSt9basic_iosIcSt11char_traitsIcEED2Ev
01059914  w    O .rodata	00000014 _ZTVSt11logic_error
01036d94 g     F .text	00000030 _ZNK10__cxxabiv117__class_type_info11__do_upcastEPKS0_PKvRNS0_15__upcast_resultE
01036000 g     F .text	0000000c _ZdlPv
0103c6e4  w    F .text	0000016c _ZNSt13basic_filebufIcSt11char_traitsIcEE6xsputnEPKcl
01010a40  w    F .text	000000c0 _ZNSt8messagesIcEC2Em
010080bc  w    F .text	000001e0 _ZNSi4peekEv
0103968c  w    F .text	00000034 _ZNSt12length_errorD0Ev
0105c3a0 g     O .rwdata	00000004 _global_impure_ptr
0100ef18  w    F .text	00000058 _ZSt9use_facetISt11__timepunctIcEERKT_RKSt6locale
0105c384 g     O .rwdata	00000004 _ZNSt10money_base18_S_default_patternE
0103552c g     F .text	00000034 _ZN10__cxxabiv121__vmi_class_type_infoD0Ev
0104f9e8 g     F .text	000005f4 _realloc_r
0105c2f0 g     O .rwdata	00000001 _ZNSt10ctype_base5lowerE
01000c38 g     F .text	00000044 _ZN10VGA_Screen12clear_screenEP27alt_up_pixel_buffer_dma_dev
0105c35c g     O .rwdata	00000004 _ZNSt8ios_base6binaryE
0105f730 g       *ABS*	00000000 __bss_end
01056894 g     F .text	000000f8 alt_iic_isr_register
0105ed7c g     O .bss	0000000c _ZN14__gnu_internal13moneypunct_ctE
01054e14 g     F .text	000004fc alt_up_pixel_buffer_dma_draw_box
01056b74 g     F .text	0000010c alt_tick
01058a98  w    O .rodata	0000000c _ZTISt15messages_bynameIcE
010418e0 g     F .text	00000010 _Unwind_SjLj_Register
01011a04  w    F .text	00000054 _ZNSt18__moneypunct_cacheIcLb1EEC2Em
0100dfe8  w    F .text	00000010 _ZNSt8time_putIcSt19ostreambuf_iteratorIcSt11char_traitsIcEEED1Ev
0105f3a0 g     O .bss	00000100 __hexdig
0102a9d8  w    F .text	000000a0 _ZNSo6sentryD1Ev
01040a04 g     F .text	0000066c __udivdi3
0102f854  w    F .text	000000d8 _ZNSt15basic_streambufIcSt11char_traitsIcEE6xsputnEPKcl
010596b8  w    O .rodata	00000014 _ZTVSt14overflow_error
01012bcc  w    F .text	00000018 _ZNSt15time_put_bynameIcSt19ostreambuf_iteratorIcSt11char_traitsIcEEEC1EPKcm
0103a4bc g     F .text	00000068 _ZNSt8ios_base5imbueERKSt6locale
010393ec g     F .text	00000190 _ZSt20__throw_length_errorPKc
0105a534 g     O .rodata	00000028 __mprec_bigtens
0104f850 g     F .text	00000120 __s2b
010068a8  w    F .text	00000064 _ZNSi7getlineEPcl
01000c7c g     F .text	0000008c _ZN10VGA_Screen12paint_screenEP27alt_up_pixel_buffer_dma_dev
01042204 g     F .text	00000018 abort
0103e67c  w    F .text	00000184 _ZNSt14basic_ofstreamIcSt11char_traitsIcEEC1Ev
0102f2dc  w    F .text	0000000c _ZNSt15basic_streambufIcSt11char_traitsIcEE9pubsetbufEPcl
0102cfec  w    F .text	00000368 _ZNSolsEPKv
0105c283  w    O .rwdata	00000001 _ZNSt17moneypunct_bynameIcLb1EE4intlE
0100dd5c  w    F .text	000000b0 _ZSt14__add_groupingIcEPT_S1_S0_PKcmPKS0_S5_
010520cc g     F .text	00000194 __floatunsidf
0102a018  w    F .text	00000008 _ZN9__gnu_cxx18stdio_sync_filebufIcSt11char_traitsIcEE4syncEv
0100fab0  w    F .text	00000034 _ZNSt12ctype_bynameIcED0Ev
01006174  w    F .text	00000010 _ZNKSt9basic_iosIcSt11char_traitsIcEE3eofEv
0102feb4  w    F .text	000000bc _ZNSs4_Rep10_M_refcopyEv
01058548  w    O .rodata	00000028 _ZTVSi
010595b4  w    O .rodata	0000002c _ZTVSt7codecvtIcc10_mbstate_tE
0104ea40 g     F .text	00000060 __mcmp
0105e200 g     O .bss	00000004 _ZN14__gnu_internal8c_localeE
01009030  w    F .text	000001c8 _ZNSirsEPSt15basic_streambufIcSt11char_traitsIcEE
0102f410  w    F .text	00000008 _ZNSt15basic_streambufIcSt11char_traitsIcEE6setbufEPcl
0105c2f1 g     O .rwdata	00000001 _ZNSt10ctype_base5alphaE
01059b48  w    O .rodata	00000028 _ZTCSt13basic_fstreamIcSt11char_traitsIcEE0_Si
0105c398 g     O .rwdata	00000004 __ctype_ptr
01035e44 g     F .text	000000a4 __cxa_end_catch
0105853c  w    O .rodata	0000000c _ZTISt9basic_iosIcSt11char_traitsIcEE
010427c8 g     F .text	00000018 __fp_lock_all
01034f64 g     F .text	0000008c _ZNSt12__basic_fileIcE6xsgetnEPcl
01059014  w    O .rodata	00000018 _ZTISo
0105684c g     F .text	00000048 alt_ic_irq_enabled
010372dc g     F .text	00000010 _ZNSt13bad_exceptionD2Ev
01000910 g     F .text	000000c8 _ZN6Player13get_directionEv
01006db0  w    F .text	000001f0 _ZNSi5seekgESt4fposI10_mbstate_tE
01000b80 g     F .text	0000005c _ZN10VGA_ScreenC1Ev
0105f290 g     O .bss	00000074 _ZN14__gnu_internal7buf_cinE
0100dff8  w    F .text	00000010 _ZNSt8time_putIcSt19ostreambuf_iteratorIcSt11char_traitsIcEEED2Ev
01056adc g     F .text	00000098 alt_alarm_stop
0105c36c g     O .rwdata	00000004 _ZNSt8ios_base3begE
0100dcf4  w    F .text	00000030 _ZNKSt7collateIcE9transformEPKcS2_
0100e05c  w    F .text	00000034 _ZNSt7num_putIcSt19ostreambuf_iteratorIcSt11char_traitsIcEEED0Ev
0102f6ec  w    F .text	000000dc _ZNSt15basic_streambufIcSt11char_traitsIcEE6xsgetnEPcl
01006980  w    F .text	00000068 _ZStrsIcSt11char_traitsIcEERSt13basic_istreamIT_T0_ES6_St8_Setbase
010068a0  w    F .text	00000004 _ZStrsISt11char_traitsIcEERSt13basic_istreamIcT_ES5_Pa
010504d4 g     F .text	00000024 strtol
0102fd14  w    F .text	0000000c _ZNKSs4_Rep12_M_is_sharedEv
01037f54 g     F .text	0000006c _ZNKSt5ctypeIcE10do_toupperEPcPKc
01006270  w    F .text	00000140 _ZNSt9basic_iosIcSt11char_traitsIcEE5imbueERKSt6locale
0102c2f8  w    F .text	00000004 _ZStlsISt11char_traitsIcEERSt13basic_ostreamIcT_ES5_PKh
0100cb68  w    F .text	00000030 _ZNKSt10moneypunctIcLb0EE13positive_signEv
0105e204 g     O .bss	00000008 _ZN14__gnu_internal9num_get_cE
0102fc20  w    F .text	00000008 _ZNKSs7_M_dataEv
0101035c  w    F .text	00000034 _ZNSt17moneypunct_bynameIcLb1EED0Ev
01031360  w    F .text	00000060 _ZNSsC2ERKSsmmRKSaIcE
0105e274 g     O .bss	00000004 alt_irq_active
01002428 g     F .text	00000434 _ZNKSt6locale4nameEv
01034d80 g     F .text	00000004 _ZNSt12__basic_fileIcED1Ev
010370d4 g     F .text	00000018 _ZSt9terminatev
01037a78 g     F .text	000000dc _ZNSt7codecvtIcc10_mbstate_tED2Ev
01033210  w    F .text	00000008 _ZNSs6resizeEm
0100ad40 g     F .text	0000046c _ZNSi6ignoreEli
010395b0  w    F .text	00000010 _ZNSt15underflow_errorD1Ev
01033b54 g     F .text	0000005c _ZNSt10money_base20_S_construct_patternEccc
0103f618  w    F .text	000001c0 _ZNSt13basic_fstreamIcSt11char_traitsIcEED0Ev
01038c1c g     F .text	00000190 _ZSt24__throw_invalid_argumentPKc
010000ec g     F .exceptions	000000c8 alt_irq_handler
010328c0  w    F .text	00000040 _ZNSs6assignEPKc
01021e7c  w    F .text	00000204 _ZNKSt7num_getIcSt19istreambuf_iteratorIcSt11char_traitsIcEEE6do_getES3_S3_RSt8ios_baseRSt12_Ios_IostateRf
0105af3c g     O .rwdata	00000028 alt_dev_null
01045880 g     F .text	00000068 _strdup_r
0103103c  w    F .text	00000104 _ZNSs4_Rep7_M_grabERKSaIcES2_
01032f0c  w    F .text	00000050 _ZNSs6insertEmRKSsmm
0100cab0  w    F .text	0000002c _ZNKSt10moneypunctIcLb0EE13decimal_pointEv
01002178 g     F .text	00000010 _ZNSt6locale5facet18_S_initialize_onceEv
01058ed0  w    O .rodata	00000020 _ZTISt23__codecvt_abstract_baseIcc10_mbstate_tE
0103a000 g     F .text	00000008 _ZNKSt8ios_base7failure4whatEv
01039758 g     F .text	00000064 _ZNSt8ios_base20_M_dispose_callbacksEv
01029d48  w    F .text	0000012c _ZSt16__convert_from_vIeEiPciPKcT_RKPii
0103b0d8 g     F .text	0000010c _ZNSt11logic_errorD0Ev
010103a0  w    F .text	00000010 _ZNSt17moneypunct_bynameIcLb1EED2Ev
01034bd8 g     F .text	00000094 _ZNSt12__basic_fileIcE8sys_openEP7__sFILESt13_Ios_Openmode
01058ea4  w    O .rodata	0000002c _ZTSSt23__codecvt_abstract_baseIcc10_mbstate_tE
01041e28 g     F .text	000000c8 __unpack_f
01016090  w    F .text	000001b0 _ZNSt14collate_bynameIcEC2EPKcm
01012d0c  w    F .text	000002b4 _ZNKSt8time_putIcSt19ostreambuf_iteratorIcSt11char_traitsIcEEE3putES3_RSt8ios_basecPK2tmPKcSB_
01030ad0  w    F .text	00000050 _ZNKSs13find_first_ofEPKcm
01011530  w    F .text	00000018 _ZNSt7num_putIcSt19ostreambuf_iteratorIcSt11char_traitsIcEEEC2Em
01054694 g     F .text	00000040 alt_up_parallel_port_open_dev
01038548 g     F .text	0000004c _ZNKSt5ctypeIcE10do_tolowerEc
0100b630 g     F .text	000004f4 _ZSt7getlineIcSt11char_traitsIcESaIcEERSt13basic_istreamIT_T0_ES7_RSbIS4_S5_T1_ES4_
0105e20c g     O .bss	00000008 _ZN14__gnu_internal9num_put_cE
01002310 g     F .text	00000118 _ZNSt6locale5_Impl16_M_install_cacheEPKNS_5facetEm
01059480  w    O .rodata	00000022 _ZTSN10__cxxabiv117__class_type_infoE
01048164 g     F .text	00000004 __tz_unlock
0100e764  w    F .text	000000f4 _ZSt9has_facetISt10moneypunctIcLb0EEEbRKSt6locale
0100671c  w    F .text	00000008 _ZNSirsEPFRSiS_E
0105c34c g     O .rwdata	00000004 _ZNSt8ios_base7failbitE
0105c28c  w    O .rwdata	00000008 _ZTISt9time_base
01032148  w    F .text	000000e8 _ZNSs6appendERKSsmm
01056228 g     F .text	0000001c alt_dcache_flush_all
0104e90c g     F .text	00000070 __hi0bits
01012c2c  w    F .text	000000e0 _ZNKSt7num_putIcSt19ostreambuf_iteratorIcSt11char_traitsIcEEE14_M_group_floatEPKcmcS6_PcS7_Ri
010374dc g     F .text	00000010 _ZNKSt7codecvtIcc10_mbstate_tE10do_unshiftERS0_PcS3_RS3_
0101b178  w    F .text	00000ad4 _ZNSt18__moneypunct_cacheIcLb0EE8_M_cacheERKSt6locale
01055a40 g     F .text	000000c4 alt_up_pixel_buffer_dma_draw_rectangle
0105c2e0  w    O .rwdata	00000008 _ZTISt9exception
0100d420  w    F .text	00000040 _ZNSt16__numpunct_cacheIcEC1Em
01051f80 g     F .text	000000d8 __fixdfsi
0100cd70  w    F .text	0000000c _ZNKSt10moneypunctIcLb0EE16do_thousands_sepEv
01011dec  w    F .text	0000009c _ZNKSt8numpunctIcE12do_falsenameEv
01030b20  w    F .text	00000010 _ZNKSs4rendEv
010301c8  w    F .text	0000000c _ZNKSs4findERKSsm
01058a80  w    O .rodata	00000017 _ZTSSt15messages_bynameIcE
0103a3b0 g     F .text	0000010c _ZNSt8ios_base7failureD0Ev
0101005c  w    F .text	00000078 _ZNSt18__moneypunct_cacheIcLb1EED2Ev
01000da8 g     F .text	000000ec _ZN10VGA_Screen24draw_box_from_coordinateEiic
01058f20  w    O .rodata	0000000d _ZTSSt9time_base
0100d8ec  w    F .text	00000018 _ZNKSt11__timepunctIcE15_M_date_formatsEPPKc
01015ee0  w    F .text	000001b0 _ZNSt14collate_bynameIcEC1EPKcm
0102fd50  w    F .text	0000014c _ZSt6searchIPKcS1_PFbRS0_S2_EET_S5_S5_T0_S6_T1_
01032f5c  w    F .text	0000000c _ZNSs6insertEmRKSs
010480dc g     F .text	0000001c strtod
01058e04  w    O .rodata	00000020 _ZTISt10moneypunctIcLb1EE
01040544  w    F .text	00000194 _ZNSdC2EPSt15basic_streambufIcSt11char_traitsIcEE
0105c3e4 g       *ABS*	00000000 __ram_rwdata_end
0103bb80  w    F .text	00000250 _ZNSt13basic_filebufIcSt11char_traitsIcEEC2Ev
0103e810  w    F .text	00000128 _ZNSt14basic_ofstreamIcSt11char_traitsIcEED1Ev
01036048 g     F .text	00000010 _ZNSt9type_infoD1Ev
0105c3c4 g     O .rwdata	00000008 alt_dev_list
0105e1f0 g     O .bss	00000004 __new_handler
010597a8  w    O .rodata	00000011 _ZTSSt12domain_error
010535d4 g     F .text	00000124 write
01032c04  w    F .text	00000038 _ZNSs6insertEN9__gnu_cxx17__normal_iteratorIPcSsEEmc
01044a5c g     F .text	000000e8 _putc_r
01031724  w    F .text	00000034 _ZNSsC1EPKcmRKSaIcE
0100f0d0  w    F .text	00000058 _ZSt9use_facetISt7num_getIcSt19istreambuf_iteratorIcSt11char_traitsIcEEEERKT_RKSt6locale
0105c31c g     O .rwdata	00000004 _ZNSt8ios_base10scientificE
01058be8  w    O .rodata	0000003a _ZTSSt7num_putIcSt19ostreambuf_iteratorIcSt11char_traitsIcEEE
01001008 g     F .text	00000068 _ZN10VGA_Screen14draw_characterEP22alt_up_char_buffer_dev
01033100  w    F .text	0000004c _ZNSs4rendEv
01036038 g     F .text	00000010 _ZNSt9type_infoD0Ev
01050f48 g     F .text	00000078 __gtsf2
0105c3b4 g     O .rwdata	00000008 _tzname
01055bdc g     F .text	0000039c alt_up_pixel_buffer_dma_draw_line
0103acc0 g     F .text	00000104 _ZNSt13runtime_errorD1Ev
01010d78  w    F .text	000000d8 _ZNSt17__timepunct_cacheIcEC1Em
0103c140  w    F .text	000001b0 _ZNSt13basic_filebufIcSt11char_traitsIcEE8overflowEi
01001e38 g     F .text	00000210 _ZNSt8ios_base15sync_with_stdioEb
0105a688 g       *ABS*	00000000 __ram_rodata_end
0100df50  w    F .text	00000010 _ZNSt21__ctype_abstract_baseIcED1Ev
0105e1f8 g     O .bss	00000004 _ZNSt7codecvtIcc10_mbstate_tE2idE
010402b0  w    F .text	00000060 _ZNSdD2Ev
01052900 g     F .text	000000d8 fstat
0102feac  w    F .text	00000008 _ZNSs12_Alloc_hiderC2EPcRKSaIcE
01058ef0  w    O .rodata	00000014 _ZTSSt12ctype_bynameIcE
01052b7c g     F .text	00000140 kill
01031300  w    F .text	00000060 _ZNSsC1ERKSsmmRKSaIcE
0103abd8 g     F .text	00000030 _ZNSt12domain_errorC2ERKSs
0102ab8c  w    F .text	000001f0 _ZNSo5seekpESt4fposI10_mbstate_tE
01051e00 g     F .text	00000088 __ledf2
0103530c g     F .text	000000d8 _ZSt14__convert_to_vIeEvPKcRT_RSt12_Ios_IostateRKPi
0105c338 g     O .rwdata	00000004 _ZNSt8ios_base11adjustfieldE
0103f3bc  w    F .text	000000fc _ZNSt14basic_ifstreamIcSt11char_traitsIcEED2Ev
01058a74  w    O .rodata	0000000c _ZTISt14codecvt_bynameIcc10_mbstate_tE
0103aba8 g     F .text	00000030 _ZNSt12domain_errorC1ERKSs
01012fd0  w    F .text	00000034 _ZNSt15time_put_bynameIcSt19ostreambuf_iteratorIcSt11char_traitsIcEEED0Ev
0100547c  w    F .text	000001f4 _ZN9__gnu_cxx13stdio_filebufIcSt11char_traitsIcEEC2EiSt13_Ios_Openmodem
01039748  w    F .text	00000010 _ZNSt12domain_errorD1Ev
010312cc  w    F .text	00000034 _ZNSsC2IPcEET_S1_RKSaIcE
0100ea40  w    F .text	000000f4 _ZSt9has_facetISt8numpunctIcEEbRKSt6locale
0102f378  w    F .text	0000000c _ZNSt15basic_streambufIcSt11char_traitsIcEE7pubsyncEv
01058e44  w    O .rodata	00000019 _ZTSSt17__timepunct_cacheIcE
01006254  w    F .text	0000001c _ZNKSt9basic_iosIcSt11char_traitsIcEEcvPvEv
0104f730 g     F .text	00000120 __pow5mult
010334b0  w    F .text	0000014c _ZStplIcSt11char_traitsIcESaIcEESbIT_T0_T1_ES3_RKS6_
0100bb24 g     F .text	0000056c _ZStrsIcSt11char_traitsIcESaIcEERSt13basic_istreamIT_T0_ES7_RSbIS4_S5_T1_E
010585fc  w    O .rodata	00000010 _ZTVSt16__numpunct_cacheIcE
0105c310 g     O .rwdata	00000004 _ZNSt8ios_base4leftE
0105e248 g     O .bss	00000004 __nlocale_changed
0103957c  w    F .text	00000034 _ZNSt15underflow_errorD0Ev
010418a0 g     F .text	00000008 __umodsi3
01036030 g     F .text	00000008 _ZNKSt9type_info11__do_upcastEPKN10__cxxabiv117__class_type_infoEPPv
01014420  w    F .text	000003f0 _ZNKSt8time_getIcSt19istreambuf_iteratorIcSt11char_traitsIcEEE11do_get_yearES3_S3_RSt8ios_baseRSt12_Ios_IostateP2tm
0103d1fc  w    F .text	00000180 _ZNSt13basic_filebufIcSt11char_traitsIcEE7seekposESt4fposI10_mbstate_tESt13_Ios_Openmode
0102a6f4  w    F .text	00000034 _ZNSolsEPFRSt8ios_baseS0_E
01033e10 g     F .text	000000d0 _ZNSt10moneypunctIcLb1EED0Ev
0102d354  w    F .text	00000378 _ZNSolsEe
0103395c  w    F .text	00000064 _ZNSs7replaceEmmPKc
0100de0c  w    F .text	0000006c _ZNKSt7num_putIcSt19ostreambuf_iteratorIcSt11char_traitsIcEEE12_M_group_intEPKcmcRSt8ios_basePcS9_Ri
01058798  w    O .rodata	00000018 _ZTVSt9money_putIcSt19ostreambuf_iteratorIcSt11char_traitsIcEEE
010119d4  w    F .text	00000018 _ZNSt9money_getIcSt19istreambuf_iteratorIcSt11char_traitsIcEEEC1Em
0105e22c g     O .bss	00000008 _ZN14__gnu_internal10time_put_cE
0102b13c  w    F .text	00000088 _ZNSo6sentryC2ERSo
0100d8bc  w    F .text	00000030 _ZNKSt7num_putIcSt19ostreambuf_iteratorIcSt11char_traitsIcEEE3putES3_RSt8ios_basecPKv
0105e1fc g     O .bss	00000004 _ZNSt5ctypeIcE2idE
0105f730 g       *ABS*	00000000 end
0103f4b8  w    F .text	00000010 _ZTv0_n12_NSt14basic_ifstreamIcSt11char_traitsIcEED0Ev
01033ae8 g     F .text	00000004 _ZN9__gnu_cxx12__atomic_addEPVii
01035070 g     F .text	000000b4 _ZNSt12__basic_fileIcE8sys_openEiSt13_Ios_Openmode
010525b4 g     F .text	00000160 __pack_f
0103a838 g     F .text	00000030 _ZNSt15underflow_errorC2ERKSs
010339c0  w    F .text	0000005c _ZNSs7replaceEmmRKSsmm
0103017c  w    F .text	00000030 _ZNKSs2atEm
010546d4 g     F .text	00000084 alt_up_char_buffer_init
0102f574  w    F .text	00000020 _ZNSt15basic_streambufIcSt11char_traitsIcEE5sgetcEv
01032900  w    F .text	00000050 _ZNSs6assignERKSsmm
01005d1c  w    F .text	0000000c _ZNSt9basic_iosIcSt11char_traitsIcEE3tieEPSo
010315d8  w    F .text	00000034 _ZNSsC1IPcEET_S1_RKSaIcE
0102fc48  w    F .text	00000010 _ZNKSs7_M_iendEv
0105c2f5 g     O .rwdata	00000001 _ZNSt10ctype_base5alnumE
01041aa0 g     F .text	00000018 _Unwind_DeleteException
0105c390 g     O .rwdata	00000004 _ZNSt10__num_base12_S_atoms_outE
01043600 g     F .text	00000024 fseek
0100caa0  w    F .text	00000010 _ZNKSt5ctypeIcE9do_narrowEcc
01053c30 g     F .text	000000c0 altera_avalon_jtag_uart_init
0100d414  w    F .text	0000000c _ZNKSt8numpunctIcE16do_thousands_sepEv
01010f28  w    F .text	00000150 _ZNSt11__timepunctIcEC1EPiPKcm
0103b220  w    F .text	00000040 _ZNSt13basic_filebufIcSt11char_traitsIcEE16_M_destroy_pbackEv
0102fca8  w    F .text	00000008 _ZNKSs5beginEv
01058d4c  w    O .rodata	0000000c _ZTISt17moneypunct_bynameIcLb1EE
01035570 g     F .text	00000010 _ZN10__cxxabiv121__vmi_class_type_infoD2Ev
0102277c  w    F .text	000006c4 _ZNKSt7num_putIcSt19ostreambuf_iteratorIcSt11char_traitsIcEEE15_M_insert_floatIdEES3_S3_RSt8ios_baseccT_
01058080 g       *ABS*	00000000 __CTOR_LIST__
0105c30c g     O .rwdata	00000004 _ZNSt8ios_base8internalE
01058774  w    O .rodata	00000024 _ZTVSt15numpunct_bynameIcE
01800000 g       *ABS*	00000000 __alt_stack_pointer
01032a5c  w    F .text	00000018 _ZNSs7replaceEN9__gnu_cxx17__normal_iteratorIPcSsEES2_mc
0105e280  w    O .bss	00000010 _ZNSs4_Rep20_S_empty_rep_storageE
0102f40c  w    F .text	00000004 _ZNSt15basic_streambufIcSt11char_traitsIcEE5imbueERKSt6locale
01012194  w    F .text	0000009c _ZNKSt10moneypunctIcLb1EE11do_groupingEv
01054604 g     F .text	00000090 alt_avalon_timer_sc_init
0103a64c g     F .text	00000008 _ZNKSt13runtime_error4whatEv
010087f4  w    F .text	00000054 _ZNSi3getERSt15basic_streambufIcSt11char_traitsIcEE
01052260 g     F .text	00000080 __clzsi2
0105c358 g     O .rwdata	00000004 _ZNSt8ios_base3ateE
0100dc78  w    F .text	0000000c _ZNKSt8messagesIcE4openERKSsRKSt6locale
010585bc  w    O .rodata	00000040 _ZTVSt21__ctype_abstract_baseIcE
010501d0 g     F .text	000000b4 _snprintf_r
0105993c  w    O .rodata	0000000c _ZTISt13runtime_error
01006808  w    F .text	00000018 _ZStrsIcSt11char_traitsIcEERSt13basic_istreamIT_T0_ES6_St13_Setprecision
01036c54 g     F .text	0000006c _ZNK10__cxxabiv117__class_type_info11__do_upcastEPKS0_PPv
01054354 g     F .text	00000240 altera_avalon_jtag_uart_write
0103d694  w    F .text	000000ec _ZNSt13basic_filebufIcSt11char_traitsIcEE6setbufEPcl
0105c238 g     O .rwdata	00000004 _ZNSt6locale4noneE
0102f428  w    F .text	00000008 _ZNSt15basic_streambufIcSt11char_traitsIcEE9underflowEv
01022e74  w    F .text	00000f5c _ZNKSt7num_getIcSt19istreambuf_iteratorIcSt11char_traitsIcEEE14_M_extract_intItEES3_S3_S3_RSt8ios_baseRSt12_Ios_IostateRT_
01012bfc  w    F .text	00000018 _ZNSt15time_get_bynameIcSt19istreambuf_iteratorIcSt11char_traitsIcEEEC1EPKcm
010426ec g     F .text	00000004 __sfp_lock_acquire
01059554  w    O .rodata	00000012 _ZTSSt13bad_exception
01058c78  w    O .rodata	00000017 _ZTSSt15numpunct_bynameIcE
01011fc0  w    F .text	0000009c _ZNKSt10moneypunctIcLb1EE16do_negative_signEv
0105e164  w    O .bss	00000004 _ZNSt8numpunctIcE2idE
010444f8 g     F .text	000000e4 memchr
01048454 g     F .text	00001ec4 ___vfprintf_internal_r
01059750  w    O .rodata	00000014 _ZTVSt12length_error
01012230  w    F .text	00000014 _ZNKSt8messagesIcE20_M_convert_from_charEPc
01045460 g     F .text	00000060 _sprintf_r
0105c2f3 g     O .rwdata	00000001 _ZNSt10ctype_base5punctE
01042eb0 g     F .text	00000314 _free_r
01058b30  w    O .rodata	00000020 _ZTISt8time_getIcSt19istreambuf_iteratorIcSt11char_traitsIcEEE
0105c320 g     O .rwdata	00000004 _ZNSt8ios_base8showbaseE
01058e38  w    O .rodata	0000000c _ZTISt11__timepunctIcE
0105862c  w    O .rodata	0000001c _ZTVSt14collate_bynameIcE
0100dc90  w    F .text	00000040 _ZNKSt8messagesIcE3getEiiiRKSs
01022e40  w    F .text	00000034 _ZNKSt7num_putIcSt19ostreambuf_iteratorIcSt11char_traitsIcEEE6do_putES3_RSt8ios_basecd
010338f8  w    F .text	0000001c _ZNSs7replaceEN9__gnu_cxx17__normal_iteratorIPcSsEES2_S2_S2_
0105c2a4  w    O .rwdata	00000008 _ZTISt12codecvt_base
01005d14  w    F .text	00000008 _ZNKSt9basic_iosIcSt11char_traitsIcEE3tieEv
01005218  w    F .text	00000008 _ZN9__gnu_cxx13stdio_filebufIcSt11char_traitsIcEE4fileEv
01030c80  w    F .text	00000034 _ZNSsC1ERKSaIcE
0105c330 g     O .rwdata	00000004 _ZNSt8ios_base7unitbufE
0102ef2c  w    F .text	000003b0 _ZNSolsEs
0103caa4  w    F .text	00000050 _ZNSt14basic_ifstreamIcSt11char_traitsIcEE5closeEv
01056e24 g     F .text	000001b0 __call_exitprocs
01044dfc g     F .text	0000004c __srget_r
01028cd4  w    F .text	0000003c _ZNKSt7num_getIcSt19istreambuf_iteratorIcSt11char_traitsIcEEE6do_getES3_S3_RSt8ios_baseRSt12_Ios_IostateRx
0102fd2c  w    F .text	00000008 _ZNSs4_Rep15_M_set_sharableEv
01022744  w    F .text	00000038 _ZNKSt7num_putIcSt19ostreambuf_iteratorIcSt11char_traitsIcEEE6do_putES3_RSt8ios_basece
01005228  w    F .text	00000030 _ZN9__gnu_cxx13stdio_filebufIcSt11char_traitsIcEEC1Ev
010397bc g     F .text	00000120 _ZNSt8ios_base17_M_call_callbacksENS_5eventE
010120f8  w    F .text	0000009c _ZNKSt10moneypunctIcLb1EE14do_curr_symbolEv
0105c2c4  w    O .rwdata	00000004 _ZNSs4_Rep11_S_max_sizeE
010378cc g     F .text	000000d0 _ZNSt7codecvtIcc10_mbstate_tEC1Em
0105e24c g     O .bss	00000004 __mlocale_changed
0102b3f0  w    F .text	0000004c _ZNSoD0Ev
01011e88  w    F .text	0000009c _ZNKSt8numpunctIcE11do_truenameEv
0100b1ac g     F .text	00000484 _ZNSi7getlineEPclc
010396c0  w    F .text	00000010 _ZNSt12length_errorD1Ev
0100ee10  w    F .text	00000058 _ZSt9use_facetISt8messagesIcEERKT_RKSt6locale
0105c3b0 g     O .rwdata	00000004 __malloc_sbrk_base
01038150 g     F .text	00000094 _ZNSt5ctypeIcEC2EPiPKcbm
010001b4 g     F .text	0000003c _start
0102f7c8  w    F .text	00000020 _ZNSt15basic_streambufIcSt11char_traitsIcEE8in_availEv
01059958  w    O .rodata	0000000c _ZTISt11logic_error
01034478 g     F .text	000000c8 _ZNSt8numpunctIcED2Ev
0102fce4  w    F .text	00000008 _ZNKSs4dataEv
0100dd24  w    F .text	0000000c _ZNKSt7collateIcE4hashEPKcS2_
0105e278 g     O .bss	00000004 _alt_tick_rate
01058518  w    O .rodata	00000022 _ZTSSt9basic_iosIcSt11char_traitsIcEE
010504f8 g     F .text	00000318 _strtoll_r
01034cfc g     F .text	00000084 _ZNSt12__basic_fileIcE5closeEv
0105e194  w    O .bss	00000008 _ZGVNSt9money_getIcSt19istreambuf_iteratorIcSt11char_traitsIcEEE2idE
01059444  w    O .rodata	0000000d _ZTSSt9type_info
0100062c g     F .text	00000048 _ZN6Player7move_upEv
01005864  w    F .text	000001f4 _ZN9__gnu_cxx13stdio_filebufIcSt11char_traitsIcEEC1EiSt13_Ios_Openmodem
0102fcd8  w    F .text	0000000c _ZNKSs8capacityEv
0102fc28  w    F .text	0000000c _ZNSs7_M_dataEPc
010343b0 g     F .text	000000c8 _ZNSt8numpunctIcED1Ev
01000a60 g     F .text	00000088 _ZN6PlayerC2Ev
0103a808 g     F .text	00000030 _ZNSt15underflow_errorC1ERKSs
0102a7b0  w    F .text	00000108 _ZNSoC1EPSt15basic_streambufIcSt11char_traitsIcEE
01036fd8 g     F .text	00000020 __cxa_pure_virtual
010005e4 g     F .text	00000048 _ZN6Player9move_downEv
01010288  w    F .text	00000010 _ZNSt15numpunct_bynameIcED2Ev
010589c8  w    O .rodata	0000000c _ZTISt16__numpunct_cacheIcE
0104f228 g     F .text	0000014c __lshift
0102fc58  w    F .text	00000018 _ZNKSs8_M_limitEmm
01059584  w    O .rodata	00000014 _ZTVSt9bad_alloc
0102e81c  w    F .text	000003a4 _ZNSolsEi
0105e27c g     O .bss	00000004 _alt_nticks
010588d4  w    O .rodata	0000001c _ZTVSt7collateIcE
01045358 g     F .text	0000001c signal
010532ec g     F .text	00000124 read
01032990  w    F .text	000000cc _ZNSs14_M_replace_auxEmmmc
0101264c  w    F .text	000000d0 _ZNSt10moneypunctIcLb0EEC1EPSt18__moneypunct_cacheIcLb0EEm
0102ad7c  w    F .text	000001a8 _ZNSo5tellpEv
0105378c g     F .text	00000324 alt_sys_init
0103e354  w    F .text	000001e8 _ZNSt14basic_ofstreamIcSt11char_traitsIcEEC1EPKcSt13_Ios_Openmode
0100dc2c  w    F .text	00000044 _ZNKSt8time_getIcSt19istreambuf_iteratorIcSt11char_traitsIcEEE8get_yearES3_S3_RSt8ios_baseRSt12_Ios_IostateP2tm
01031ab8  w    F .text	000000fc _ZNSsC2ERKSs
0102fcec  w    F .text	00000008 _ZNKSs13get_allocatorEv
01059e54  w    O .rodata	0000000c _ZTISt10bad_typeid
01044868 g     F .text	00000078 _open_r
0105c388 g     O .rwdata	00000004 _ZNSt10money_base8_S_atomsE
01056cec g     F .text	00000134 __register_exitproc
01059598  w    O .rodata	0000000d _ZTSSt9bad_alloc
0105c334 g     O .rwdata	00000004 _ZNSt8ios_base9uppercaseE
01034d90 g     F .text	00000078 _ZNSt12__basic_fileIcE9showmanycEv
010457dc g     F .text	00000004 strcoll
01039c7c g     F .text	0000005c _ZNSt8ios_baseC2Ev
010013c8 g     F .text	000000f8 _ZNSt8ios_base4InitD2Ev
01059cc0  w    O .rodata	0000000c _ZTISt13basic_fstreamIcSt11char_traitsIcEE
0102e13c  w    F .text	00000378 _ZNSolsEx
0100d680  w    F .text	00000044 _ZNKSt7num_getIcSt19istreambuf_iteratorIcSt11char_traitsIcEEE3getES3_S3_RSt8ios_baseRSt12_Ios_IostateRd
0102c6b4  w    F .text	00000010 _ZStlsISt11char_traitsIcEERSt13basic_ostreamIcT_ES5_a
01011b7c  w    F .text	0000009c _ZNKSt10moneypunctIcLb0EE16do_negative_signEv
0100678c  w    F .text	00000008 _ZNKSi6gcountEv
010300e8  w    F .text	00000094 _ZNKSs4findEPKcmm
0102f92c  w    F .text	000000d8 _ZNSt15basic_streambufIcSt11char_traitsIcEE8pubimbueERKSt6locale
0100d3d8  w    F .text	00000030 _ZNKSt8numpunctIcE9falsenameEv
01059de8  w    O .rodata	00000028 _ZTCSd8_So
01032c3c  w    F .text	00000050 _ZNSs5eraseEN9__gnu_cxx17__normal_iteratorIPcSsEES2_
0100cec0  w    F .text	00000030 _ZNKSt10moneypunctIcLb1EE13positive_signEv
01040214  w    F .text	00000010 _ZTv0_n12_NSdD1Ev
0105e1c4  w    O .bss	00000008 _ZGVNSt8time_putIcSt19ostreambuf_iteratorIcSt11char_traitsIcEEE2idE
0102e4b4  w    F .text	00000368 _ZNSolsEj
0105e18c  w    O .bss	00000008 _ZGVNSt10moneypunctIcLb1EE2idE
0101a790  w    F .text	000009e8 _ZNKSt9money_putIcSt19ostreambuf_iteratorIcSt11char_traitsIcEEE9_M_insertILb1EEES3_S3_RSt8ios_basecRKSs
0104f374 g     F .text	00000254 __multiply
01004e10 g     F .text	00000020 _ZNSt6locale7classicEv
01012984  w    F .text	00000008 _ZNKSt8messagesIcE18_M_convert_to_charERKSs
01053fc8 g     F .text	00000074 altera_avalon_jtag_uart_close
01059b70  w    O .rodata	00000028 _ZTCSt13basic_fstreamIcSt11char_traitsIcEE8_So
0103b2e0  w    F .text	00000008 _ZNKSt14basic_ifstreamIcSt11char_traitsIcEE5rdbufEv
010418a8 g     F .text	00000038 __mulsi3
0105a688 g       *ABS*	00000000 __ram_rwdata_start
01041c08 g     F .text	000000f8 _Unwind_SjLj_RaiseException
010580a8 g       *ABS*	00000000 __ram_rodata_start
010308b4  w    F .text	00000060 _ZNKSs7compareERKSs
0102f4f0  w    F .text	0000002c _ZNKSt15basic_streambufIcSt11char_traitsIcEE6getlocEv
0105f378 g     O .bss	00000028 __malloc_current_mallinfo
0105e21c g     O .bss	00000008 _ZN14__gnu_internal11money_put_cE
01041bac g     F .text	0000005c _Unwind_SjLj_Resume
01010d60  w    F .text	00000018 _ZNSt8time_putIcSt19ostreambuf_iteratorIcSt11char_traitsIcEEEC1Em
01032fd8  w    F .text	00000014 _ZNSs7_M_leakEv
0104ef20 g     F .text	0000017c __d2b
01008bfc  w    F .text	00000214 _ZNSi3getERc
01010278  w    F .text	00000010 _ZNSt15numpunct_bynameIcED1Ev
0103ef28  w    F .text	0000018c _ZNSt14basic_ifstreamIcSt11char_traitsIcEEC1Ev
01036058 g     F .text	00000010 _ZNSt9type_infoD2Ev
0102f2e8  w    F .text	00000040 _ZNSt15basic_streambufIcSt11char_traitsIcEE10pubseekoffExSt12_Ios_SeekdirSt13_Ios_Openmode
01034980 g     F .text	000000a4 _ZNKSt11__timepunctIcE6_M_putEPcmPKcPK2tm
0105c300 g     O .rwdata	00000004 _ZNSt8ios_base3decE
01037518 g     F .text	00000008 _ZNKSt7codecvtIcc10_mbstate_tE13do_max_lengthEv
01036e10 g     F .text	00000078 _ZNK10__cxxabiv120__si_class_type_info11__do_upcastEPKNS_17__class_type_infoEPKvRNS1_15__upcast_resultE
0103a524 g     F .text	00000050 _ZNSt8ios_base7_M_initEv
01039704  w    F .text	00000010 _ZNSt16invalid_argumentD1Ev
010003ac g     F .text	0000006c _ZN9MatrixMap8get_cordEii
0102fcb0  w    F .text	00000010 _ZNKSs3endEv
0102a728  w    F .text	0000001c _ZNSoC2Ev
0105c25c  w    O .rwdata	00000008 _ZTINSt6locale5facetE
010593f0  w    O .rodata	00000026 _ZTSN10__cxxabiv121__vmi_class_type_infoE
01007ef8  w    F .text	000001c4 _ZNSi4readEPcl
0102ffd4  w    F .text	0000002c _ZNSs9_M_assignEPcmc
0103f610  w    F .text	00000008 _ZThn8_NSt13basic_fstreamIcSt11char_traitsIcEED0Ev
010589d4  w    O .rodata	0000001e _ZTSSt18__moneypunct_cacheIcLb1EE
01053ae8 g     F .text	00000058 altera_avalon_jtag_uart_read_fd
01050810 g     F .text	00000240 _strtoul_r
0100ed1c  w    F .text	000000f4 _ZSt9has_facetISt5ctypeIcEEbRKSt6locale
01042350 g     F .text	000000a0 _fdopen_r
010565d4 g     F .text	000000d0 alt_get_fd
0105e184  w    O .bss	00000008 _ZGVNSt10moneypunctIcLb0EE2idE
0100d74c  w    F .text	00000030 _ZNKSt7num_putIcSt19ostreambuf_iteratorIcSt11char_traitsIcEEE3putES3_RSt8ios_basecb
010374ec g     F .text	0000001c _ZNKSt7codecvtIcc10_mbstate_tE5do_inERS0_PKcS4_RS4_PcS6_RS6_
01030304  w    F .text	00000064 _ZNKSs5rfindEcm
0105e1b4  w    O .bss	00000008 _ZGVNSt7num_putIcSt19ostreambuf_iteratorIcSt11char_traitsIcEEE2idE
010560cc g     F .text	0000015c alt_busy_sleep
0100df60  w    F .text	00000034 _ZNSt8time_getIcSt19istreambuf_iteratorIcSt11char_traitsIcEEED0Ev
010524ec g     F .text	000000c8 __fpcmp_parts_d
01038474 g     F .text	000000d4 _ZNSt5ctypeIcED1Ev
01039d34 g     F .text	000002cc _ZNSt8ios_base13_M_grow_wordsEib
01059670  w    O .rodata	00000014 _ZTSSt15underflow_error
01058c9c  w    O .rodata	0000003c _ZTSSt9money_putIcSt19ostreambuf_iteratorIcSt11char_traitsIcEEE
01008478  w    F .text	0000037c _ZNSi3getERSt15basic_streambufIcSt11char_traitsIcEEc
0102a184  w    F .text	0000005c _ZN9__gnu_cxx18stdio_sync_filebufIcSt11char_traitsIcEE8overflowEi
010307b8  w    F .text	00000010 _ZNKSs13find_first_ofEcm
0104bddc g     F .text	00000070 _close_r
0100f700  w    F .text	00000034 _ZNSt15messages_bynameIcED0Ev
0100d9d0  w    F .text	00000068 _ZNKSt11__timepunctIcE9_M_monthsEPPKc
01058f10  w    O .rodata	0000000f _ZTSSt10ctype_base
0100ffe4  w    F .text	00000078 _ZNSt18__moneypunct_cacheIcLb1EED1Ev
0105e158  w    O .bss	00000004 _ZNSt10moneypunctIcLb1EE2idE
01000bdc g     F .text	0000005c _ZN10VGA_ScreenC2Ev
0105c394  w    O .rwdata	00000003 _ZTSSd
010588f0  w    O .rodata	00000024 _ZTVSt8numpunctIcE
010063b0  w    F .text	000000ec _ZNKSt9basic_iosIcSt11char_traitsIcEE5widenEc
010134d8  w    F .text	00000180 _ZNSt17moneypunct_bynameIcLb0EEC2EPKcm
0100034c g     F .text	00000030 _ZN9MatrixMapC1Ev
01011f24  w    F .text	0000009c _ZNKSt8numpunctIcE11do_groupingEv
0102597c  w    F .text	00000530 _ZNKSt7num_putIcSt19ostreambuf_iteratorIcSt11char_traitsIcEEE13_M_insert_intIxEES3_S3_RSt8ios_basecT_
01010478  w    F .text	00000034 _ZNSt17moneypunct_bynameIcLb0EED0Ev
010069e8  w    F .text	00000074 _ZNSiC1Ev
010445dc g     F .text	00000074 memcmp
0102ccb8  w    F .text	00000008 _ZSt4endsIcSt11char_traitsIcEERSt13basic_ostreamIT_T0_ES6_
01053b98 g     F .text	00000048 altera_avalon_jtag_uart_close_fd
0105f730 g       *ABS*	00000000 __alt_stack_base
0105c280  w    O .rwdata	00000001 _ZNSt10moneypunctIcLb0EE4intlE
0105e214 g     O .bss	00000008 _ZN14__gnu_internal11money_get_cE
010033ac g     F .text	000000e4 _ZNSt6localeD1Ev
01053be0 g     F .text	00000050 altera_avalon_jtag_uart_ioctl_fd
0105edb8 g     O .bss	00000068 _ZN14__gnu_internal16numpunct_cache_cE
0102a798  w    F .text	00000018 _ZStlsIcSt11char_traitsIcEERSt13basic_ostreamIT_T0_ES6_St13_Setprecision
01043924 g     F .text	000000ac _fwrite_r
010588c4  w    O .rodata	00000010 _ZTVSt17__timepunct_cacheIcE
010372f8 g     F .text	00000034 _ZNSt9bad_allocD0Ev
010423f0 g     F .text	0000001c fdopen
01037f10 g     F .text	00000044 _ZNKSt5ctypeIcE10do_toupperEc
01036ebc g     F .text	00000010 _ZN10__cxxabiv120__si_class_type_infoD1Ev
01005cf4  w    F .text	00000008 _ZNKSt9basic_iosIcSt11char_traitsIcEE7rdstateEv
0105e148 g     O .bss	00000004 _ZNSt6locale9_S_globalE
01045550 g     F .text	00000084 sscanf
010061fc  w    F .text	00000030 _ZNSt9basic_iosIcSt11char_traitsIcEE5rdbufEPSt15basic_streambufIcS1_E
0102f418  w    F .text	00000008 _ZNSt15basic_streambufIcSt11char_traitsIcEE4syncEv
01039638  w    F .text	00000010 _ZNSt11range_errorD1Ev
0104bc88 g     F .text	0000013c __swsetup_r
010596d8  w    O .rodata	00000010 _ZTSSt11range_error
01041dd0 g     F .text	00000058 _Unwind_SjLj_Resume_or_Rethrow
01010980  w    F .text	000000c0 _ZNSt7collateIcEC1Em
0100d208  w    F .text	0000004c _ZNKSt9money_getIcSt19istreambuf_iteratorIcSt11char_traitsIcEEE3getES3_S3_bRSt8ios_baseRSt12_Ios_IostateRe
01051900 g     F .text	00000258 __divdf3
01042898 g     F .text	000000f0 __sfp
0100cef0  w    F .text	00000030 _ZNKSt10moneypunctIcLb1EE13negative_signEv
0104ed84 g     F .text	00000058 __copybits
0105979c  w    O .rodata	0000000c _ZTISt12domain_error
01059e74  w    O .rodata	0000000c _ZTSSt8bad_cast
01036010 g     F .text	00000008 _ZNKSt9type_info14__is_pointer_pEv
0105c2ee g     O .rwdata	00000001 _ZNSt10ctype_base5cntrlE
010338dc  w    F .text	0000001c _ZNSs7replaceEN9__gnu_cxx17__normal_iteratorIPcSsEES2_NS0_IPKcSsEES5_
01058d94  w    O .rodata	00000020 _ZTISt8messagesIcE
01059698  w    O .rodata	0000000c _ZTISt14overflow_error
0100e0e4  w    F .text	00000010 _ZNSt7num_getIcSt19istreambuf_iteratorIcSt11char_traitsIcEEED1Ev
0105aacc g     O .rwdata	00000408 __malloc_av_
0101decc  w    F .text	000009e8 _ZNKSt9money_putIcSt19ostreambuf_iteratorIcSt11char_traitsIcEEE9_M_insertILb0EEES3_S3_RSt8ios_basecRKSs
01003dec g     F .text	00000058 _ZNSt6locale5_Impl19_M_replace_categoryEPKS0_PKPKNS_2idE
01000ef0 g     F .text	000000b8 _ZN10VGA_Screen19draw_map_from_arrayER9MatrixMap
010426f8 g     F .text	00000004 __sinit_lock_release
0105153c g     F .text	000003c4 __muldf3
01006838  w    F .text	00000068 _ZStrsIcSt11char_traitsIcEERSt13basic_istreamIT_T0_ES6_St8_SetfillIS3_E
010456c0 g     F .text	00000060 __sread
0100197c g     F .text	000004bc _ZNSt8ios_base4InitC1Ev
01042d44 g     F .text	00000040 fread
01059540  w    O .rodata	00000014 _ZTVSt9exception
0105c2fc g     O .rwdata	00000004 _ZNSt8ios_base9boolalphaE
01034ba4 g     F .text	0000000c _ZNSt12__basic_fileIcEC2EPi
0105c374 g     O .rwdata	00000004 _ZNSt8ios_base3endE
0105eabc g     O .bss	0000000c _ZN14__gnu_internal6name_cE
01058aa4  w    O .rodata	00000043 _ZTSSt15time_get_bynameIcSt19istreambuf_iteratorIcSt11char_traitsIcEEE
010564b4 g     F .text	00000120 alt_find_file
01033a40  w    F .text	00000030 _ZNSs7replaceEN9__gnu_cxx17__normal_iteratorIPcSsEES2_RKSs
0102f608  w    F .text	00000014 _ZNSt15basic_streambufIcSt11char_traitsIcEED2Ev
01003574 g     F .text	000000fc _ZNSt6localeaSERKS_
01036cc0 g     F .text	00000020 _ZNK10__cxxabiv117__class_type_info20__do_find_public_srcElPKvPKS0_S2_
01032f68  w    F .text	00000014 _ZNSs5clearEv
01056244 g     F .text	000000b4 alt_dev_llist_insert
01052fc8 g     F .text	00000020 __malloc_lock
010534e8 g     F .text	000000bc sbrk
01038dac g     F .text	00000190 _ZSt20__throw_domain_errorPKc
0105c23c g     O .rwdata	00000004 _ZNSt6locale5ctypeE
0104586c g     F .text	00000014 strdup
0103876c g     F .text	00000190 _ZSt19__throw_logic_errorPKc
0100db10  w    F .text	0000000c _ZNKSt8time_getIcSt19istreambuf_iteratorIcSt11char_traitsIcEEE10date_orderEv
01059454  w    O .rodata	0000002c _ZTVN10__cxxabiv117__class_type_infoE
01035458 g     F .text	00000074 __cxa_throw
01029e74  w    F .text	0000012c _ZSt16__convert_from_vIdEiPciPKcT_RKPii
0104240c g     F .text	000001fc _fflush_r
01041964 g     F .text	00000010 _Unwind_SetIP
010306bc  w    F .text	00000088 _ZNKSs13find_first_ofEPKcmm
0100cb98  w    F .text	00000030 _ZNKSt10moneypunctIcLb0EE13negative_signEv
01050d64 g     F .text	000000c8 _calloc_r
0101ed18  w    F .text	000008ec _ZNSt16__numpunct_cacheIcE8_M_cacheERKSt6locale
0102a110  w    F .text	00000074 _ZN9__gnu_cxx18stdio_sync_filebufIcSt11char_traitsIcEE6xsgetnEPcl
01038304 g     F .text	00000094 _ZNSt5ctypeIcEC1EPiPKcbm
01033ee0 g     F .text	000000c8 _ZNSt10moneypunctIcLb1EED1Ev
01026c10  w    F .text	00000ff0 _ZNKSt7num_getIcSt19istreambuf_iteratorIcSt11char_traitsIcEEE14_M_extract_intIyEES3_S3_S3_RSt8ios_baseRSt12_Ios_IostateRT_
01059730  w    O .rodata	0000000c _ZTISt12length_error
01030368  w    F .text	00000010 _ZNKSs12find_last_ofEcm
01005cfc  w    F .text	00000010 _ZNKSt9basic_iosIcSt11char_traitsIcEE4failEv
010067bc  w    F .text	00000024 _ZStrsIcSt11char_traitsIcEERSt13basic_istreamIT_T0_ES6_St12_Setiosflags
01048160 g     F .text	00000004 __tz_lock
0102fd20  w    F .text	0000000c _ZNSs4_Rep13_M_set_leakedEv
010064dc  w    F .text	0000005c _ZNSt9basic_iosIcSt11char_traitsIcEE4fillEc
01038f3c g     F .text	00000190 _ZSt19__throw_range_errorPKc
01031758  w    F .text	00000034 _ZNSsC2EPKcmRKSaIcE
0103ab48 g     F .text	00000030 _ZNSt16invalid_argumentC1ERKSs
01042b1c g     F .text	0000001c fopen
01033fa8 g     F .text	000000c8 _ZNSt10moneypunctIcLb1EED2Ev
0105e140 g       *ABS*	00000000 __bss_start
01030744  w    F .text	0000000c _ZNKSs13find_first_ofERKSsm
01005e20  w    F .text	0000004c _ZNSt9basic_iosIcSt11char_traitsIcEEC1Ev
0105ee64 g     O .bss	00000044 _ZN14__gnu_internal19moneypunct_cache_cfE
0105c354 g     O .rwdata	00000004 _ZNSt8ios_base3appE
0100fb04  w    F .text	00000110 _ZNSt11__timepunctIcED0Ev
010586b8  w    O .rodata	00000028 _ZTVSt8time_getIcSt19istreambuf_iteratorIcSt11char_traitsIcEEE
01002168 g     F .text	00000010 _ZNSt6locale5facetD2Ev
01030f00  w    F .text	000000a0 _ZNKSs7compareEmmRKSs
010447d0 g     F .text	00000098 memset
0102f438  w    F .text	00000020 _ZNSt15basic_streambufIcSt11char_traitsIcEE7seekoffExSt12_Ios_SeekdirSt13_Ios_Openmode
0105eb00 g     O .bss	00000038 _ZN14__gnu_internal9cache_vecE
0102fd34  w    F .text	00000014 _ZNSs4_Rep26_M_set_length_and_sharableEm
0102fc8c  w    F .text	0000000c _ZNSs12_S_empty_repEv
010011d8 g     F .text	000000f8 main
01059928  w    O .rodata	00000012 _ZTSSt13runtime_error
01013958  w    F .text	000007a0 _ZNKSt8time_getIcSt19istreambuf_iteratorIcSt11char_traitsIcEEE15_M_extract_nameES3_S3_RiPPKcmRSt8ios_baseRSt12_Ios_Iostate
0100f34c  w    F .text	000000bc _ZNSt7collateIcED1Ev
0103ca04  w    F .text	00000050 _ZNSt13basic_fstreamIcSt11char_traitsIcEE5closeEv
0102a770  w    F .text	00000028 _ZStlsIcSt11char_traitsIcEERSt13basic_ostreamIT_T0_ES6_St14_Resetiosflags
0100e18c  w    F .text	00000010 _ZNSt9money_getIcSt19istreambuf_iteratorIcSt11char_traitsIcEEED1Ev
0100d77c  w    F .text	00000030 _ZNKSt7num_putIcSt19ostreambuf_iteratorIcSt11char_traitsIcEEE3putES3_RSt8ios_basecl
01033b28 g     F .text	0000002c _ZNKSt8messagesIcE6do_getEiiiRKSs
0100f4c4  w    F .text	000000c4 _ZNSt8messagesIcED0Ev
0102f3c4  w    F .text	00000010 _ZNSt15basic_streambufIcSt11char_traitsIcEE4setgEPcS3_S3_
0105c308 g     O .rwdata	00000004 _ZNSt8ios_base3hexE
01058a20  w    O .rodata	0000000c _ZTISt18__moneypunct_cacheIcLb0EE
0105e270 g     O .bss	00000004 alt_envp
0105906c  w    O .rodata	00000029 _ZTSSt15basic_streambufIcSt11char_traitsIcEE
0105e25c g     O .bss	00000004 __malloc_max_total_mem
0102f430  w    F .text	00000008 _ZNSt15basic_streambufIcSt11char_traitsIcEEaSERKS2_
01054c1c g     F .text	00000058 alt_up_pixel_buffer_dma_swap_buffers
01059e30  w    O .rodata	00000014 _ZTVSt10bad_typeid
0102f3e4  w    F .text	00000008 _ZNKSt15basic_streambufIcSt11char_traitsIcEE5epptrEv
0100d0d4  w    F .text	0000000c _ZNKSt10moneypunctIcLb1EE14do_frac_digitsEv
01054758 g     F .text	00000040 alt_up_char_buffer_open_dev
01058648  w    O .rodata	0000002c _ZTVSt14codecvt_bynameIcc10_mbstate_tE
01053b40 g     F .text	00000058 altera_avalon_jtag_uart_write_fd
0102a374  w    F .text	00000038 _ZN9__gnu_cxx18stdio_sync_filebufIcSt11char_traitsIcEED0Ev
01043790 g     F .text	00000014 ftell
01059da4  w    O .rodata	0000001c _ZTTSd
0103e54c  w    F .text	00000130 _ZNSt14basic_ofstreamIcSt11char_traitsIcEED0Ev
0104bbf4 g     F .text	0000001c __swbuf
0105ee20 g     O .bss	00000044 _ZN14__gnu_internal19moneypunct_cache_ctE
0100649c  w    F .text	00000040 _ZNKSt9basic_iosIcSt11char_traitsIcEE4fillEv
01038630 g     F .text	00000034 _ZSt21__throw_bad_exceptionv
01036ff8 g     F .text	00000008 __cxa_get_globals_fast
010480f8 g     F .text	00000068 strxfrm
010020a0 g     F .text	000000a8 _ZNSt6locale21_S_normalize_categoryEi
01050fc0 g     F .text	00000078 __ltsf2
0102b0b0  w    F .text	00000004 _ZSt5flushIcSt11char_traitsIcEERSt13basic_ostreamIT_T0_ES6_
01042b38 g     F .text	0000020c _fread_r
01034d84 g     F .text	00000004 _ZNSt12__basic_fileIcED2Ev
0105861c  w    O .rodata	00000010 _ZTVSt18__moneypunct_cacheIcLb0EE
01059854  w    O .rodata	00000016 _ZTSNSt8ios_base7failureE
0105c27c  w    O .rwdata	00000003 _ZTSSi
01009ba8  w    F .text	000001f0 _ZNSirsERx
01038398 g     F .text	000000dc _ZNSt5ctypeIcED0Ev
01059e60  w    O .rodata	00000014 _ZTVSt8bad_cast
010455d4 g     F .text	00000008 __sclose
0103600c g     F .text	00000004 _ZdaPv
01800000 g       *ABS*	00000000 __alt_heap_limit
01033c80 g     F .text	000000c8 _ZNSt10moneypunctIcLb0EED1Ev
010106e0  w    F .text	00000110 _ZSt13__int_to_charIcmEiPT_T0_PKS0_St13_Ios_Fmtflagsb
0100f734  w    F .text	00000010 _ZNSt15messages_bynameIcED1Ev
0100ce60  w    F .text	00000030 _ZNKSt10moneypunctIcLb1EE8groupingEv
0104233c g     F .text	00000014 fclose
01050284 g     F .text	00000250 _strtol_r
01052058 g     F .text	00000074 __truncdfsf2
010076fc  w    F .text	00000004 _ZStrsISt11char_traitsIcEERSt13basic_istreamIcT_ES5_Ra
0102a004  w    F .text	00000014 _ZN9__gnu_cxx18stdio_sync_filebufIcSt11char_traitsIcEED1Ev
01058c24  w    O .rodata	0000000c _ZTISt7num_putIcSt19ostreambuf_iteratorIcSt11char_traitsIcEEE
0105f5a0 g     O .bss	00000190 _atexit0
0103967c  w    F .text	00000010 _ZNSt12out_of_rangeD1Ev
010398dc g     F .text	000000a0 _ZNSt8ios_base6xallocEv
01011a58  w    F .text	00000054 _ZNSt18__moneypunct_cacheIcLb0EEC2Em
0103f0c4  w    F .text	00000130 _ZNSt14basic_ifstreamIcSt11char_traitsIcEED1Ev
01015e20  w    F .text	000000c0 _ZNSt14collate_bynameIcED2Ev
0104c090 g     F .text	000015b4 _dtoa_r
01043db8 g     F .text	00000740 _malloc_r
010316f0  w    F .text	00000034 _ZNSsC2IPKcEET_S2_RKSaIcE
01002188 g     F .text	00000030 _ZNSt6locale5facet15_S_get_c_localeEv
01010154  w    F .text	00000078 _ZNSt18__moneypunct_cacheIcLb0EED1Ev
0100d408  w    F .text	0000000c _ZNKSt8numpunctIcE16do_decimal_pointEv
01030cb4  w    F .text	00000034 _ZNSsC2ERKSaIcE
0105eaa4 g     O .bss	00000018 _ZN14__gnu_internal8name_vecE
0105c3d0 g     O .rwdata	00000004 alt_errno
01033930  w    F .text	0000001c _ZNSs7replaceEN9__gnu_cxx17__normal_iteratorIPcSsEES2_S1_S1_
01029ff4  w    F .text	00000010 _ZN9__gnu_cxx18stdio_sync_filebufIcSt11char_traitsIcEE6xsputnEPKcl
01005d0c  w    F .text	00000008 _ZNKSt9basic_iosIcSt11char_traitsIcEE10exceptionsEv
0103a898 g     F .text	00000030 _ZNSt14overflow_errorC2ERKSs
01039604  w    F .text	00000034 _ZNSt11range_errorD0Ev
01058d78  w    O .rodata	0000000c _ZTISt17moneypunct_bynameIcLb0EE
01013014  w    F .text	00000034 _ZNSt15time_get_bynameIcSt19istreambuf_iteratorIcSt11char_traitsIcEEED0Ev
01048168 g     F .text	000000dc __submore
010451e0 g     F .text	00000010 _init_signal
0102a304  w    F .text	00000070 _ZN9__gnu_cxx18stdio_sync_filebufIcSt11char_traitsIcEEC1EP7__sFILE
010595fc  w    O .rodata	0000000c _ZTISt7codecvtIcc10_mbstate_tE
010594a4  w    O .rodata	0000000c _ZTIN10__cxxabiv117__class_type_infoE
0104386c g     F .text	000000b8 _fwalk
0102594c  w    F .text	00000030 _ZNKSt7num_putIcSt19ostreambuf_iteratorIcSt11char_traitsIcEEE6do_putES3_RSt8ios_basecy
01037520 g     F .text	00000038 _ZNKSt7codecvtIcc10_mbstate_tE9do_lengthERS0_PKcS4_m
010587b0  w    O .rodata	00000018 _ZTVSt9money_getIcSt19istreambuf_iteratorIcSt11char_traitsIcEEE
0100dbe8  w    F .text	00000044 _ZNKSt8time_getIcSt19istreambuf_iteratorIcSt11char_traitsIcEEE13get_monthnameES3_S3_RSt8ios_baseRSt12_Ios_IostateP2tm
0104e8a4 g     F .text	00000040 _mbtowc_r
010305cc  w    F .text	000000e4 _ZNKSs12find_last_ofEPKcmm
010372cc g     F .text	00000010 _ZNSt13bad_exceptionD1Ev
0102a968  w    F .text	00000070 _ZNSoC1Ev
01058474  w    O .rodata	00000040 _ZTVN9__gnu_cxx13stdio_filebufIcSt11char_traitsIcEEE
01044958 g     F .text	00000104 putc
010100d4  w    F .text	00000080 _ZNSt18__moneypunct_cacheIcLb0EED0Ev
010417d8 g     F .text	00000060 __divsi3
0100f078  w    F .text	00000058 _ZSt9use_facetISt10moneypunctIcLb1EEERKT_RKSt6locale
0103e05c  w    F .text	00000150 _ZNSt14basic_ifstreamIcSt11char_traitsIcEEC2Ev
0100a990  w    F .text	000001f0 _ZNSirsERb
0103f7f0  w    F .text	000001b8 _ZNSt13basic_fstreamIcSt11char_traitsIcEED1Ev
0105a590 g     O .rodata	00000014 __thenan_df
01042d84 g     F .text	0000012c _malloc_trim_r
0100ce08  w    F .text	0000002c _ZNKSt10moneypunctIcLb1EE13decimal_pointEv
0105ea90 g     O .bss	00000014 _ZN14__gnu_internal13c_locale_implE
01059644  w    O .rodata	00000020 _ZTISt5ctypeIcE
0105809c g       *ABS*	00000000 __CTOR_END__
01005f50  w    F .text	00000034 _ZNSt9basic_iosIcSt11char_traitsIcEED0Ev
0102b3c4  w    F .text	0000001c _ZNSoD2Ev
0100cadc  w    F .text	0000002c _ZNKSt10moneypunctIcLb0EE13thousands_sepEv
01006168  w    F .text	0000000c _ZNKSt9basic_iosIcSt11char_traitsIcEE3badEv
01032230  w    F .text	000000bc _ZNSs6appendERKSs
01031e54  w    F .text	00000088 _ZNSs9push_backEc
01045720 g     F .text	000000bc strcmp
01058b50  w    O .rodata	00000043 _ZTSSt15time_put_bynameIcSt19ostreambuf_iteratorIcSt11char_traitsIcEEE
010311c8  w    F .text	00000020 _ZNSs13_S_copy_charsEPcPKcS1_
0100d84c  w    F .text	00000038 _ZNKSt7num_putIcSt19ostreambuf_iteratorIcSt11char_traitsIcEEE3putES3_RSt8ios_basecd
0105c314 g     O .rwdata	00000004 _ZNSt8ios_base3octE
01034668 g     F .text	00000318 _ZNSt11__timepunctIcE23_M_initialize_timepunctEPi
0105f118 g     O .bss	0000008c _ZSt4clog
010580a8 g       *ABS*	00000000 __flash_rodata_start
01011518  w    F .text	00000018 _ZNSt7num_putIcSt19ostreambuf_iteratorIcSt11char_traitsIcEEEC1Em
01037b54 g     F .text	000003b0 _ZNSi6ignoreEl
0103a2ac g     F .text	00000104 _ZNSt8ios_base7failureD2Ev
0105809c g       *ABS*	00000000 __DTOR_LIST__
0103f9a8  w    F .text	00000190 _ZNSt13basic_fstreamIcSt11char_traitsIcEED2Ev
0103a10c g     F .text	000000d0 _ZNSt8ios_base7failureC1ERKSs
0100ec28  w    F .text	000000f4 _ZSt9has_facetISt7codecvtIcc10_mbstate_tEEbRKSt6locale
0102f7e8  w    F .text	00000030 _ZNSt15basic_streambufIcSt11char_traitsIcEE7seekposESt4fposI10_mbstate_tESt13_Ios_Openmode
01006bec  w    F .text	000001c4 _ZNSi5seekgExSt12_Ios_Seekdir
01012fc0  w    F .text	00000010 _ZNSt15time_put_bynameIcSt19ostreambuf_iteratorIcSt11char_traitsIcEEED2Ev
0100e138  w    F .text	00000010 _ZNSt9money_putIcSt19ostreambuf_iteratorIcSt11char_traitsIcEEED1Ev
0100e57c  w    F .text	000000f4 _ZSt9has_facetISt9money_getIcSt19istreambuf_iteratorIcSt11char_traitsIcEEEEbRKSt6locale
0105c2ef g     O .rwdata	00000001 _ZNSt10ctype_base5upperE
010317c0  w    F .text	00000060 _ZNSsC1EPKcRKSaIcE
0103cbd4  w    F .text	000000d8 _ZNSt13basic_filebufIcSt11char_traitsIcEED1Ev
010127ec  w    F .text	000000c8 _ZNSt10moneypunctIcLb0EEC1Em
01051be0 g     F .text	00000088 __nedf2
010408d0 g     F .text	00000010 _ZNSt8bad_castD2Ev
0103aa88 g     F .text	00000030 _ZNSt12out_of_rangeC1ERKSs
0105e170  w    O .bss	00000004 _ZNSt11__timepunctIcE2idE
01053758 g     F .text	00000034 alt_irq_init
010399d4 g     F .text	000000e8 _ZNSt8ios_baseD0Ev
01013068  w    F .text	00000178 _ZNSt15numpunct_bynameIcEC1EPKcm
01031208  w    F .text	000000c4 _ZNSs12_S_constructIPcEES0_T_S1_RKSaIcESt20forward_iterator_tag
01053470 g     F .text	00000078 alt_release_fd
01036e88 g     F .text	00000034 _ZN10__cxxabiv120__si_class_type_infoD0Ev
01032ebc  w    F .text	00000050 _ZNSs6insertEmPKc
0101e8b4  w    F .text	0000009c _ZNKSt9money_putIcSt19ostreambuf_iteratorIcSt11char_traitsIcEEE6do_putES3_bRSt8ios_basecRKSs
0100faf4  w    F .text	00000010 _ZNSt12ctype_bynameIcED2Ev
0101bc4c  w    F .text	00001cc8 _ZNKSt9money_getIcSt19istreambuf_iteratorIcSt11char_traitsIcEEE10_M_extractILb0EEES3_S3_S3_RSt8ios_baseRSt12_Ios_IostateRSs
01006820  w    F .text	00000018 _ZStrsIcSt11char_traitsIcEERSt13basic_istreamIT_T0_ES6_St5_Setw
01058fe0  w    O .rodata	0000000c _ZTIN9__gnu_cxx18stdio_sync_filebufIcSt11char_traitsIcEEE
0102f818  w    F .text	0000003c _ZNSt15basic_streambufIcSt11char_traitsIcEE5sputcEc
01059d5c  w    O .rodata	0000000c _ZTISt13basic_filebufIcSt11char_traitsIcEE
010453ec g     F .text	00000074 sprintf
010111c8  w    F .text	000000d8 _ZNSt11__timepunctIcEC1EPSt17__timepunct_cacheIcEm
01059e8c g     O .rodata	00000100 __clz_tab
0103afd4 g     F .text	00000104 _ZNSt11logic_errorD2Ev
0100e19c  w    F .text	00000010 _ZNSt9money_getIcSt19istreambuf_iteratorIcSt11char_traitsIcEEED2Ev
01011578  w    F .text	00000040 _ZNSt16__numpunct_cacheIcEC2Em
01006fa0  w    F .text	000001a8 _ZNSi5tellgEv
01032f7c  w    F .text	0000005c _ZNSs12_M_leak_hardEv
0105e250 g     O .bss	00000004 _PathLocale
010123e4  w    F .text	000000c8 _ZNSt10moneypunctIcLb1EEC1Em
01005188  w    F .text	00000090 _ZN9__gnu_cxx4ropeIcSaIcEE8_S_fetchEPNS_13_Rope_RopeRepIcS1_EEm
010587c8  w    O .rodata	00000034 _ZTVSt17moneypunct_bynameIcLb1EE
0105884c  w    O .rodata	00000034 _ZTVSt10moneypunctIcLb0EE
01022080  w    F .text	000006c4 _ZNKSt7num_putIcSt19ostreambuf_iteratorIcSt11char_traitsIcEEE15_M_insert_floatIeEES3_S3_RSt8ios_baseccT_
01059948  w    O .rodata	00000010 _ZTSSt11logic_error
0103a654 g     F .text	00000104 _ZNSt11logic_errorD1Ev
01047fb8 g     F .text	00000124 strtof
01023dd0  w    F .text	0000003c _ZNKSt7num_getIcSt19istreambuf_iteratorIcSt11char_traitsIcEEE6do_getES3_S3_RSt8ios_baseRSt12_Ios_IostateRt
01010d48  w    F .text	00000018 _ZNSt8time_getIcSt19istreambuf_iteratorIcSt11char_traitsIcEEEC1Em
01056ca0 g     F .text	00000014 atexit
01003490 g     F .text	000000e4 _ZNSt6localeD2Ev
010596cc  w    O .rodata	0000000c _ZTISt11range_error
0102a6c0  w    F .text	00000034 _ZNSolsEPFRSt9basic_iosIcSt11char_traitsIcEES3_E
0100d320  w    F .text	0000002c _ZNKSt8numpunctIcE13decimal_pointEv
0103a8c8 g     F .text	00000030 _ZNSt11range_errorC1ERKSs
0104bc10 g     F .text	00000078 _write_r
01058b94  w    O .rodata	0000000c _ZTISt15time_put_bynameIcSt19ostreambuf_iteratorIcSt11char_traitsIcEEE
010140f8  w    F .text	00000328 _ZNKSt8time_getIcSt19istreambuf_iteratorIcSt11char_traitsIcEEE14_M_extract_numES3_S3_RiiimRSt8ios_baseRSt12_Ios_Iostate
01029d0c  w    F .text	0000003c _ZNKSt7num_getIcSt19istreambuf_iteratorIcSt11char_traitsIcEEE6do_getES3_S3_RSt8ios_baseRSt12_Ios_IostateRm
010406d8  w    F .text	00000010 _ZTv0_n12_NSdD0Ev
01039648  w    F .text	00000034 _ZNSt12out_of_rangeD0Ev
01043be0 g     F .text	0000001c setlocale
0105ef70 g     O .bss	00000090 _ZSt3cin
01058c30  w    O .rodata	0000003a _ZTSSt7num_getIcSt19istreambuf_iteratorIcSt11char_traitsIcEEE
0100691c  w    F .text	00000030 _ZNSiD1Ev
01006794  w    F .text	00000020 _ZNSiC2Ev
01041998 g     F .text	00000008 _Unwind_GetTextRelBase
01058fa8  w    O .rodata	00000036 _ZTSN9__gnu_cxx18stdio_sync_filebufIcSt11char_traitsIcEEE
010593c4  w    O .rodata	0000002c _ZTVN10__cxxabiv121__vmi_class_type_infoE
0100f868  w    F .text	00000124 _ZNSt14codecvt_bynameIcc10_mbstate_tEC1EPKcm
01037214 g     F .text	00000044 __cxa_call_terminate
0100d6c4  w    F .text	00000044 _ZNKSt7num_getIcSt19istreambuf_iteratorIcSt11char_traitsIcEEE3getES3_S3_RSt8ios_baseRSt12_Ios_IostateRe
0105c240 g     O .rwdata	00000004 _ZNSt6locale7numericE
0105c33c g     O .rwdata	00000004 _ZNSt8ios_base9basefieldE
0101257c  w    F .text	000000d0 _ZNSt10moneypunctIcLb0EEC2EPiPKcm
0100ef70  w    F .text	00000058 _ZSt9use_facetISt9money_getIcSt19istreambuf_iteratorIcSt11char_traitsIcEEEERKT_RKSt6locale
0105010c g     F .text	00000008 nanf
0105c39c g     O .rwdata	00000004 _impure_ptr
0102ab18  w    F .text	00000074 _ZNSo8_M_writeEPKcl
010004f0 g     F .text	00000028 _ZN6Player10get_y_cordEv
0105e268 g     O .bss	00000004 alt_argc
0100037c g     F .text	00000030 _ZN9MatrixMapC2Ev
0104e7e4 g     F .text	00000080 _mbrtowc_r
0105c250 g     O .rwdata	00000004 _ZNSt6locale8messagesE
010563bc g     F .text	00000064 _do_dtors
01058f30  w    O .rodata	00000012 _ZTSSt13messages_base
0105c274  w    O .rwdata	00000008 _ZTTSi
0105eea8 g     O .bss	000000c8 _ZN14__gnu_internal17timepunct_cache_cE
0102f4a4  w    F .text	0000004c _ZNSt15basic_streambufIcSt11char_traitsIcEEC2ERKS2_
0103803c g     F .text	000000d4 _ZNSt5ctypeIcED2Ev
0100f1d8  w    F .text	00000058 _ZSt9use_facetISt7collateIcEERKT_RKSt6locale
01058c6c  w    O .rodata	0000000c _ZTISt7num_getIcSt19istreambuf_iteratorIcSt11char_traitsIcEEE
010431c4 g     F .text	0000043c _fseek_r
01029fa8  w    F .text	0000004c _ZN9__gnu_cxx18stdio_sync_filebufIcSt11char_traitsIcEE7seekposESt4fposI10_mbstate_tESt13_Ios_Openmode
01058e60  w    O .rodata	0000000c _ZTISt17__timepunct_cacheIcE
01044c1c g     F .text	000001c4 __srefill_r
0100e858  w    F .text	000000f4 _ZSt9has_facetISt7num_getIcSt19istreambuf_iteratorIcSt11char_traitsIcEEEEbRKSt6locale
01015c98  w    F .text	000000c8 _ZNSt14collate_bynameIcED0Ev
01033368  w    F .text	00000114 _ZStplIcSt11char_traitsIcESaIcEESbIT_T0_T1_ERKS6_S8_
0105c350 g     O .rwdata	00000004 _ZNSt8ios_base7goodbitE
010341a8 g     F .text	00000138 _ZNSt10moneypunctIcLb1EE24_M_initialize_moneypunctEPiPKc
0100eb34  w    F .text	000000f4 _ZSt9has_facetISt7collateIcEEbRKSt6locale
01000020 g       .exceptions	00000000 alt_irq_entry
010012d0 g     F .text	000000f8 _ZNSt8ios_base4InitD1Ev
0102ffa8  w    F .text	0000002c _ZNKSs8_M_checkEmPKc
01030a30  w    F .text	00000050 _ZNKSs17find_first_not_ofEPKcm
0105837c g     O .rodata	00000010 _ZNSt6locale5_Impl10_S_id_timeE
01011aac  w    F .text	000000d0 _ZNSt10moneypunctIcLb1EEC2EPiPKcm
0105c360 g     O .rwdata	00000004 _ZNSt8ios_base2inE
010301ac  w    F .text	00000010 _ZNKSs5emptyEv
01025eac  w    F .text	00000030 _ZNKSt7num_putIcSt19ostreambuf_iteratorIcSt11char_traitsIcEEE6do_putES3_RSt8ios_basecx
0104eaa0 g     F .text	00000080 __ulp
0104ffdc g     F .text	00000040 __isinfd
01041988 g     F .text	00000008 _Unwind_FindEnclosingFunction
0102fe9c  w    F .text	00000010 _ZN9__gnu_cxxeqIPcSsEEbRKNS_17__normal_iteratorIT_T0_EES7_
010427b0 g     F .text	00000018 __fp_unlock_all
0100690c  w    F .text	00000010 _ZTv0_n12_NSiD1Ev
01058cd8  w    O .rodata	0000000c _ZTISt9money_putIcSt19ostreambuf_iteratorIcSt11char_traitsIcEEE
01059608  w    O .rodata	00000030 _ZTVSt5ctypeIcE
01035d7c g     F .text	000000a0 _Znam
01032cdc  w    F .text	0000006c _ZNSs5eraseEmm
0100d934  w    F .text	00000004 _ZNKSt11__timepunctIcE15_M_am_pm_formatEPKc
0100d4a4  w    F .text	00000044 _ZNKSt7num_getIcSt19istreambuf_iteratorIcSt11char_traitsIcEEE3getES3_S3_RSt8ios_baseRSt12_Ios_IostateRl
0105c3bc g     O .rwdata	00000008 alt_fs_list
010302d8  w    F .text	0000000c _ZNKSs5rfindERKSsm
010404e4  w    F .text	00000060 _ZNSdC2Ev
01007368  w    F .text	000001c0 _ZNSi6sentryC1ERSib
010314ec  w    F .text	000000ec _ZNSsC2ERKSsmm
010308a8  w    F .text	0000000c _ZNKSs16find_last_not_ofERKSsm
0100dd30  w    F .text	0000002c _ZNKSt7collateIcE7do_hashEPKcS2_
0100e94c  w    F .text	000000f4 _ZSt9has_facetISt7num_putIcSt19ostreambuf_iteratorIcSt11char_traitsIcEEEEbRKSt6locale
01002dd4 g     F .text	000002ec _ZNSt6locale5_ImplC1ERKS0_m
0105902c  w    O .rodata	00000040 _ZTVSt15basic_streambufIcSt11char_traitsIcEE
0100d0bc  w    F .text	0000000c _ZNKSt10moneypunctIcLb1EE16do_decimal_pointEv
0100de78  w    F .text	00000030 _ZNKSt5ctypeIcE9do_narrowEPKcS2_cPc
01041974 g     F .text	0000000c _Unwind_GetLanguageSpecificData
01058ae8  w    O .rodata	0000000c _ZTISt15time_get_bynameIcSt19istreambuf_iteratorIcSt11char_traitsIcEEE
01012244  w    F .text	000000d0 _ZNSt10moneypunctIcLb1EEC1EPSt18__moneypunct_cacheIcLb1EEm
010396d0  w    F .text	00000034 _ZNSt16invalid_argumentD0Ev
0105e174  w    O .bss	00000004 _ZNSt8time_putIcSt19ostreambuf_iteratorIcSt11char_traitsIcEEE2idE
0102a27c  w    F .text	00000058 _ZN9__gnu_cxx18stdio_sync_filebufIcSt11char_traitsIcEE9pbackfailEi
01037510 g     F .text	00000008 _ZNKSt7codecvtIcc10_mbstate_tE16do_always_noconvEv
0102f6a4  w    F .text	00000048 _ZNSt15basic_streambufIcSt11char_traitsIcEE9sputbackcEc
01000d08 g     F .text	000000a0 _ZN10VGA_Screen10draw_boxesEP27alt_up_pixel_buffer_dma_deviiiii
01039b9c g     F .text	000000e0 _ZNSt8ios_baseD2Ev
01035ee8 g     F .text	00000118 __cxa_begin_catch
01013048  w    F .text	00000010 _ZNSt15time_get_bynameIcSt19istreambuf_iteratorIcSt11char_traitsIcEEED1Ev
0105e160  w    O .bss	00000004 _ZNSt9money_putIcSt19ostreambuf_iteratorIcSt11char_traitsIcEEE2idE
0105e264 g     O .bss	00000004 _timezone
01036d24 g     F .text	00000010 _ZN10__cxxabiv117__class_type_infoD2Ev
0105c258 g     O .rwdata	00000002 _ZNSt6locale5facet9_S_c_nameE
010370ec g     F .text	00000010 _ZN10__cxxabiv112__unexpectedEPFvvE
0100cb38  w    F .text	00000030 _ZNKSt10moneypunctIcLb0EE11curr_symbolEv
0100622c  w    F .text	0000000c _ZNSt9basic_iosIcSt11char_traitsIcEE10exceptionsESt12_Ios_Iostate
0103e938  w    F .text	000001c0 _ZNSt14basic_ofstreamIcSt11char_traitsIcEEC2EPKcSt13_Ios_Openmode
0105973c  w    O .rodata	00000011 _ZTSSt12length_error
0100d91c  w    F .text	00000018 _ZNKSt11__timepunctIcE20_M_date_time_formatsEPPKc
0103fe8c  w    F .text	00000338 _ZNSt13basic_fstreamIcSt11char_traitsIcEEC2EPKcSt13_Ios_Openmode
01000020 g       *ABS*	00000000 __ram_exceptions_start
01045a74 g     F .text	00000ebc strftime
01043b4c g     F .text	00000010 localeconv
01014f14  w    F .text	000006b4 _ZNKSt8time_getIcSt19istreambuf_iteratorIcSt11char_traitsIcEEE14do_get_weekdayES3_S3_RSt8ios_baseRSt12_Ios_IostateP2tm
0102c2f4  w    F .text	00000004 _ZStlsISt11char_traitsIcEERSt13basic_ostreamIcT_ES5_PKa
010385c8 g     F .text	00000034 _ZSt16__throw_bad_castv
0101f604  w    F .text	00000f60 _ZNKSt7num_getIcSt19istreambuf_iteratorIcSt11char_traitsIcEEE14_M_extract_intIjEES3_S3_S3_RSt8ios_baseRSt12_Ios_IostateRT_
0100d3a8  w    F .text	00000030 _ZNKSt8numpunctIcE8truenameEv
01000ae8 g     F .text	00000050 _ZN10VGA_Screen16init_char_bufferEv
01059ccc  w    O .rodata	00000028 _ZTSSt14basic_ofstreamIcSt11char_traitsIcEE
01037298 g     F .text	00000034 _ZNSt13bad_exceptionD0Ev
0103ca54  w    F .text	00000050 _ZNSt14basic_ofstreamIcSt11char_traitsIcEE5closeEv
0105c2d0 g     O .rwdata	00000004 _ZN10__cxxabiv119__terminate_handlerE
0102b1c4  w    F .text	000001c4 _ZNSo5seekpExSt12_Ios_Seekdir
0100fc14  w    F .text	00000108 _ZNSt11__timepunctIcED1Ev
01058940  w    O .rodata	00000030 _ZTVSt12ctype_bynameIcE
01059684  w    O .rodata	00000014 _ZTVSt15underflow_error
0103b60c  w    F .text	000001c0 _ZNSt13basic_filebufIcSt11char_traitsIcEE22_M_convert_to_externalEPcl
0105c24c g     O .rwdata	00000004 _ZNSt6locale8monetaryE
010358c0 g     F .text	000004bc _ZNK10__cxxabiv121__vmi_class_type_info12__do_dyncastElNS_17__class_type_info10__sub_kindEPKS1_PKvS4_S6_RNS1_16__dyncast_resultE
0100d34c  w    F .text	0000002c _ZNKSt8numpunctIcE13thousands_sepEv
01038110 g     F .text	00000040 _ZSt9use_facetISt5ctypeIcEERKT_RKSt6locale
010566c0 g     F .text	00000050 alt_ic_isr_register
0105e234 g     O .bss	00000004 _ZNSt8ios_base4Init11_S_refcountE
0102a744  w    F .text	00000008 _ZNKSo6sentrycvbEv
0103738c g     F .text	00000134 __cxa_allocate_exception
0105c264 g     O .rwdata	00000008 _ZNSt6locale5_Impl13_S_id_collateE
0100da38  w    F .text	00000068 _ZNKSt11__timepunctIcE21_M_months_abbreviatedEPPKc
010439d0 g     F .text	00000040 fwrite
0104db04 g     F .text	00000068 __hexdig_init
010454c8 g     F .text	00000088 _sscanf_r
01021a74  w    F .text	00000204 _ZNKSt7num_getIcSt19istreambuf_iteratorIcSt11char_traitsIcEEE6do_getES3_S3_RSt8ios_baseRSt12_Ios_IostateRe
01026890  w    F .text	00000028 _ZNKSt7num_putIcSt19ostreambuf_iteratorIcSt11char_traitsIcEEE6do_putES3_RSt8ios_basecl
0103b2e8  w    F .text	00000008 _ZNKSt14basic_ofstreamIcSt11char_traitsIcEE5rdbufEv
0105f21c g     O .bss	00000074 _ZN14__gnu_internal8buf_coutE
0103b260  w    F .text	00000080 _ZNSt13basic_filebufIcSt11char_traitsIcEE13_M_set_bufferEl
010101cc  w    F .text	00000078 _ZNSt18__moneypunct_cacheIcLb0EED2Ev
01059504  w    O .rodata	0000000c _ZTIN10__cxxabiv120__si_class_type_infoE
0102b0b4  w    F .text	00000088 _ZNSo6sentryC1ERSo
01034bbc g     F .text	0000000c _ZNKSt12__basic_fileIcE7is_openEv
0100e04c  w    F .text	00000010 _ZNSt17__timepunct_cacheIcED2Ev
010372ec g     F .text	0000000c _ZSt15set_new_handlerPFvvE
01009f88  w    F .text	000001f0 _ZNSirsERl
01032bbc  w    F .text	00000048 _ZNSsaSEc
01011548  w    F .text	00000018 _ZNSt7num_getIcSt19istreambuf_iteratorIcSt11char_traitsIcEEEC1Em
0103ce34  w    F .text	000000d8 _ZNSt13basic_filebufIcSt11char_traitsIcEED2Ev
0105c3e4 g       *ABS*	00000000 _edata
010067b4  w    F .text	00000008 _ZNKSi6sentrycvbEv
01037f04 g     F .text	0000000c _ZNSt5ctypeIcE13classic_tableEv
0100cd88  w    F .text	00000040 _ZNKSt10moneypunctIcLb0EE13do_pos_formatEv
01027c00  w    F .text	0000003c _ZNKSt7num_getIcSt19istreambuf_iteratorIcSt11char_traitsIcEEE6do_getES3_S3_RSt8ios_baseRSt12_Ios_IostateRy
0102fa04  w    F .text	00000084 _ZNSt15basic_streambufIcSt11char_traitsIcEE6snextcEv
01058508  w    O .rodata	00000010 _ZTVSt9basic_iosIcSt11char_traitsIcEE
01035134 g     F .text	00000038 _ZNSt6locale5facet18_S_create_c_localeERPiPKcS1_
0100df1c  w    F .text	00000034 _ZNSt21__ctype_abstract_baseIcED0Ev
0105f730 g       *ABS*	00000000 _end
0105c2e8 g     O .rwdata	00000001 _ZSt7nothrow
0105c370 g     O .rwdata	00000004 _ZNSt8ios_base3curE
01006a5c  w    F .text	00000020 _ZNSiD2Ev
0103aec8 g     F .text	0000010c _ZNSt13runtime_errorD0Ev
01006758  w    F .text	00000034 _ZNSirsEPFRSt8ios_baseS0_E
01036774 g     F .text	000004e0 __gxx_personality_sj0
0103b34c  w    F .text	00000060 _ZNSt13basic_filebufIcSt11char_traitsIcEE26_M_destroy_internal_bufferEv
01000704 g     F .text	0000020c _ZN6Player4moveEcR9MatrixMap
01030fa0  w    F .text	0000009c _ZNSs4_Rep8_M_cloneERKSaIcEm
01058690  w    O .rodata	00000028 _ZTVSt15time_get_bynameIcSt19istreambuf_iteratorIcSt11char_traitsIcEEE
01015a64  w    F .text	00000234 _ZNKSt8time_putIcSt19ostreambuf_iteratorIcSt11char_traitsIcEEE6do_putES3_RSt8ios_basecPK2tmcc
0105ed70 g     O .bss	0000000c _ZN14__gnu_internal9codecvt_cE
010001b4 g       *ABS*	00000000 __ram_exceptions_end
0100dfb4  w    F .text	00000034 _ZNSt8time_putIcSt19ostreambuf_iteratorIcSt11char_traitsIcEEED0Ev
0104ba50 g     F .text	00000074 vfscanf
0105403c g     F .text	000000f4 altera_avalon_jtag_uart_ioctl
0100e488  w    F .text	000000f4 _ZSt9has_facetISt11__timepunctIcEEbRKSt6locale
01058e24  w    O .rodata	00000013 _ZTSSt11__timepunctIcE
0102ccc0  w    F .text	0000004c _ZSt4endlIcSt11char_traitsIcEERSt13basic_ostreamIT_T0_ES6_
010006bc g     F .text	00000048 _ZN6Player10move_rightEv
010093e8  w    F .text	000001f0 _ZNSirsERe
0103f7e8  w    F .text	00000008 _ZThn8_NSt13basic_fstreamIcSt11char_traitsIcEED1Ev
0100ca90  w    F .text	00000010 _ZNKSt5ctypeIcE8do_widenEc
010205a0  w    F .text	000014d4 _ZNKSt7num_getIcSt19istreambuf_iteratorIcSt11char_traitsIcEEE16_M_extract_floatES3_S3_RSt8ios_baseRSt12_Ios_IostateRSs
010595e0  w    O .rodata	0000001b _ZTSSt7codecvtIcc10_mbstate_tE
0102f678  w    F .text	0000002c _ZNSt15basic_streambufIcSt11char_traitsIcEE7sungetcEv
01007ca8  w    F .text	00000250 _ZNSi8readsomeEPcl
0102b388  w    F .text	00000010 _ZTv0_n12_NSoD1Ev
01036dc4 g     F .text	0000004c _ZNK10__cxxabiv117__class_type_info12__do_dyncastElNS0_10__sub_kindEPKS0_PKvS3_S5_RNS0_16__dyncast_resultE
0101dc90  w    F .text	0000023c _ZNKSt9money_getIcSt19istreambuf_iteratorIcSt11char_traitsIcEEE6do_getES3_S3_bRSt8ios_baseRSt12_Ios_IostateRe
01037278 g     F .text	00000010 _ZNSt9exceptionD1Ev
010567ac g     F .text	000000a0 alt_ic_irq_disable
01006080  w    F .text	000000dc _ZNSt9basic_iosIcSt11char_traitsIcEEC2EPSt15basic_streambufIcS1_E
0105e1e4 g     O .bss	00000004 _ZN14__gnu_internal12atomic_mutexE
01012314  w    F .text	000000d0 _ZNSt10moneypunctIcLb1EEC2EPSt18__moneypunct_cacheIcLb1EEm
0105986c  w    O .rodata	0000000c _ZTINSt8ios_base7failureE
0105f000 g     O .bss	0000008c _ZSt4cout
0100cb08  w    F .text	00000030 _ZNKSt10moneypunctIcLb0EE8groupingEv
01045644 g     F .text	0000007c __swrite
01006238  w    F .text	0000000c _ZNSt9basic_iosIcSt11char_traitsIcEE8setstateESt12_Ios_Iostate
0103bdd0  w    F .text	00000260 _ZNSt13basic_filebufIcSt11char_traitsIcEE6xsgetnEPcl
0100cff4  w    F .text	000000c8 _ZNKSt10moneypunctIcLb1EE10neg_formatEv
0105c3ac g     O .rwdata	00000004 __malloc_trim_threshold
0105c244 g     O .rwdata	00000004 _ZNSt6locale7collateE
0100dab8  w    F .text	00000040 _ZNKSt8time_putIcSt19ostreambuf_iteratorIcSt11char_traitsIcEEE3putES3_RSt8ios_basecPK2tmcc
01007704  w    F .text	000001cc _ZNSi4syncEv
0105e150 g     O .bss	00000004 _ZNSt6locale2id11_S_refcountE
01059d28  w    O .rodata	0000000c _ZTISt14basic_ifstreamIcSt11char_traitsIcEE
01011078  w    F .text	00000150 _ZNSt11__timepunctIcEC2EPiPKcm
01056c80 g     F .text	00000020 altera_nios2_qsys_irq_init
01030434  w    F .text	00000130 _ZNSs4_Rep9_S_createEmmRKSaIcE
0102b43c  w    F .text	00000068 _ZStlsIcSt11char_traitsIcEERSt13basic_ostreamIT_T0_ES6_St8_SetfillIS3_E
01056cb4 g     F .text	00000038 exit
01041928 g     F .text	00000018 _Unwind_SetGR
0105c304 g     O .rwdata	00000004 _ZNSt8ios_base5fixedE
010322ec  w    F .text	00000004 _ZNSspLERKSs
0105e1a4  w    O .bss	00000008 _ZGVNSt8numpunctIcE2idE
010584b4  w    O .rodata	00000031 _ZTSN9__gnu_cxx13stdio_filebufIcSt11char_traitsIcEEE
01020564  w    F .text	0000003c _ZNKSt7num_getIcSt19istreambuf_iteratorIcSt11char_traitsIcEEE6do_getES3_S3_RSt8ios_baseRSt12_Ios_IostateRj
010254ec  w    F .text	00000460 _ZNKSt7num_putIcSt19ostreambuf_iteratorIcSt11char_traitsIcEEE13_M_insert_intIyEES3_S3_RSt8ios_basecT_
010437a4 g     F .text	000000c8 _fwalk_reent
010597bc  w    O .rodata	00000014 _ZTVSt12domain_error
0100e1ac  w    F .text	000000f4 _ZSt9has_facetISt8messagesIcEEbRKSt6locale
0100db60  w    F .text	00000044 _ZNKSt8time_getIcSt19istreambuf_iteratorIcSt11char_traitsIcEEE8get_dateES3_S3_RSt8ios_baseRSt12_Ios_IostateP2tm
0104f09c g     F .text	0000018c __mdiff
0102f3fc  w    F .text	00000010 _ZNSt15basic_streambufIcSt11char_traitsIcEE4setpEPcS3_
0101298c  w    F .text	000000c0 _ZNSt8messagesIcEC1EPiPKcm
01037030 g     F .text	000000a4 _ZN10__cxxabiv111__terminateEPFvvE
01034bd0 g     F .text	00000008 _ZNSt12__basic_fileIcE4syncEv
01032a74  w    F .text	00000068 _ZNSs7replaceEmmmc
010374c0 g     F .text	0000001c _ZNKSt7codecvtIcc10_mbstate_tE6do_outERS0_PKcS4_RS4_PcS6_RS6_
01011748  w    F .text	000000cc _ZNSt8numpunctIcEC1EPSt16__numpunct_cacheIcEm
01041838 g     F .text	00000060 __modsi3
0102a04c  w    F .text	00000070 _ZN9__gnu_cxx18stdio_sync_filebufIcSt11char_traitsIcEEC2EP7__sFILE
0100e0a0  w    F .text	00000010 _ZNSt7num_putIcSt19ostreambuf_iteratorIcSt11char_traitsIcEEED2Ev
01034f28 g     F .text	0000003c _ZNSt12__basic_fileIcE6xsputnEPKcl
01059cf4  w    O .rodata	0000000c _ZTISt14basic_ofstreamIcSt11char_traitsIcEE
0103732c g     F .text	00000010 _ZNSt9bad_allocD1Ev
0103f0b4  w    F .text	00000010 _ZTv0_n12_NSt14basic_ifstreamIcSt11char_traitsIcEED1Ev
01800000 g       *ABS*	00000000 __alt_data_end
01000020 g     F .exceptions	00000000 alt_exception
010426f0 g     F .text	00000004 __sfp_lock_release
01036f10 g     F .text	000000c8 _ZNK10__cxxabiv120__si_class_type_info12__do_dyncastElNS_17__class_type_info10__sub_kindEPKS1_PKvS4_S6_RNS1_16__dyncast_resultE
0100dc70  w    F .text	00000008 _ZNKSt8time_getIcSt19istreambuf_iteratorIcSt11char_traitsIcEEE13do_date_orderEv
01058e7c  w    O .rodata	0000000c _ZTISt7collateIcE
01059568  w    O .rodata	0000000c _ZTISt13bad_exception
0105c26c g     O .rwdata	00000008 _ZNSt6locale5_Impl14_S_id_messagesE
01000000 g       *ABS*	00000000 __alt_mem_sdram
01058970  w    O .rodata	0000001d _ZTSSt21__ctype_abstract_baseIcE
010004c8 g     F .text	00000028 _ZN6Player10get_x_cordEv
01000218 g     F .text	00000028 _ZN9MatrixMapC1Eii
0100615c  w    F .text	0000000c _ZNKSt9basic_iosIcSt11char_traitsIcEE4goodEv
0102f3dc  w    F .text	00000008 _ZNKSt15basic_streambufIcSt11char_traitsIcEE4pptrEv
010104ac  w    F .text	00000010 _ZNSt17moneypunct_bynameIcLb0EED1Ev
01012be4  w    F .text	00000018 _ZNSt15time_put_bynameIcSt19ostreambuf_iteratorIcSt11char_traitsIcEEEC2EPKcm
01058a44  w    O .rodata	0000000c _ZTISt14collate_bynameIcE
0105004c g     F .text	000000c0 __sccl
010112a0  w    F .text	000000d8 _ZNSt11__timepunctIcEC2EPSt17__timepunct_cacheIcEm
01002060 g     F .text	00000040 _ZNKSt6locale2id5_M_idEv
0104020c  w    F .text	00000008 _ZSt7setfillIcESt8_SetfillIT_ES1_
01059f8c g     O .rodata	00000101 _ctype_
0100cbc8  w    F .text	0000000c _ZNKSt10moneypunctIcLb0EE11frac_digitsEv
0105c368 g     O .rwdata	00000004 _ZNSt8ios_base5truncE
0103c2f0  w    F .text	000003f4 _ZNSt13basic_filebufIcSt11char_traitsIcEE9underflowEv
01012a4c  w    F .text	000000c0 _ZNSt8messagesIcEC2EPiPKcm
01005258  w    F .text	00000030 _ZN9__gnu_cxx13stdio_filebufIcSt11char_traitsIcEEC2Ev
0100d52c  w    F .text	00000044 _ZNKSt7num_getIcSt19istreambuf_iteratorIcSt11char_traitsIcEEE3getES3_S3_RSt8ios_baseRSt12_Ios_IostateRj
01059b98  w    O .rodata	00000028 _ZTVSt14basic_ofstreamIcSt11char_traitsIcEE
01039714  w    F .text	00000034 _ZNSt12domain_errorD0Ev
0100dcdc  w    F .text	00000008 _ZNKSt8messagesIcE7do_openERKSsRKSt6locale
01005f84  w    F .text	00000010 _ZNSt9basic_iosIcSt11char_traitsIcEED1Ev
01040310  w    F .text	000001d4 _ZNSdC1EPSt15basic_streambufIcSt11char_traitsIcEE
0104263c g     F .text	00000058 fileno
010091f8  w    F .text	000001f0 _ZNSirsERPv
01030030  w    F .text	00000008 _ZNKSs5c_strEv
0100df0c  w    F .text	00000010 _ZNSt23__codecvt_abstract_baseIcc10_mbstate_tED1Ev
0100ded8  w    F .text	00000034 _ZNSt23__codecvt_abstract_baseIcc10_mbstate_tED0Ev
0105eac8 g     O .bss	00000038 _ZN14__gnu_internal9facet_vecE
0105e178  w    O .bss	00000004 _ZNSt8time_getIcSt19istreambuf_iteratorIcSt11char_traitsIcEEE2idE
0105e180  w    O .bss	00000004 _ZNSt7collateIcE2idE
0101271c  w    F .text	000000d0 _ZNSt10moneypunctIcLb0EEC2EPSt18__moneypunct_cacheIcLb0EEm
0102a020  w    F .text	0000002c _ZN9__gnu_cxx18stdio_sync_filebufIcSt11char_traitsIcEE5uflowEv
01035580 g     F .text	00000100 _ZNK10__cxxabiv121__vmi_class_type_info20__do_find_public_srcElPKvPKNS_17__class_type_infoES2_
0100f98c  w    F .text	00000124 _ZNSt14codecvt_bynameIcc10_mbstate_tEC2EPKcm
010522e0 g     F .text	000000a8 __fpcmp_parts_f
0103f4c8  w    F .text	00000138 _ZNSt14basic_ifstreamIcSt11char_traitsIcEED0Ev
01042a28 g     F .text	000000f4 _fopen_r
0105001c g     F .text	00000030 __isnand
010528e0 g     F .text	00000020 _exit
0105c2cc g     O .rwdata	00000004 _ZNSt6locale13_S_categoriesE
0103a1dc g     F .text	000000d0 _ZNSt8ios_base7failureC2ERKSs
01058dcc  w    O .rodata	00000020 _ZTISt10moneypunctIcLb0EE
010061b4  w    F .text	00000048 _ZNSt9basic_iosIcSt11char_traitsIcEE5clearESt12_Ios_Iostate
01055f78 g     F .text	00000154 alt_alarm_start
0102da4c  w    F .text	00000378 _ZNSolsEd
0103925c g     F .text	00000190 _ZSt20__throw_out_of_rangePKc
01005220  w    F .text	00000008 _ZN9__gnu_cxx13stdio_filebufIcSt11char_traitsIcEE2fdEv
01030ce8  w    F .text	00000090 _ZNKSs7compareEmmPKcm
01032adc  w    F .text	00000060 _ZNSs6insertEN9__gnu_cxx17__normal_iteratorIPcSsEEc
01058738  w    O .rodata	0000003c _ZTVSt7num_getIcSt19istreambuf_iteratorIcSt11char_traitsIcEEE
01033bb0 g     F .text	000000d0 _ZNSt10moneypunctIcLb0EED0Ev
010408e0 g     F .text	00000124 __muldi3
01011378  w    F .text	000000d0 _ZNSt11__timepunctIcEC1Em
010263c4  w    F .text	000004cc _ZNKSt7num_putIcSt19ostreambuf_iteratorIcSt11char_traitsIcEEE13_M_insert_intIlEES3_S3_RSt8ios_basecT_
0105c378 g     O .rwdata	00000001 _ZNSt8ios_base4Init20_S_synced_with_stdioE
010418fc g     F .text	00000018 _Unwind_GetGR
01037000 g     F .text	00000008 __cxa_get_globals
01043bfc g     F .text	00000194 __smakebuf_r
0102f3a4  w    F .text	00000008 _ZNKSt15basic_streambufIcSt11char_traitsIcEE4gptrEv
01037508 g     F .text	00000008 _ZNKSt7codecvtIcc10_mbstate_tE11do_encodingEv
0105c2d4 g     O .rwdata	00000004 _ZN10__cxxabiv120__unexpected_handlerE
01011680  w    F .text	000000c8 _ZNSt8numpunctIcEC2EPim
01032108  w    F .text	00000040 _ZNSspLEPKc
01018ac8  w    F .text	00001cc8 _ZNKSt9money_getIcSt19istreambuf_iteratorIcSt11char_traitsIcEEE10_M_extractILb1EEES3_S3_S3_RSt8ios_baseRSt12_Ios_IostateRSs
01046930 g     F .text	00000074 strlen
010388fc g     F .text	00000190 _ZSt23__throw_underflow_errorPKc
0104517c g     F .text	00000064 _init_signal_r
0105c2d8  w    O .rwdata	00000008 _ZTISt9type_info
01053100 g     F .text	0000018c open
0102fcfc  w    F .text	0000000c _ZNSs4_Rep12_S_empty_repEv
0102fcf4  w    F .text	00000008 _ZNSs12_Alloc_hiderC1EPcRKSaIcE
0103eaf8  w    F .text	000000f4 _ZNSt14basic_ofstreamIcSt11char_traitsIcEED2Ev
0105ed64 g     O .bss	0000000c _ZN14__gnu_internal10numpunct_cE
0105e168  w    O .bss	00000004 _ZNSt7num_getIcSt19istreambuf_iteratorIcSt11char_traitsIcEEE2idE
01051cf0 g     F .text	00000088 __gedf2
01017824  w    F .text	000001d4 _ZNKSt8time_getIcSt19istreambuf_iteratorIcSt11char_traitsIcEEE11do_get_timeES3_S3_RSt8ios_baseRSt12_Ios_IostateP2tm
0100d120  w    F .text	00000040 _ZNKSt10moneypunctIcLb1EE13do_neg_formatEv
01059574  w    O .rodata	0000000d _ZTSSt9exception
0104dc1c g     F .text	000007fc __gethex
01059900  w    O .rodata	00000014 _ZTVSt13runtime_error
01027c3c  w    F .text	00001098 _ZNKSt7num_getIcSt19istreambuf_iteratorIcSt11char_traitsIcEEE14_M_extract_intIxEES3_S3_S3_RSt8ios_baseRSt12_Ios_IostateRT_
01059c30  w    O .rodata	00000028 _ZTCSt14basic_ifstreamIcSt11char_traitsIcEE0_Si
0105f1a4 g     O .bss	00000028 _ZN14__gnu_internal13buf_cout_syncE
01059e44  w    O .rodata	0000000f _ZTSSt10bad_typeid
010301bc  w    F .text	0000000c _ZNKSs6lengthEv
0100d708  w    F .text	00000044 _ZNKSt7num_getIcSt19istreambuf_iteratorIcSt11char_traitsIcEEE3getES3_S3_RSt8ios_baseRSt12_Ios_IostateRPv
01013058  w    F .text	00000010 _ZNSt15time_get_bynameIcSt19istreambuf_iteratorIcSt11char_traitsIcEEED2Ev
010311e8  w    F .text	00000020 _ZNSs13_S_copy_charsEPcS_S_
0103ac08 g     F .text	00000008 _ZNKSt11logic_error4whatEv
01059c98  w    O .rodata	00000027 _ZTSSt13basic_fstreamIcSt11char_traitsIcEE
010406f0  w    F .text	00000094 _ZNSdD0Ev
0103162c  w    F .text	000000c4 _ZNSs12_S_constructIPKcEEPcT_S3_RKSaIcESt20forward_iterator_tag
01037268 g     F .text	00000010 _ZNSt9exceptionD0Ev
01011d50  w    F .text	0000009c _ZNKSt10moneypunctIcLb0EE11do_groupingEv
01059ae4  w    O .rodata	00000028 _ZTTSt13basic_fstreamIcSt11char_traitsIcEE
01043698 g     F .text	000000f8 _ftell_r
01058af4  w    O .rodata	0000003b _ZTSSt8time_getIcSt19istreambuf_iteratorIcSt11char_traitsIcEEE
010068a4  w    F .text	00000004 _ZStrsISt11char_traitsIcEERSt13basic_istreamIcT_ES5_Ph
010331a0  w    F .text	00000070 _ZNSs6resizeEmc
0104bdc4 g     F .text	00000018 abs
010566a4 g     F .text	0000001c alt_icache_flush_all
010131e0  w    F .text	00000178 _ZNSt15numpunct_bynameIcEC2EPKcm
010050c8 g     F .text	000000c0 _ZNSt6localeC2Ev
010115b8  w    F .text	000000c8 _ZNSt8numpunctIcEC1EPim
01059840  w    O .rodata	00000014 _ZTVNSt8ios_base7failureE
01059638  w    O .rodata	0000000c _ZTSSt5ctypeIcE
01005b3c  w    F .text	000000dc _ZN9__gnu_cxx13stdio_filebufIcSt11char_traitsIcEED1Ev
0104086c g     F .text	00000010 _ZNSt10bad_typeidD1Ev
0105c2f8 g     O .rwdata	00000004 _ZNSt5ctypeIcE10table_sizeE
01041990 g     F .text	00000008 _Unwind_GetDataRelBase
0103b2f0  w    F .text	00000008 _ZNKSt13basic_fstreamIcSt11char_traitsIcEE5rdbufEv
01033914  w    F .text	0000001c _ZNSs7replaceEN9__gnu_cxx17__normal_iteratorIPcSsEES2_PKcS4_
0105e14c g     O .bss	00000004 _ZNSt6locale5facet11_S_c_localeE
0105c3d8 g     O .rwdata	00000004 alt_priority_mask
01032d48  w    F .text	00000174 _ZNSs6insertEmPKcm
01004e30 g     F .text	000001d8 _ZNSt6locale6globalERKS_
0103db78  w    F .text	000000a8 _ZNKSt14basic_ifstreamIcSt11char_traitsIcEE7is_openEv
01006244  w    F .text	00000010 _ZNKSt9basic_iosIcSt11char_traitsIcEEntEv
0105e1cc  w    O .bss	00000008 _ZGVNSt8time_getIcSt19istreambuf_iteratorIcSt11char_traitsIcEEE2idE
01056710 g     F .text	0000009c alt_ic_irq_enable
0102a8b8  w    F .text	00000030 _ZNSoC2EPSt15basic_streambufIcSt11char_traitsIcEE
01014810  w    F .text	00000704 _ZNKSt8time_getIcSt19istreambuf_iteratorIcSt11char_traitsIcEEE16do_get_monthnameES3_S3_RSt8ios_baseRSt12_Ios_IostateP2tm
0103f600  w    F .text	00000010 _ZTv0_n12_NSt13basic_fstreamIcSt11char_traitsIcEED0Ev
0104a318 g     F .text	00000024 __vfprintf_internal
0102fccc  w    F .text	0000000c _ZNKSs8max_sizeEv
01002050 g     F .text	00000008 _ZNSt6localeC1EPNS_5_ImplE
0103a008 g     F .text	00000104 _ZNSt8ios_base7failureD1Ev
0100efc8  w    F .text	00000058 _ZSt9use_facetISt9money_putIcSt19ostreambuf_iteratorIcSt11char_traitsIcEEEERKT_RKSt6locale
01058d2c  w    O .rodata	0000001d _ZTSSt17moneypunct_bynameIcLb1EE
0104087c g     F .text	00000010 _ZNSt10bad_typeidD2Ev
01051448 g     F .text	00000080 __subdf3
0102a74c  w    F .text	00000024 _ZStlsIcSt11char_traitsIcEERSt13basic_ostreamIT_T0_ES6_St12_Setiosflags
0100d570  w    F .text	00000044 _ZNKSt7num_getIcSt19istreambuf_iteratorIcSt11char_traitsIcEEE3getES3_S3_RSt8ios_baseRSt12_Ios_IostateRm
01005288  w    F .text	000001f4 _ZN9__gnu_cxx13stdio_filebufIcSt11char_traitsIcEEC1EP7__sFILESt13_Ios_Openmodem
01005d30  w    F .text	00000098 _ZNSt9basic_iosIcSt11char_traitsIcEE15_M_cache_localeERKSt6locale
01002264 g     F .text	000000ac _ZNSt6localeC2ERKS_
0102a3ac  w    F .text	0000030c _ZStlsIcSt11char_traitsIcESaIcEERSt13basic_ostreamIT_T0_ES7_RKSbIS4_S5_T1_E
01030564  w    F .text	00000004 _ZNSs4_Rep10_M_destroyERKSaIcE
01030e40  w    F .text	000000c0 _ZNKSs7compareEmmRKSsmm
01040224  w    F .text	00000008 _ZThn8_NSdD1Ev
010306b0  w    F .text	0000000c _ZNKSs12find_last_ofERKSsm
0100cd7c  w    F .text	0000000c _ZNKSt10moneypunctIcLb0EE14do_frac_digitsEv
01031820  w    F .text	00000060 _ZNSsC2EPKcRKSaIcE
0102a0bc  w    F .text	00000054 _ZSt7getlineIcSt11char_traitsIcESaIcEERSt13basic_istreamIT_T0_ES7_RSbIS4_S5_T1_E
0103f1f4  w    F .text	000001c8 _ZNSt14basic_ifstreamIcSt11char_traitsIcEEC2EPKcSt13_Ios_Openmode
01034540 g     F .text	00000128 _ZNSt8numpunctIcE22_M_initialize_numpunctEPi
0103799c g     F .text	000000dc _ZNSt7codecvtIcc10_mbstate_tED1Ev
0102fd48  w    F .text	00000008 _ZNSs4_Rep10_M_refdataEv
010377f4 g     F .text	000000d8 _ZNSt7codecvtIcc10_mbstate_tEC2EPim
0104e97c g     F .text	000000c4 __lo0bits
0102f328  w    F .text	00000050 _ZNSt15basic_streambufIcSt11char_traitsIcEE10pubseekposESt4fposI10_mbstate_tESt13_Ios_Openmode
0100a76c  w    F .text	00000224 _ZNSirsERs
01006b8c  w    F .text	00000010 _ZTv0_n12_NSiD0Ev
0103314c  w    F .text	00000054 _ZNSs6rbeginEv
01032b3c  w    F .text	00000048 _ZNSs6insertEmmc
0105f1cc g     O .bss	00000028 _ZN14__gnu_internal12buf_cin_syncE
0104a33c g     F .text	00001688 __svfscanf_r
0100dcd0  w    F .text	0000000c _ZNKSt8messagesIcE5closeEi
01006a7c  w    F .text	00000110 _ZNSiC1EPSt15basic_streambufIcSt11char_traitsIcEE
01039cd8 g     F .text	0000005c _ZNSt8ios_baseC1Ev
0100d814  w    F .text	00000038 _ZNKSt7num_putIcSt19ostreambuf_iteratorIcSt11char_traitsIcEEE3putES3_RSt8ios_basecy
0105c294  w    O .rwdata	00000008 _ZTISt13messages_base
0105c3dc g     O .rwdata	00000008 alt_alarm_list
0102b3e0  w    F .text	00000010 _ZTv0_n12_NSoD0Ev
01048244 g     F .text	0000019c _ungetc_r
0100d7ac  w    F .text	00000030 _ZNKSt7num_putIcSt19ostreambuf_iteratorIcSt11char_traitsIcEEE3putES3_RSt8ios_basecm
01056358 g     F .text	00000064 _do_ctors
0105c318 g     O .rwdata	00000004 _ZNSt8ios_base5rightE
0100f754  w    F .text	000000c0 _ZNSt7collateIcEC2Em
010452a4 g     F .text	00000014 __sigtramp
01059764  w    O .rodata	0000000c _ZTISt16invalid_argument
01033aec g     F .text	00000010 _ZNKSt7collateIcE12_M_transformEPcPKcm
0105ed94 g     O .bss	00000014 _ZN14__gnu_internal11timepunct_cE
0100e008  w    F .text	00000034 _ZNSt17__timepunct_cacheIcED0Ev
01031954  w    F .text	00000034 _ZNSsC2IN9__gnu_cxx17__normal_iteratorIPcSsEEEET_S4_RKSaIcE
01010298  w    F .text	000000c4 _ZNSt8numpunctIcEC2Em
0105ed58 g     O .bss	0000000c _ZN14__gnu_internal9collate_cE
0100e03c  w    F .text	00000010 _ZNSt17__timepunct_cacheIcED1Ev
0102fc70  w    F .text	0000001c _ZNKSs11_M_disjunctEPKc
0103b4a4  w    F .text	00000168 _ZNSt13basic_filebufIcSt11char_traitsIcEE9pbackfailEi
01058db4  w    O .rodata	00000016 _ZTSSt10moneypunctIcLb0EE
01052714 g     F .text	00000100 close
0103347c  w    F .text	00000034 _ZNSs4swapERSs
0100f644  w    F .text	000000bc _ZNSt8messagesIcED2Ev
01013658  w    F .text	00000180 _ZNSt17moneypunct_bynameIcLb1EEC1EPKcm
010001f0 g     F .text	00000028 _ZN9MatrixMapC2Eii
0100d1b4  w    F .text	00000054 _ZNSt18__moneypunct_cacheIcLb1EEC1Em
010108b8  w    F .text	000000c8 _ZNSt7collateIcEC2EPim
01030c08  w    F .text	0000003c _ZNSsC1EmcRKSaIcE
01017ff4  w    F .text	00000ad4 _ZNSt18__moneypunct_cacheIcLb1EE8_M_cacheERKSt6locale
0103caf4  w    F .text	000000e0 _ZNSt13basic_filebufIcSt11char_traitsIcEED0Ev
01011c18  w    F .text	0000009c _ZNKSt10moneypunctIcLb0EE16do_positive_signEv
01058e98  w    O .rodata	0000000c _ZTISt8numpunctIcE
01058d20  w    O .rodata	0000000c _ZTISt9money_getIcSt19istreambuf_iteratorIcSt11char_traitsIcEEE
01023e0c  w    F .text	00000fc4 _ZNKSt7num_getIcSt19istreambuf_iteratorIcSt11char_traitsIcEEE14_M_extract_intIlEES3_S3_S3_RSt8ios_baseRSt12_Ios_IostateRT_
0103a928 g     F .text	000000b0 _ZNSt11logic_errorC1ERKSs
01052d1c g     F .text	00000080 alt_load
010009d8 g     F .text	00000088 _ZN6PlayerC1Ev
01041ef0 g     F .text	00000314 __pack_d
0100ee68  w    F .text	00000058 _ZSt9use_facetISt8time_getIcSt19istreambuf_iteratorIcSt11char_traitsIcEEEERKT_RKSt6locale
0102fc98  w    F .text	00000010 _ZNSsC1Ev
010099b8  w    F .text	000001f0 _ZNSirsERy
01036020 g     F .text	00000010 _ZNKSt9type_info10__do_catchEPKS_PPvj
0103516c g     F .text	000000d8 _ZSt14__convert_to_vIdEvPKcRT_RSt12_Ios_IostateRKPi
01005d28  w    F .text	00000008 _ZNKSt9basic_iosIcSt11char_traitsIcEE5rdbufEv
0102f548  w    F .text	0000002c _ZNSt15basic_streambufIcSt11char_traitsIcEEC2Ev
01058570  w    O .rodata	00000018 _ZTISi
0104e6ac g     F .text	0000000c __gettzinfo
01045168 g     F .text	00000014 raise
0103ab78 g     F .text	00000030 _ZNSt16invalid_argumentC2ERKSs
01043d90 g     F .text	00000014 free
0102f62c  w    F .text	0000004c _ZNSt15basic_streambufIcSt11char_traitsIcEE5uflowEv
010426f4 g     F .text	00000004 __sinit_lock_acquire
0100d5b4  w    F .text	00000044 _ZNKSt7num_getIcSt19istreambuf_iteratorIcSt11char_traitsIcEEE3getES3_S3_RSt8ios_baseRSt12_Ios_IostateRx
0103ab18 g     F .text	00000030 _ZNSt12length_errorC2ERKSs
0105eda8 g     O .bss	00000010 _ZN14__gnu_internal10messages_cE
0104f604 g     F .text	0000012c __multadd
01036ce0 g     F .text	00000034 _ZN10__cxxabiv117__class_type_infoD0Ev
0104e8e4 g     F .text	00000028 _Bfree
01008e10  w    F .text	00000220 _ZNSi3getEv
01031fbc  w    F .text	0000010c _ZNSs6appendEPKcm
0103ac10 g     F .text	000000b0 _ZNSt13runtime_errorC1ERKSs
010313c0  w    F .text	000000ec _ZNSsC1ERKSsmm



Disassembly of section .entry:

01000000 <__reset>:
 * Jump to the _start entry point in the .text section if reset code
 * is allowed or if optimizing for RTL simulation.
 */
#if defined(ALT_ALLOW_CODE_AT_RESET) || defined(ALT_SIM_OPTIMIZE)
    /* Jump to the _start entry point in the .text section. */
    movhi r1, %hi(_start)
 1000000:	00404034 	movhi	at,256
    ori r1, r1, %lo(_start)
 1000004:	08406d14 	ori	at,at,436
    jmp r1
 1000008:	0800683a 	jmp	at
	...

Disassembly of section .exceptions:

01000020 <alt_exception>:
         * Process an exception.  For all exceptions we must preserve all
         * caller saved registers on the stack (See the Nios2 ABI
         * documentation for details).
         */

        addi  sp, sp, -76
 1000020:	deffed04 	addi	sp,sp,-76

#endif

#endif

        stw   ra,  0(sp)
 1000024:	dfc00015 	stw	ra,0(sp)
        /*
         * Leave a gap in the stack frame at 4(sp) for the muldiv handler to
         * store zero into.
         */

        stw   r1,   8(sp)
 1000028:	d8400215 	stw	at,8(sp)
        stw   r2,  12(sp)
 100002c:	d8800315 	stw	r2,12(sp)
        stw   r3,  16(sp)
 1000030:	d8c00415 	stw	r3,16(sp)
        stw   r4,  20(sp)
 1000034:	d9000515 	stw	r4,20(sp)
        stw   r5,  24(sp)
 1000038:	d9400615 	stw	r5,24(sp)
        stw   r6,  28(sp)
 100003c:	d9800715 	stw	r6,28(sp)
        stw   r7,  32(sp)
 1000040:	d9c00815 	stw	r7,32(sp)

        rdctl r5, estatus
 1000044:	000b307a 	rdctl	r5,estatus

        stw   r8,  36(sp)
 1000048:	da000915 	stw	r8,36(sp)
        stw   r9,  40(sp)
 100004c:	da400a15 	stw	r9,40(sp)
        stw   r10, 44(sp)
 1000050:	da800b15 	stw	r10,44(sp)
        stw   r11, 48(sp)
 1000054:	dac00c15 	stw	r11,48(sp)
        stw   r12, 52(sp)
 1000058:	db000d15 	stw	r12,52(sp)
        stw   r13, 56(sp)
 100005c:	db400e15 	stw	r13,56(sp)
        stw   r14, 60(sp)
 1000060:	db800f15 	stw	r14,60(sp)
        stw   r15, 64(sp)
 1000064:	dbc01015 	stw	r15,64(sp)
        /*
         * ea-4 contains the address of the instruction being executed
         * when the exception occured. For interrupt exceptions, we will
         * will be re-issue the isntruction. Store it in 72(sp)
         */
        stw   r5,  68(sp)  /* estatus */
 1000068:	d9401115 	stw	r5,68(sp)
        addi  r15, ea, -4  /* instruction that caused exception */
 100006c:	ebffff04 	addi	r15,ea,-4
        stw   r15,  72(sp)
 1000070:	dbc01215 	stw	r15,72(sp)
#else
        /*
         * Test to see if the exception was a software exception or caused 
         * by an external interrupt, and vector accordingly.
         */
        rdctl r4, ipending
 1000074:	0009313a 	rdctl	r4,ipending
        andi  r2, r5, 1
 1000078:	2880004c 	andi	r2,r5,1
        beq   r2, zero, .Lnot_irq
 100007c:	10000326 	beq	r2,zero,100008c <alt_exception+0x6c>
        beq   r4, zero, .Lnot_irq
 1000080:	20000226 	beq	r4,zero,100008c <alt_exception+0x6c>
        /*
         * Now that all necessary registers have been preserved, call 
         * alt_irq_handler() to process the interrupts.
         */

        call alt_irq_handler
 1000084:	10000ec0 	call	10000ec <alt_irq_handler>

        .section .exceptions.irqreturn, "xa"

        br    .Lexception_exit
 1000088:	00000306 	br	1000098 <alt_exception+0x78>
         * upon completion, so we write ea (address of instruction *after*
         * the one where the exception occured) into 72(sp). The actual
         * instruction that caused the exception is written in r2, which these
         * handlers will utilize.
         */
        stw   ea,  72(sp)  /* Don't re-issue */
 100008c:	df401215 	stw	ea,72(sp)
        ldw   r2, -4(ea)   /* Instruction that caused exception */
 1000090:	e8bfff17 	ldw	r2,-4(ea)
#ifdef NIOS2_HAS_DEBUG_STUB
       /*
        *  Either tell the user now (if there is a debugger attached) or go into
        *  the debug monitor which will loop until a debugger is attached.
        */
        break
 1000094:	003da03a 	break	0
        /* 
         * Restore the saved registers, so that all general purpose registers 
         * have been restored to their state at the time the interrupt occured.
         */

        ldw   r5,  68(sp)
 1000098:	d9401117 	ldw	r5,68(sp)
        ldw   ea,  72(sp)  /* This becomes the PC once eret is executed */
 100009c:	df401217 	ldw	ea,72(sp)
        ldw   ra,   0(sp)
 10000a0:	dfc00017 	ldw	ra,0(sp)

        wrctl estatus, r5
 10000a4:	2801707a 	wrctl	estatus,r5

        ldw   r1,   8(sp)
 10000a8:	d8400217 	ldw	at,8(sp)
        ldw   r2,  12(sp)
 10000ac:	d8800317 	ldw	r2,12(sp)
        ldw   r3,  16(sp)
 10000b0:	d8c00417 	ldw	r3,16(sp)
        ldw   r4,  20(sp)
 10000b4:	d9000517 	ldw	r4,20(sp)
        ldw   r5,  24(sp)
 10000b8:	d9400617 	ldw	r5,24(sp)
        ldw   r6,  28(sp)
 10000bc:	d9800717 	ldw	r6,28(sp)
        ldw   r7,  32(sp)
 10000c0:	d9c00817 	ldw	r7,32(sp)
#ifdef ALT_STACK_CHECK
        ldw   et, %gprel(alt_exception_old_stack_limit)(gp)
#endif
#endif

        ldw   r8,  36(sp)
 10000c4:	da000917 	ldw	r8,36(sp)
        ldw   r9,  40(sp)
 10000c8:	da400a17 	ldw	r9,40(sp)
        ldw   r10, 44(sp)
 10000cc:	da800b17 	ldw	r10,44(sp)
        ldw   r11, 48(sp)
 10000d0:	dac00c17 	ldw	r11,48(sp)
        ldw   r12, 52(sp)
 10000d4:	db000d17 	ldw	r12,52(sp)
        ldw   r13, 56(sp)
 10000d8:	db400e17 	ldw	r13,56(sp)
        ldw   r14, 60(sp)
 10000dc:	db800f17 	ldw	r14,60(sp)
        ldw   r15, 64(sp)
 10000e0:	dbc01017 	ldw	r15,64(sp)
#endif

        ldw   sp,  76(sp)

#else
        addi  sp, sp, 76
 10000e4:	dec01304 	addi	sp,sp,76

        /*
         * Return to the interrupted instruction.
         */

        eret
 10000e8:	ef80083a 	eret

010000ec <alt_irq_handler>:
 * instruction is present if the macro ALT_CI_INTERRUPT_VECTOR defined.
 */

void alt_irq_handler (void) __attribute__ ((section (".exceptions")));
void alt_irq_handler (void)
{
 10000ec:	defff904 	addi	sp,sp,-28
 10000f0:	dfc00615 	stw	ra,24(sp)
 10000f4:	df000515 	stw	fp,20(sp)
 10000f8:	df000504 	addi	fp,sp,20
#ifndef NIOS2_EIC_PRESENT
static ALT_INLINE alt_u32 ALT_ALWAYS_INLINE alt_irq_pending (void)
{
  alt_u32 active;

  NIOS2_READ_IPENDING (active);
 10000fc:	0005313a 	rdctl	r2,ipending
 1000100:	e0bffc15 	stw	r2,-16(fp)

  return active;
 1000104:	e0bffc17 	ldw	r2,-16(fp)
   * Consider the case where the high priority interupt is asserted during
   * the interrupt entry sequence for a lower priority interrupt to see why
   * this is the case.
   */

  active = alt_irq_pending ();
 1000108:	e0bfff15 	stw	r2,-4(fp)

  do
  {
    i = 0;
 100010c:	e03ffd15 	stw	zero,-12(fp)
    mask = 1;
 1000110:	00800044 	movi	r2,1
 1000114:	e0bffe15 	stw	r2,-8(fp)
     * called to clear the interrupt condition.
     */

    do
    {
      if (active & mask)
 1000118:	e0ffff17 	ldw	r3,-4(fp)
 100011c:	e0bffe17 	ldw	r2,-8(fp)
 1000120:	1884703a 	and	r2,r3,r2
 1000124:	1005003a 	cmpeq	r2,r2,zero
 1000128:	1000161e 	bne	r2,zero,1000184 <alt_irq_handler+0x98>
      { 
#ifdef ALT_ENHANCED_INTERRUPT_API_PRESENT
        alt_irq[i].handler(alt_irq[i].context); 
 100012c:	e0bffd17 	ldw	r2,-12(fp)
 1000130:	00c041b4 	movhi	r3,262
 1000134:	18fd2804 	addi	r3,r3,-2912
 1000138:	100490fa 	slli	r2,r2,3
 100013c:	10c5883a 	add	r2,r2,r3
 1000140:	11400017 	ldw	r5,0(r2)
 1000144:	e0bffd17 	ldw	r2,-12(fp)
 1000148:	00c041b4 	movhi	r3,262
 100014c:	18fd2804 	addi	r3,r3,-2912
 1000150:	100490fa 	slli	r2,r2,3
 1000154:	10c5883a 	add	r2,r2,r3
 1000158:	10800104 	addi	r2,r2,4
 100015c:	11000017 	ldw	r4,0(r2)
 1000160:	283ee83a 	callr	r5
#ifndef NIOS2_EIC_PRESENT
static ALT_INLINE alt_u32 ALT_ALWAYS_INLINE alt_irq_pending (void)
{
  alt_u32 active;

  NIOS2_READ_IPENDING (active);
 1000164:	0005313a 	rdctl	r2,ipending
 1000168:	e0bffb15 	stw	r2,-20(fp)

  return active;
 100016c:	e0bffb17 	ldw	r2,-20(fp)
      mask <<= 1;
      i++;

    } while (1);

    active = alt_irq_pending ();
 1000170:	e0bfff15 	stw	r2,-4(fp)
    
  } while (active);
 1000174:	e0bfff17 	ldw	r2,-4(fp)
 1000178:	1004c03a 	cmpne	r2,r2,zero
 100017c:	103fe31e 	bne	r2,zero,100010c <alt_irq_handler+0x20>
 1000180:	00000706 	br	10001a0 <alt_irq_handler+0xb4>
#else
        alt_irq[i].handler(alt_irq[i].context, i); 
#endif
        break;
      }
      mask <<= 1;
 1000184:	e0bffe17 	ldw	r2,-8(fp)
 1000188:	1085883a 	add	r2,r2,r2
 100018c:	e0bffe15 	stw	r2,-8(fp)
      i++;
 1000190:	e0bffd17 	ldw	r2,-12(fp)
 1000194:	10800044 	addi	r2,r2,1
 1000198:	e0bffd15 	stw	r2,-12(fp)

    } while (1);
 100019c:	003fde06 	br	1000118 <alt_irq_handler+0x2c>
  /*
   * Notify the operating system that interrupt processing is complete.
   */ 

  ALT_OS_INT_EXIT();
}
 10001a0:	e037883a 	mov	sp,fp
 10001a4:	dfc00117 	ldw	ra,4(sp)
 10001a8:	df000017 	ldw	fp,0(sp)
 10001ac:	dec00204 	addi	sp,sp,8
 10001b0:	f800283a 	ret

Disassembly of section .text:

010001b4 <_start>:
#if (NIOS2_NUM_OF_SHADOW_REG_SETS == 0)    
    /*
     * Now that the caches are initialized, set up the stack pointer.
     * The value provided by the linker is assumed to be correctly aligned.
     */
    movhi sp, %hi(__alt_stack_pointer)
 10001b4:	06c06034 	movhi	sp,384
    ori sp, sp, %lo(__alt_stack_pointer)
 10001b8:	dec00014 	ori	sp,sp,0

    /* Set up the global pointer. */
    movhi gp, %hi(_gp)
 10001bc:	068041b4 	movhi	gp,262
    ori gp, gp, %lo(_gp)
 10001c0:	d6908e14 	ori	gp,gp,16952
 */
#ifndef ALT_SIM_OPTIMIZE
    /* Log that the BSS is about to be cleared. */
    ALT_LOG_PUTS(alt_log_msg_bss)

    movhi r2, %hi(__bss_start)
 10001c4:	00804174 	movhi	r2,261
    ori r2, r2, %lo(__bss_start)
 10001c8:	10b85014 	ori	r2,r2,57664

    movhi r3, %hi(__bss_end)
 10001cc:	00c04174 	movhi	r3,261
    ori r3, r3, %lo(__bss_end)
 10001d0:	18fdcc14 	ori	r3,r3,63280

    beq r2, r3, 1f
 10001d4:	10c00326 	beq	r2,r3,10001e4 <_start+0x30>

0:
    stw zero, (r2)
 10001d8:	10000015 	stw	zero,0(r2)
    addi r2, r2, 4
 10001dc:	10800104 	addi	r2,r2,4
    bltu r2, r3, 0b
 10001e0:	10fffd36 	bltu	r2,r3,10001d8 <_start+0x24>
     * section aren't defined until alt_load() has been called).
     */
    mov   et, zero
#endif

    call alt_load
 10001e4:	1052d1c0 	call	1052d1c <alt_load>

    /* Log that alt_main is about to be called. */
    ALT_LOG_PUTS(alt_log_msg_alt_main)

    /* Call the C entry point. It should never return. */
    call alt_main
 10001e8:	1052f5c0 	call	1052f5c <alt_main>

010001ec <alt_after_alt_main>:

    /* Wait in infinite loop in case alt_main does return. */
alt_after_alt_main:
    br alt_after_alt_main
 10001ec:	003fff06 	br	10001ec <alt_after_alt_main>

010001f0 <_ZN9MatrixMapC2Eii>:
	//char m = new map[SIZE][SIZE];
	gen_map();

}

MatrixMap::MatrixMap(int rows, int cols) { //future contructor
 10001f0:	defffc04 	addi	sp,sp,-16
 10001f4:	df000315 	stw	fp,12(sp)
 10001f8:	df000304 	addi	fp,sp,12
 10001fc:	e13ffd15 	stw	r4,-12(fp)
 1000200:	e17ffe15 	stw	r5,-8(fp)
 1000204:	e1bfff15 	stw	r6,-4(fp)
	/*nrows = rows;
	 ncols = cols;
	 m = new map[nrows][ncols];
	 gen_map();*/
}
 1000208:	e037883a 	mov	sp,fp
 100020c:	df000017 	ldw	fp,0(sp)
 1000210:	dec00104 	addi	sp,sp,4
 1000214:	f800283a 	ret

01000218 <_ZN9MatrixMapC1Eii>:
	//char m = new map[SIZE][SIZE];
	gen_map();

}

MatrixMap::MatrixMap(int rows, int cols) { //future contructor
 1000218:	defffc04 	addi	sp,sp,-16
 100021c:	df000315 	stw	fp,12(sp)
 1000220:	df000304 	addi	fp,sp,12
 1000224:	e13ffd15 	stw	r4,-12(fp)
 1000228:	e17ffe15 	stw	r5,-8(fp)
 100022c:	e1bfff15 	stw	r6,-4(fp)
	/*nrows = rows;
	 ncols = cols;
	 m = new map[nrows][ncols];
	 gen_map();*/
}
 1000230:	e037883a 	mov	sp,fp
 1000234:	df000017 	ldw	fp,0(sp)
 1000238:	dec00104 	addi	sp,sp,4
 100023c:	f800283a 	ret

01000240 <_ZN9MatrixMap7gen_mapEv>:

void MatrixMap::gen_map() { //generates map
 1000240:	defff904 	addi	sp,sp,-28
 1000244:	dfc00615 	stw	ra,24(sp)
 1000248:	df000515 	stw	fp,20(sp)
 100024c:	dc400415 	stw	r17,16(sp)
 1000250:	dc000315 	stw	r16,12(sp)
 1000254:	df000304 	addi	fp,sp,12
 1000258:	e13fff15 	stw	r4,-4(fp)
	//int i, j, k;

	for (int i = 0; i < SIZE; i++) {
 100025c:	e03ffe15 	stw	zero,-8(fp)
 1000260:	00003006 	br	1000324 <_ZN9MatrixMap7gen_mapEv+0xe4>

		for (int j = 0; j < SIZE; j++) {
 1000264:	e03ffd15 	stw	zero,-12(fp)
 1000268:	00002806 	br	100030c <_ZN9MatrixMap7gen_mapEv+0xcc>
			if (i % 2 == 0)
 100026c:	e0bffe17 	ldw	r2,-8(fp)
 1000270:	1080004c 	andi	r2,r2,1
 1000274:	1004c03a 	cmpne	r2,r2,zero
 1000278:	10000a1e 	bne	r2,zero,10002a4 <_ZN9MatrixMap7gen_mapEv+0x64>
				map[i][j] = 'x';
 100027c:	e13ffe17 	ldw	r4,-8(fp)
 1000280:	e47ffd17 	ldw	r17,-12(fp)
 1000284:	e43fff17 	ldw	r16,-4(fp)
 1000288:	014002c4 	movi	r5,11
 100028c:	10418a80 	call	10418a8 <__mulsi3>
 1000290:	1405883a 	add	r2,r2,r16
 1000294:	1447883a 	add	r3,r2,r17
 1000298:	00801e04 	movi	r2,120
 100029c:	18800005 	stb	r2,0(r3)
 10002a0:	00001706 	br	1000300 <_ZN9MatrixMap7gen_mapEv+0xc0>
			else {
				if (j % 2 == 0) {
 10002a4:	e0bffd17 	ldw	r2,-12(fp)
 10002a8:	1080004c 	andi	r2,r2,1
 10002ac:	1004c03a 	cmpne	r2,r2,zero
 10002b0:	10000a1e 	bne	r2,zero,10002dc <_ZN9MatrixMap7gen_mapEv+0x9c>

					map[i][j] = 'x';
 10002b4:	e13ffe17 	ldw	r4,-8(fp)
 10002b8:	e47ffd17 	ldw	r17,-12(fp)
 10002bc:	e43fff17 	ldw	r16,-4(fp)
 10002c0:	014002c4 	movi	r5,11
 10002c4:	10418a80 	call	10418a8 <__mulsi3>
 10002c8:	1405883a 	add	r2,r2,r16
 10002cc:	1447883a 	add	r3,r2,r17
 10002d0:	00801e04 	movi	r2,120
 10002d4:	18800005 	stb	r2,0(r3)
 10002d8:	00000906 	br	1000300 <_ZN9MatrixMap7gen_mapEv+0xc0>
				} else
					map[i][j] = 'o';
 10002dc:	e13ffe17 	ldw	r4,-8(fp)
 10002e0:	e47ffd17 	ldw	r17,-12(fp)
 10002e4:	e43fff17 	ldw	r16,-4(fp)
 10002e8:	014002c4 	movi	r5,11
 10002ec:	10418a80 	call	10418a8 <__mulsi3>
 10002f0:	1405883a 	add	r2,r2,r16
 10002f4:	1447883a 	add	r3,r2,r17
 10002f8:	00801bc4 	movi	r2,111
 10002fc:	18800005 	stb	r2,0(r3)
void MatrixMap::gen_map() { //generates map
	//int i, j, k;

	for (int i = 0; i < SIZE; i++) {

		for (int j = 0; j < SIZE; j++) {
 1000300:	e0bffd17 	ldw	r2,-12(fp)
 1000304:	10800044 	addi	r2,r2,1
 1000308:	e0bffd15 	stw	r2,-12(fp)
 100030c:	e0bffd17 	ldw	r2,-12(fp)
 1000310:	108002d0 	cmplti	r2,r2,11
 1000314:	103fd51e 	bne	r2,zero,100026c <_ZN9MatrixMap7gen_mapEv+0x2c>
}

void MatrixMap::gen_map() { //generates map
	//int i, j, k;

	for (int i = 0; i < SIZE; i++) {
 1000318:	e0bffe17 	ldw	r2,-8(fp)
 100031c:	10800044 	addi	r2,r2,1
 1000320:	e0bffe15 	stw	r2,-8(fp)
 1000324:	e0bffe17 	ldw	r2,-8(fp)
 1000328:	108002d0 	cmplti	r2,r2,11
 100032c:	103fcd1e 	bne	r2,zero,1000264 <_ZN9MatrixMap7gen_mapEv+0x24>
			}
		}

	}

}
 1000330:	e037883a 	mov	sp,fp
 1000334:	dfc00317 	ldw	ra,12(sp)
 1000338:	df000217 	ldw	fp,8(sp)
 100033c:	dc400117 	ldw	r17,4(sp)
 1000340:	dc000017 	ldw	r16,0(sp)
 1000344:	dec00404 	addi	sp,sp,16
 1000348:	f800283a 	ret

0100034c <_ZN9MatrixMapC1Ev>:
 *
 *      Matrix representation of mao, with x's marked as legal areas and o's as illegal
 */
#include "MatrixMap.h"

MatrixMap::MatrixMap() { //contructor dynamically initializes and generates map
 100034c:	defffd04 	addi	sp,sp,-12
 1000350:	dfc00215 	stw	ra,8(sp)
 1000354:	df000115 	stw	fp,4(sp)
 1000358:	df000104 	addi	fp,sp,4
 100035c:	e13fff15 	stw	r4,-4(fp)

	//char m = new map[SIZE][SIZE];
	gen_map();
 1000360:	e13fff17 	ldw	r4,-4(fp)
 1000364:	10002400 	call	1000240 <_ZN9MatrixMap7gen_mapEv>

}
 1000368:	e037883a 	mov	sp,fp
 100036c:	dfc00117 	ldw	ra,4(sp)
 1000370:	df000017 	ldw	fp,0(sp)
 1000374:	dec00204 	addi	sp,sp,8
 1000378:	f800283a 	ret

0100037c <_ZN9MatrixMapC2Ev>:
 *
 *      Matrix representation of mao, with x's marked as legal areas and o's as illegal
 */
#include "MatrixMap.h"

MatrixMap::MatrixMap() { //contructor dynamically initializes and generates map
 100037c:	defffd04 	addi	sp,sp,-12
 1000380:	dfc00215 	stw	ra,8(sp)
 1000384:	df000115 	stw	fp,4(sp)
 1000388:	df000104 	addi	fp,sp,4
 100038c:	e13fff15 	stw	r4,-4(fp)

	//char m = new map[SIZE][SIZE];
	gen_map();
 1000390:	e13fff17 	ldw	r4,-4(fp)
 1000394:	10002400 	call	1000240 <_ZN9MatrixMap7gen_mapEv>

}
 1000398:	e037883a 	mov	sp,fp
 100039c:	dfc00117 	ldw	ra,4(sp)
 10003a0:	df000017 	ldw	fp,0(sp)
 10003a4:	dec00204 	addi	sp,sp,8
 10003a8:	f800283a 	ret

010003ac <_ZN9MatrixMap8get_cordEii>:
		}

	}

}
char MatrixMap::get_cord(int x, int y) {
 10003ac:	defff904 	addi	sp,sp,-28
 10003b0:	dfc00615 	stw	ra,24(sp)
 10003b4:	df000515 	stw	fp,20(sp)
 10003b8:	dc400415 	stw	r17,16(sp)
 10003bc:	dc000315 	stw	r16,12(sp)
 10003c0:	df000304 	addi	fp,sp,12
 10003c4:	e13ffd15 	stw	r4,-12(fp)
 10003c8:	e17ffe15 	stw	r5,-8(fp)
 10003cc:	e1bfff15 	stw	r6,-4(fp)
	return map[x][y];
 10003d0:	e13ffe17 	ldw	r4,-8(fp)
 10003d4:	e47fff17 	ldw	r17,-4(fp)
 10003d8:	e43ffd17 	ldw	r16,-12(fp)
 10003dc:	014002c4 	movi	r5,11
 10003e0:	10418a80 	call	10418a8 <__mulsi3>
 10003e4:	1405883a 	add	r2,r2,r16
 10003e8:	1445883a 	add	r2,r2,r17
 10003ec:	10800003 	ldbu	r2,0(r2)
 10003f0:	10803fcc 	andi	r2,r2,255
 10003f4:	1080201c 	xori	r2,r2,128
 10003f8:	10bfe004 	addi	r2,r2,-128
}
 10003fc:	e037883a 	mov	sp,fp
 1000400:	dfc00317 	ldw	ra,12(sp)
 1000404:	df000217 	ldw	fp,8(sp)
 1000408:	dc400117 	ldw	r17,4(sp)
 100040c:	dc000017 	ldw	r16,0(sp)
 1000410:	dec00404 	addi	sp,sp,16
 1000414:	f800283a 	ret

01000418 <_ZN9MatrixMap12print_matrixEv>:



void MatrixMap::print_matrix() { //prints map to screen
 1000418:	defff804 	addi	sp,sp,-32
 100041c:	dfc00715 	stw	ra,28(sp)
 1000420:	df000615 	stw	fp,24(sp)
 1000424:	dc400515 	stw	r17,20(sp)
 1000428:	dc000415 	stw	r16,16(sp)
 100042c:	df000404 	addi	fp,sp,16
 1000430:	e13fff15 	stw	r4,-4(fp)
	int i, j, k;

	for (i = 0; i < SIZE; i++) {
 1000434:	e03ffe15 	stw	zero,-8(fp)
 1000438:	00001906 	br	10004a0 <_ZN9MatrixMap12print_matrixEv+0x88>

		for (j = 0; j < SIZE; j++) {
 100043c:	e03ffd15 	stw	zero,-12(fp)
 1000440:	00000f06 	br	1000480 <_ZN9MatrixMap12print_matrixEv+0x68>
			printf("%c", map[i][j]);
 1000444:	e13ffe17 	ldw	r4,-8(fp)
 1000448:	e47ffd17 	ldw	r17,-12(fp)
 100044c:	e43fff17 	ldw	r16,-4(fp)
 1000450:	014002c4 	movi	r5,11
 1000454:	10418a80 	call	10418a8 <__mulsi3>
 1000458:	1405883a 	add	r2,r2,r16
 100045c:	1445883a 	add	r2,r2,r17
 1000460:	10800003 	ldbu	r2,0(r2)
 1000464:	11003fcc 	andi	r4,r2,255
 1000468:	2100201c 	xori	r4,r4,128
 100046c:	213fe004 	addi	r4,r4,-128
 1000470:	1044b440 	call	1044b44 <putchar>
void MatrixMap::print_matrix() { //prints map to screen
	int i, j, k;

	for (i = 0; i < SIZE; i++) {

		for (j = 0; j < SIZE; j++) {
 1000474:	e0bffd17 	ldw	r2,-12(fp)
 1000478:	10800044 	addi	r2,r2,1
 100047c:	e0bffd15 	stw	r2,-12(fp)
 1000480:	e0bffd17 	ldw	r2,-12(fp)
 1000484:	108002d0 	cmplti	r2,r2,11
 1000488:	103fee1e 	bne	r2,zero,1000444 <_ZN9MatrixMap12print_matrixEv+0x2c>
			printf("%c", map[i][j]);
		}
		printf("\n");
 100048c:	01000284 	movi	r4,10
 1000490:	1044b440 	call	1044b44 <putchar>


void MatrixMap::print_matrix() { //prints map to screen
	int i, j, k;

	for (i = 0; i < SIZE; i++) {
 1000494:	e0bffe17 	ldw	r2,-8(fp)
 1000498:	10800044 	addi	r2,r2,1
 100049c:	e0bffe15 	stw	r2,-8(fp)
 10004a0:	e0bffe17 	ldw	r2,-8(fp)
 10004a4:	108002d0 	cmplti	r2,r2,11
 10004a8:	103fe41e 	bne	r2,zero,100043c <_ZN9MatrixMap12print_matrixEv+0x24>
			printf("%c", map[i][j]);
		}
		printf("\n");
	}

}
 10004ac:	e037883a 	mov	sp,fp
 10004b0:	dfc00317 	ldw	ra,12(sp)
 10004b4:	df000217 	ldw	fp,8(sp)
 10004b8:	dc400117 	ldw	r17,4(sp)
 10004bc:	dc000017 	ldw	r16,0(sp)
 10004c0:	dec00404 	addi	sp,sp,16
 10004c4:	f800283a 	ret

010004c8 <_ZN6Player10get_x_cordEv>:
			printf("Moving down...");
			y_cord++;
	}

	//getters return x, y coordinates
	int Player::get_x_cord(){
 10004c8:	defffe04 	addi	sp,sp,-8
 10004cc:	df000115 	stw	fp,4(sp)
 10004d0:	df000104 	addi	fp,sp,4
 10004d4:	e13fff15 	stw	r4,-4(fp)
		return x_cord;
 10004d8:	e0bfff17 	ldw	r2,-4(fp)
 10004dc:	10800117 	ldw	r2,4(r2)
	}
 10004e0:	e037883a 	mov	sp,fp
 10004e4:	df000017 	ldw	fp,0(sp)
 10004e8:	dec00104 	addi	sp,sp,4
 10004ec:	f800283a 	ret

010004f0 <_ZN6Player10get_y_cordEv>:
	int Player::get_y_cord(){
 10004f0:	defffe04 	addi	sp,sp,-8
 10004f4:	df000115 	stw	fp,4(sp)
 10004f8:	df000104 	addi	fp,sp,4
 10004fc:	e13fff15 	stw	r4,-4(fp)
		return y_cord;
 1000500:	e0bfff17 	ldw	r2,-4(fp)
 1000504:	10800217 	ldw	r2,8(r2)
	}
 1000508:	e037883a 	mov	sp,fp
 100050c:	df000017 	ldw	fp,0(sp)
 1000510:	dec00104 	addi	sp,sp,4
 1000514:	f800283a 	ret

01000518 <_Z41__static_initialization_and_destruction_0ii>:
 1000518:	defffc04 	addi	sp,sp,-16
 100051c:	dfc00315 	stw	ra,12(sp)
 1000520:	df000215 	stw	fp,8(sp)
 1000524:	df000204 	addi	fp,sp,8
 1000528:	e13ffe15 	stw	r4,-8(fp)
 100052c:	e17fff15 	stw	r5,-4(fp)
 1000530:	e0bffe17 	ldw	r2,-8(fp)
 1000534:	10800058 	cmpnei	r2,r2,1
 1000538:	1000051e 	bne	r2,zero,1000550 <_Z41__static_initialization_and_destruction_0ii+0x38>
 100053c:	e0ffff17 	ldw	r3,-4(fp)
 1000540:	00bfffd4 	movui	r2,65535
 1000544:	1880021e 	bne	r3,r2,1000550 <_Z41__static_initialization_and_destruction_0ii+0x38>
  extern wostream wclog;	///< Linked to standard error (buffered)
#endif
  //@}

  // For construction of filebuffers for cout, cin, cerr, clog et. al.
  static ios_base::Init __ioinit;
 1000548:	d127c204 	addi	r4,gp,-24824
 100054c:	100197c0 	call	100197c <_ZNSt8ios_base4InitC1Ev>
 1000550:	e0bffe17 	ldw	r2,-8(fp)
 1000554:	1004c03a 	cmpne	r2,r2,zero
 1000558:	1000051e 	bne	r2,zero,1000570 <_Z41__static_initialization_and_destruction_0ii+0x58>
 100055c:	e0ffff17 	ldw	r3,-4(fp)
 1000560:	00bfffd4 	movui	r2,65535
 1000564:	1880021e 	bne	r3,r2,1000570 <_Z41__static_initialization_and_destruction_0ii+0x58>
 1000568:	d127c204 	addi	r4,gp,-24824
 100056c:	10012d00 	call	10012d0 <_ZNSt8ios_base4InitD1Ev>
 1000570:	e037883a 	mov	sp,fp
 1000574:	dfc00117 	ldw	ra,4(sp)
 1000578:	df000017 	ldw	fp,0(sp)
 100057c:	dec00204 	addi	sp,sp,8
 1000580:	f800283a 	ret

01000584 <_GLOBAL__D__ZN6PlayerC2Ev>:


 1000584:	defffe04 	addi	sp,sp,-8
 1000588:	dfc00115 	stw	ra,4(sp)
 100058c:	df000015 	stw	fp,0(sp)
 1000590:	d839883a 	mov	fp,sp
 1000594:	0009883a 	mov	r4,zero
 1000598:	017fffd4 	movui	r5,65535
 100059c:	10005180 	call	1000518 <_Z41__static_initialization_and_destruction_0ii>
 10005a0:	e037883a 	mov	sp,fp
 10005a4:	dfc00117 	ldw	ra,4(sp)
 10005a8:	df000017 	ldw	fp,0(sp)
 10005ac:	dec00204 	addi	sp,sp,8
 10005b0:	f800283a 	ret

010005b4 <_GLOBAL__I__ZN6PlayerC2Ev>:
		return x_cord;
	}
	int Player::get_y_cord(){
		return y_cord;
	}

 10005b4:	defffe04 	addi	sp,sp,-8
 10005b8:	dfc00115 	stw	ra,4(sp)
 10005bc:	df000015 	stw	fp,0(sp)
 10005c0:	d839883a 	mov	fp,sp
 10005c4:	01000044 	movi	r4,1
 10005c8:	017fffd4 	movui	r5,65535
 10005cc:	10005180 	call	1000518 <_Z41__static_initialization_and_destruction_0ii>
 10005d0:	e037883a 	mov	sp,fp
 10005d4:	dfc00117 	ldw	ra,4(sp)
 10005d8:	df000017 	ldw	fp,0(sp)
 10005dc:	dec00204 	addi	sp,sp,8
 10005e0:	f800283a 	ret

010005e4 <_ZN6Player9move_downEv>:
	}
	void Player::move_up(){
			printf("Moving up...");
			y_cord--;
	}
	void Player::move_down(){
 10005e4:	defffd04 	addi	sp,sp,-12
 10005e8:	dfc00215 	stw	ra,8(sp)
 10005ec:	df000115 	stw	fp,4(sp)
 10005f0:	df000104 	addi	fp,sp,4
 10005f4:	e13fff15 	stw	r4,-4(fp)
			printf("Moving down...");
 10005f8:	010041b4 	movhi	r4,262
 10005fc:	21202a04 	addi	r4,r4,-32600
 1000600:	10448e00 	call	10448e0 <printf>
			y_cord++;
 1000604:	e0bfff17 	ldw	r2,-4(fp)
 1000608:	10800217 	ldw	r2,8(r2)
 100060c:	10c00044 	addi	r3,r2,1
 1000610:	e0bfff17 	ldw	r2,-4(fp)
 1000614:	10c00215 	stw	r3,8(r2)
	}
 1000618:	e037883a 	mov	sp,fp
 100061c:	dfc00117 	ldw	ra,4(sp)
 1000620:	df000017 	ldw	fp,0(sp)
 1000624:	dec00204 	addi	sp,sp,8
 1000628:	f800283a 	ret

0100062c <_ZN6Player7move_upEv>:
	}
	void Player::move_left(){
			printf("Moving left...");
			x_cord--;
	}
	void Player::move_up(){
 100062c:	defffd04 	addi	sp,sp,-12
 1000630:	dfc00215 	stw	ra,8(sp)
 1000634:	df000115 	stw	fp,4(sp)
 1000638:	df000104 	addi	fp,sp,4
 100063c:	e13fff15 	stw	r4,-4(fp)
			printf("Moving up...");
 1000640:	010041b4 	movhi	r4,262
 1000644:	21202e04 	addi	r4,r4,-32584
 1000648:	10448e00 	call	10448e0 <printf>
			y_cord--;
 100064c:	e0bfff17 	ldw	r2,-4(fp)
 1000650:	10800217 	ldw	r2,8(r2)
 1000654:	10ffffc4 	addi	r3,r2,-1
 1000658:	e0bfff17 	ldw	r2,-4(fp)
 100065c:	10c00215 	stw	r3,8(r2)
	}
 1000660:	e037883a 	mov	sp,fp
 1000664:	dfc00117 	ldw	ra,4(sp)
 1000668:	df000017 	ldw	fp,0(sp)
 100066c:	dec00204 	addi	sp,sp,8
 1000670:	f800283a 	ret

01000674 <_ZN6Player9move_leftEv>:
	//move functions increment or decrement x or y coordinates
	void Player::move_right(){
			printf("Moving right...");
			x_cord++;
	}
	void Player::move_left(){
 1000674:	defffd04 	addi	sp,sp,-12
 1000678:	dfc00215 	stw	ra,8(sp)
 100067c:	df000115 	stw	fp,4(sp)
 1000680:	df000104 	addi	fp,sp,4
 1000684:	e13fff15 	stw	r4,-4(fp)
			printf("Moving left...");
 1000688:	010041b4 	movhi	r4,262
 100068c:	21203204 	addi	r4,r4,-32568
 1000690:	10448e00 	call	10448e0 <printf>
			x_cord--;
 1000694:	e0bfff17 	ldw	r2,-4(fp)
 1000698:	10800117 	ldw	r2,4(r2)
 100069c:	10ffffc4 	addi	r3,r2,-1
 10006a0:	e0bfff17 	ldw	r2,-4(fp)
 10006a4:	10c00115 	stw	r3,4(r2)
	}
 10006a8:	e037883a 	mov	sp,fp
 10006ac:	dfc00117 	ldw	ra,4(sp)
 10006b0:	df000017 	ldw	fp,0(sp)
 10006b4:	dec00204 	addi	sp,sp,8
 10006b8:	f800283a 	ret

010006bc <_ZN6Player10move_rightEv>:
			else if(direction == LEFT && m.get_cord(x_cord-1, y_cord)=='x' && x_cord>0)
					move_left();
	}

	//move functions increment or decrement x or y coordinates
	void Player::move_right(){
 10006bc:	defffd04 	addi	sp,sp,-12
 10006c0:	dfc00215 	stw	ra,8(sp)
 10006c4:	df000115 	stw	fp,4(sp)
 10006c8:	df000104 	addi	fp,sp,4
 10006cc:	e13fff15 	stw	r4,-4(fp)
			printf("Moving right...");
 10006d0:	010041b4 	movhi	r4,262
 10006d4:	21203604 	addi	r4,r4,-32552
 10006d8:	10448e00 	call	10448e0 <printf>
			x_cord++;
 10006dc:	e0bfff17 	ldw	r2,-4(fp)
 10006e0:	10800117 	ldw	r2,4(r2)
 10006e4:	10c00044 	addi	r3,r2,1
 10006e8:	e0bfff17 	ldw	r2,-4(fp)
 10006ec:	10c00115 	stw	r3,4(r2)
	}
 10006f0:	e037883a 	mov	sp,fp
 10006f4:	dfc00117 	ldw	ra,4(sp)
 10006f8:	df000017 	ldw	fp,0(sp)
 10006fc:	dec00204 	addi	sp,sp,8
 1000700:	f800283a 	ret

01000704 <_ZN6Player4moveEcR9MatrixMap>:
						}
					}
			return STAND;
		}

	void Player::move(char direction, MatrixMap& m){//moves in direction pressed if legal
 1000704:	defffa04 	addi	sp,sp,-24
 1000708:	dfc00515 	stw	ra,20(sp)
 100070c:	df000415 	stw	fp,16(sp)
 1000710:	df000404 	addi	fp,sp,16
 1000714:	e13ffc15 	stw	r4,-16(fp)
 1000718:	e1bffe15 	stw	r6,-8(fp)
 100071c:	e17ffd05 	stb	r5,-12(fp)
		//checks matrix map for x's marked as legal areas

			if(direction == UP && m.get_cord(x_cord, y_cord-1)=='x' && y_cord>0)
 1000720:	e0bffd07 	ldb	r2,-12(fp)
 1000724:	10801558 	cmpnei	r2,r2,85
 1000728:	1000131e 	bne	r2,zero,1000778 <_ZN6Player4moveEcR9MatrixMap+0x74>
 100072c:	e0bffc17 	ldw	r2,-16(fp)
 1000730:	11400117 	ldw	r5,4(r2)
 1000734:	e0bffc17 	ldw	r2,-16(fp)
 1000738:	10800217 	ldw	r2,8(r2)
 100073c:	11bfffc4 	addi	r6,r2,-1
 1000740:	e13ffe17 	ldw	r4,-8(fp)
 1000744:	10003ac0 	call	10003ac <_ZN9MatrixMap8get_cordEii>
 1000748:	10803fcc 	andi	r2,r2,255
 100074c:	1080201c 	xori	r2,r2,128
 1000750:	10bfe004 	addi	r2,r2,-128
 1000754:	10801e18 	cmpnei	r2,r2,120
 1000758:	1000071e 	bne	r2,zero,1000778 <_ZN6Player4moveEcR9MatrixMap+0x74>
 100075c:	e0bffc17 	ldw	r2,-16(fp)
 1000760:	10800217 	ldw	r2,8(r2)
 1000764:	10800050 	cmplti	r2,r2,1
 1000768:	1000031e 	bne	r2,zero,1000778 <_ZN6Player4moveEcR9MatrixMap+0x74>
 100076c:	00800044 	movi	r2,1
 1000770:	e0bfffc5 	stb	r2,-1(fp)
 1000774:	00000106 	br	100077c <_ZN6Player4moveEcR9MatrixMap+0x78>
 1000778:	e03fffc5 	stb	zero,-1(fp)
 100077c:	e0bfffc3 	ldbu	r2,-1(fp)
 1000780:	10803fcc 	andi	r2,r2,255
 1000784:	1005003a 	cmpeq	r2,r2,zero
 1000788:	1000031e 	bne	r2,zero,1000798 <_ZN6Player4moveEcR9MatrixMap+0x94>
					move_up();
 100078c:	e13ffc17 	ldw	r4,-16(fp)
 1000790:	100062c0 	call	100062c <_ZN6Player7move_upEv>
 1000794:	00005906 	br	10008fc <_ZN6Player4moveEcR9MatrixMap+0x1f8>
			else if(direction == DOWN && m.get_cord(x_cord, y_cord+1)=='x' && y_cord<SIZE-1)
 1000798:	e0bffd07 	ldb	r2,-12(fp)
 100079c:	10801118 	cmpnei	r2,r2,68
 10007a0:	1000131e 	bne	r2,zero,10007f0 <_ZN6Player4moveEcR9MatrixMap+0xec>
 10007a4:	e0bffc17 	ldw	r2,-16(fp)
 10007a8:	11400117 	ldw	r5,4(r2)
 10007ac:	e0bffc17 	ldw	r2,-16(fp)
 10007b0:	10800217 	ldw	r2,8(r2)
 10007b4:	11800044 	addi	r6,r2,1
 10007b8:	e13ffe17 	ldw	r4,-8(fp)
 10007bc:	10003ac0 	call	10003ac <_ZN9MatrixMap8get_cordEii>
 10007c0:	10803fcc 	andi	r2,r2,255
 10007c4:	1080201c 	xori	r2,r2,128
 10007c8:	10bfe004 	addi	r2,r2,-128
 10007cc:	10801e18 	cmpnei	r2,r2,120
 10007d0:	1000071e 	bne	r2,zero,10007f0 <_ZN6Player4moveEcR9MatrixMap+0xec>
 10007d4:	e0bffc17 	ldw	r2,-16(fp)
 10007d8:	10800217 	ldw	r2,8(r2)
 10007dc:	10800288 	cmpgei	r2,r2,10
 10007e0:	1000031e 	bne	r2,zero,10007f0 <_ZN6Player4moveEcR9MatrixMap+0xec>
 10007e4:	00800044 	movi	r2,1
 10007e8:	e0bfff85 	stb	r2,-2(fp)
 10007ec:	00000106 	br	10007f4 <_ZN6Player4moveEcR9MatrixMap+0xf0>
 10007f0:	e03fff85 	stb	zero,-2(fp)
 10007f4:	e0bfff83 	ldbu	r2,-2(fp)
 10007f8:	10803fcc 	andi	r2,r2,255
 10007fc:	1005003a 	cmpeq	r2,r2,zero
 1000800:	1000031e 	bne	r2,zero,1000810 <_ZN6Player4moveEcR9MatrixMap+0x10c>
					move_down();
 1000804:	e13ffc17 	ldw	r4,-16(fp)
 1000808:	10005e40 	call	10005e4 <_ZN6Player9move_downEv>
 100080c:	00003b06 	br	10008fc <_ZN6Player4moveEcR9MatrixMap+0x1f8>
			else if(direction == RIGHT && m.get_cord(x_cord+1, y_cord)=='x' && x_cord<SIZE-1)
 1000810:	e0bffd07 	ldb	r2,-12(fp)
 1000814:	10801498 	cmpnei	r2,r2,82
 1000818:	1000131e 	bne	r2,zero,1000868 <_ZN6Player4moveEcR9MatrixMap+0x164>
 100081c:	e0bffc17 	ldw	r2,-16(fp)
 1000820:	10800117 	ldw	r2,4(r2)
 1000824:	11400044 	addi	r5,r2,1
 1000828:	e0bffc17 	ldw	r2,-16(fp)
 100082c:	11800217 	ldw	r6,8(r2)
 1000830:	e13ffe17 	ldw	r4,-8(fp)
 1000834:	10003ac0 	call	10003ac <_ZN9MatrixMap8get_cordEii>
 1000838:	10803fcc 	andi	r2,r2,255
 100083c:	1080201c 	xori	r2,r2,128
 1000840:	10bfe004 	addi	r2,r2,-128
 1000844:	10801e18 	cmpnei	r2,r2,120
 1000848:	1000071e 	bne	r2,zero,1000868 <_ZN6Player4moveEcR9MatrixMap+0x164>
 100084c:	e0bffc17 	ldw	r2,-16(fp)
 1000850:	10800117 	ldw	r2,4(r2)
 1000854:	10800288 	cmpgei	r2,r2,10
 1000858:	1000031e 	bne	r2,zero,1000868 <_ZN6Player4moveEcR9MatrixMap+0x164>
 100085c:	00800044 	movi	r2,1
 1000860:	e0bfff45 	stb	r2,-3(fp)
 1000864:	00000106 	br	100086c <_ZN6Player4moveEcR9MatrixMap+0x168>
 1000868:	e03fff45 	stb	zero,-3(fp)
 100086c:	e0bfff43 	ldbu	r2,-3(fp)
 1000870:	10803fcc 	andi	r2,r2,255
 1000874:	1005003a 	cmpeq	r2,r2,zero
 1000878:	1000031e 	bne	r2,zero,1000888 <_ZN6Player4moveEcR9MatrixMap+0x184>
					move_right();
 100087c:	e13ffc17 	ldw	r4,-16(fp)
 1000880:	10006bc0 	call	10006bc <_ZN6Player10move_rightEv>
 1000884:	00001d06 	br	10008fc <_ZN6Player4moveEcR9MatrixMap+0x1f8>
			else if(direction == LEFT && m.get_cord(x_cord-1, y_cord)=='x' && x_cord>0)
 1000888:	e0bffd07 	ldb	r2,-12(fp)
 100088c:	10801318 	cmpnei	r2,r2,76
 1000890:	1000131e 	bne	r2,zero,10008e0 <_ZN6Player4moveEcR9MatrixMap+0x1dc>
 1000894:	e0bffc17 	ldw	r2,-16(fp)
 1000898:	10800117 	ldw	r2,4(r2)
 100089c:	117fffc4 	addi	r5,r2,-1
 10008a0:	e0bffc17 	ldw	r2,-16(fp)
 10008a4:	11800217 	ldw	r6,8(r2)
 10008a8:	e13ffe17 	ldw	r4,-8(fp)
 10008ac:	10003ac0 	call	10003ac <_ZN9MatrixMap8get_cordEii>
 10008b0:	10803fcc 	andi	r2,r2,255
 10008b4:	1080201c 	xori	r2,r2,128
 10008b8:	10bfe004 	addi	r2,r2,-128
 10008bc:	10801e18 	cmpnei	r2,r2,120
 10008c0:	1000071e 	bne	r2,zero,10008e0 <_ZN6Player4moveEcR9MatrixMap+0x1dc>
 10008c4:	e0bffc17 	ldw	r2,-16(fp)
 10008c8:	10800117 	ldw	r2,4(r2)
 10008cc:	10800050 	cmplti	r2,r2,1
 10008d0:	1000031e 	bne	r2,zero,10008e0 <_ZN6Player4moveEcR9MatrixMap+0x1dc>
 10008d4:	00800044 	movi	r2,1
 10008d8:	e0bfff05 	stb	r2,-4(fp)
 10008dc:	00000106 	br	10008e4 <_ZN6Player4moveEcR9MatrixMap+0x1e0>
 10008e0:	e03fff05 	stb	zero,-4(fp)
 10008e4:	e0bfff03 	ldbu	r2,-4(fp)
 10008e8:	10803fcc 	andi	r2,r2,255
 10008ec:	1005003a 	cmpeq	r2,r2,zero
 10008f0:	1000021e 	bne	r2,zero,10008fc <_ZN6Player4moveEcR9MatrixMap+0x1f8>
					move_left();
 10008f4:	e13ffc17 	ldw	r4,-16(fp)
 10008f8:	10006740 	call	1000674 <_ZN6Player9move_leftEv>
	}
 10008fc:	e037883a 	mov	sp,fp
 1000900:	dfc00117 	ldw	ra,4(sp)
 1000904:	df000017 	ldw	fp,0(sp)
 1000908:	dec00204 	addi	sp,sp,8
 100090c:	f800283a 	ret

01000910 <_ZN6Player13get_directionEv>:
					printf("Error: could not open Parallel Port device\n");
				 else
					printf("Opened Parallel Port device\n");
	}

	char Player::get_direction(){//returns the direction pressed
 1000910:	defffb04 	addi	sp,sp,-20
 1000914:	df000415 	stw	fp,16(sp)
 1000918:	df000404 	addi	fp,sp,16
 100091c:	e13ffd15 	stw	r4,-12(fp)
		unsigned int key;
		key = alt_up_parallel_port_read_data(parallel_port_dev);
 1000920:	e0bffd17 	ldw	r2,-12(fp)
 1000924:	10800417 	ldw	r2,16(r2)
 1000928:	10800a17 	ldw	r2,40(r2)
 100092c:	10800037 	ldwio	r2,0(r2)
 1000930:	e0bffc15 	stw	r2,-16(fp)

			if (key != 0){
 1000934:	e0bffc17 	ldw	r2,-16(fp)
 1000938:	1005003a 	cmpeq	r2,r2,zero
 100093c:	10001f1e 	bne	r2,zero,10009bc <_ZN6Player13get_directionEv+0xac>
				switch(key){
 1000940:	e0bffc17 	ldw	r2,-16(fp)
 1000944:	e0bfff15 	stw	r2,-4(fp)
 1000948:	e0ffff17 	ldw	r3,-4(fp)
 100094c:	188000a0 	cmpeqi	r2,r3,2
 1000950:	1000111e 	bne	r2,zero,1000998 <_ZN6Player13get_directionEv+0x88>
 1000954:	e0ffff17 	ldw	r3,-4(fp)
 1000958:	188000e8 	cmpgeui	r2,r3,3
 100095c:	1000041e 	bne	r2,zero,1000970 <_ZN6Player13get_directionEv+0x60>
 1000960:	e0ffff17 	ldw	r3,-4(fp)
 1000964:	18800060 	cmpeqi	r2,r3,1
 1000968:	1000081e 	bne	r2,zero,100098c <_ZN6Player13get_directionEv+0x7c>
 100096c:	00001306 	br	10009bc <_ZN6Player13get_directionEv+0xac>
 1000970:	e0ffff17 	ldw	r3,-4(fp)
 1000974:	18800120 	cmpeqi	r2,r3,4
 1000978:	10000a1e 	bne	r2,zero,10009a4 <_ZN6Player13get_directionEv+0x94>
 100097c:	e0ffff17 	ldw	r3,-4(fp)
 1000980:	18800220 	cmpeqi	r2,r3,8
 1000984:	10000a1e 	bne	r2,zero,10009b0 <_ZN6Player13get_directionEv+0xa0>
 1000988:	00000c06 	br	10009bc <_ZN6Player13get_directionEv+0xac>
					case 1:
						return RIGHT;
 100098c:	00801484 	movi	r2,82
 1000990:	e0bffe15 	stw	r2,-8(fp)
 1000994:	00000b06 	br	10009c4 <_ZN6Player13get_directionEv+0xb4>
						break;
					case 2:
						return LEFT;
 1000998:	00c01304 	movi	r3,76
 100099c:	e0fffe15 	stw	r3,-8(fp)
 10009a0:	00000806 	br	10009c4 <_ZN6Player13get_directionEv+0xb4>
						break;
					case 4:
						return DOWN;
 10009a4:	00801104 	movi	r2,68
 10009a8:	e0bffe15 	stw	r2,-8(fp)
 10009ac:	00000506 	br	10009c4 <_ZN6Player13get_directionEv+0xb4>
						break;
					case 8:
						return UP;
 10009b0:	00c01544 	movi	r3,85
 10009b4:	e0fffe15 	stw	r3,-8(fp)
 10009b8:	00000206 	br	10009c4 <_ZN6Player13get_directionEv+0xb4>
						break;
						}
					}
			return STAND;
 10009bc:	008014c4 	movi	r2,83
 10009c0:	e0bffe15 	stw	r2,-8(fp)
 10009c4:	e0bffe17 	ldw	r2,-8(fp)
		}
 10009c8:	e037883a 	mov	sp,fp
 10009cc:	df000017 	ldw	fp,0(sp)
 10009d0:	dec00104 	addi	sp,sp,4
 10009d4:	f800283a 	ret

010009d8 <_ZN6PlayerC1Ev>:
 *  Contains player movement functions and variables
 */
#include "Player.h"
#include "MatrixMap.h"

	Player::Player(){//constructor creates player
 10009d8:	defffd04 	addi	sp,sp,-12
 10009dc:	dfc00215 	stw	ra,8(sp)
 10009e0:	df000115 	stw	fp,4(sp)
 10009e4:	df000104 	addi	fp,sp,4
 10009e8:	e13fff15 	stw	r4,-4(fp)

		 //initialises position and health
		 health = 3;
 10009ec:	e0ffff17 	ldw	r3,-4(fp)
 10009f0:	008000c4 	movi	r2,3
 10009f4:	18800315 	stw	r2,12(r3)
		 x_cord = 0;
 10009f8:	e0bfff17 	ldw	r2,-4(fp)
 10009fc:	10000115 	stw	zero,4(r2)
		 y_cord = 0;
 1000a00:	e0bfff17 	ldw	r2,-4(fp)
 1000a04:	10000215 	stw	zero,8(r2)

		 //initialises parallel port to read from direction from keys
		 parallel_port_dev = alt_up_parallel_port_open_dev("/dev/parallel_port_0");
 1000a08:	010041b4 	movhi	r4,262
 1000a0c:	21203a04 	addi	r4,r4,-32536
 1000a10:	10546940 	call	1054694 <alt_up_parallel_port_open_dev>
 1000a14:	1007883a 	mov	r3,r2
 1000a18:	e0bfff17 	ldw	r2,-4(fp)
 1000a1c:	10c00415 	stw	r3,16(r2)
			 if (parallel_port_dev == NULL)
 1000a20:	e0bfff17 	ldw	r2,-4(fp)
 1000a24:	10800417 	ldw	r2,16(r2)
 1000a28:	1004c03a 	cmpne	r2,r2,zero
 1000a2c:	1000041e 	bne	r2,zero,1000a40 <_ZN6PlayerC1Ev+0x68>
					printf("Error: could not open Parallel Port device\n");
 1000a30:	010041b4 	movhi	r4,262
 1000a34:	21204004 	addi	r4,r4,-32512
 1000a38:	1044c080 	call	1044c08 <puts>
 1000a3c:	00000306 	br	1000a4c <_ZN6PlayerC1Ev+0x74>
				 else
					printf("Opened Parallel Port device\n");
 1000a40:	010041b4 	movhi	r4,262
 1000a44:	21204b04 	addi	r4,r4,-32468
 1000a48:	1044c080 	call	1044c08 <puts>
	}
 1000a4c:	e037883a 	mov	sp,fp
 1000a50:	dfc00117 	ldw	ra,4(sp)
 1000a54:	df000017 	ldw	fp,0(sp)
 1000a58:	dec00204 	addi	sp,sp,8
 1000a5c:	f800283a 	ret

01000a60 <_ZN6PlayerC2Ev>:
 *  Contains player movement functions and variables
 */
#include "Player.h"
#include "MatrixMap.h"

	Player::Player(){//constructor creates player
 1000a60:	defffd04 	addi	sp,sp,-12
 1000a64:	dfc00215 	stw	ra,8(sp)
 1000a68:	df000115 	stw	fp,4(sp)
 1000a6c:	df000104 	addi	fp,sp,4
 1000a70:	e13fff15 	stw	r4,-4(fp)

		 //initialises position and health
		 health = 3;
 1000a74:	e0ffff17 	ldw	r3,-4(fp)
 1000a78:	008000c4 	movi	r2,3
 1000a7c:	18800315 	stw	r2,12(r3)
		 x_cord = 0;
 1000a80:	e0bfff17 	ldw	r2,-4(fp)
 1000a84:	10000115 	stw	zero,4(r2)
		 y_cord = 0;
 1000a88:	e0bfff17 	ldw	r2,-4(fp)
 1000a8c:	10000215 	stw	zero,8(r2)

		 //initialises parallel port to read from direction from keys
		 parallel_port_dev = alt_up_parallel_port_open_dev("/dev/parallel_port_0");
 1000a90:	010041b4 	movhi	r4,262
 1000a94:	21203a04 	addi	r4,r4,-32536
 1000a98:	10546940 	call	1054694 <alt_up_parallel_port_open_dev>
 1000a9c:	1007883a 	mov	r3,r2
 1000aa0:	e0bfff17 	ldw	r2,-4(fp)
 1000aa4:	10c00415 	stw	r3,16(r2)
			 if (parallel_port_dev == NULL)
 1000aa8:	e0bfff17 	ldw	r2,-4(fp)
 1000aac:	10800417 	ldw	r2,16(r2)
 1000ab0:	1004c03a 	cmpne	r2,r2,zero
 1000ab4:	1000041e 	bne	r2,zero,1000ac8 <_ZN6PlayerC2Ev+0x68>
					printf("Error: could not open Parallel Port device\n");
 1000ab8:	010041b4 	movhi	r4,262
 1000abc:	21204004 	addi	r4,r4,-32512
 1000ac0:	1044c080 	call	1044c08 <puts>
 1000ac4:	00000306 	br	1000ad4 <_ZN6PlayerC2Ev+0x74>
				 else
					printf("Opened Parallel Port device\n");
 1000ac8:	010041b4 	movhi	r4,262
 1000acc:	21204b04 	addi	r4,r4,-32468
 1000ad0:	1044c080 	call	1044c08 <puts>
	}
 1000ad4:	e037883a 	mov	sp,fp
 1000ad8:	dfc00117 	ldw	ra,4(sp)
 1000adc:	df000017 	ldw	fp,0(sp)
 1000ae0:	dec00204 	addi	sp,sp,8
 1000ae4:	f800283a 	ret

01000ae8 <_ZN10VGA_Screen16init_char_bufferEv>:
	alt_up_pixel_buffer_dma_dev* pixel_buffer_temp =
			alt_up_pixel_buffer_dma_open_dev("/dev/buffer_dma");
	return pixel_buffer_temp;
}

alt_up_char_buffer_dev* VGA_Screen::init_char_buffer() {
 1000ae8:	defffc04 	addi	sp,sp,-16
 1000aec:	dfc00315 	stw	ra,12(sp)
 1000af0:	df000215 	stw	fp,8(sp)
 1000af4:	df000204 	addi	fp,sp,8
 1000af8:	e13fff15 	stw	r4,-4(fp)
	printf("Initializing Char Buffer \n");
 1000afc:	010041b4 	movhi	r4,262
 1000b00:	21205204 	addi	r4,r4,-32440
 1000b04:	1044c080 	call	1044c08 <puts>
	alt_up_char_buffer_dev* char_buffer;
	char_buffer = alt_up_char_buffer_open_dev(
			"/dev/video_character_buffer_with_dma_0");
 1000b08:	010041b4 	movhi	r4,262
 1000b0c:	21205904 	addi	r4,r4,-32412
 1000b10:	10547580 	call	1054758 <alt_up_char_buffer_open_dev>
 1000b14:	e0bffe15 	stw	r2,-8(fp)
	alt_up_char_buffer_init(char_buffer);
 1000b18:	e13ffe17 	ldw	r4,-8(fp)
 1000b1c:	10546d40 	call	10546d4 <alt_up_char_buffer_init>
	return char_buffer;
 1000b20:	e0bffe17 	ldw	r2,-8(fp)

}
 1000b24:	e037883a 	mov	sp,fp
 1000b28:	dfc00117 	ldw	ra,4(sp)
 1000b2c:	df000017 	ldw	fp,0(sp)
 1000b30:	dec00204 	addi	sp,sp,8
 1000b34:	f800283a 	ret

01000b38 <_ZN10VGA_Screen17init_pixel_bufferEv>:
	alt_up_pixel_buffer_dma_clear_screen(pixel_buffer, 0);

}

//Private Methods. Does not need to be changed, called by the init() function
alt_up_pixel_buffer_dma_dev* VGA_Screen::init_pixel_buffer() {
 1000b38:	defffc04 	addi	sp,sp,-16
 1000b3c:	dfc00315 	stw	ra,12(sp)
 1000b40:	df000215 	stw	fp,8(sp)
 1000b44:	df000204 	addi	fp,sp,8
 1000b48:	e13fff15 	stw	r4,-4(fp)
	printf("Initializing Pixel Buffer \n");
 1000b4c:	010041b4 	movhi	r4,262
 1000b50:	21206304 	addi	r4,r4,-32372
 1000b54:	1044c080 	call	1044c08 <puts>
	alt_up_pixel_buffer_dma_dev* pixel_buffer_temp =
			alt_up_pixel_buffer_dma_open_dev("/dev/buffer_dma");
 1000b58:	010041b4 	movhi	r4,262
 1000b5c:	21206a04 	addi	r4,r4,-32344
 1000b60:	10549d80 	call	10549d8 <alt_up_pixel_buffer_dma_open_dev>
 1000b64:	e0bffe15 	stw	r2,-8(fp)
	return pixel_buffer_temp;
 1000b68:	e0bffe17 	ldw	r2,-8(fp)
}
 1000b6c:	e037883a 	mov	sp,fp
 1000b70:	dfc00117 	ldw	ra,4(sp)
 1000b74:	df000017 	ldw	fp,0(sp)
 1000b78:	dec00204 	addi	sp,sp,8
 1000b7c:	f800283a 	ret

01000b80 <_ZN10VGA_ScreenC1Ev>:
#define i_block_color 0xFF8F
#define player_color 0x0000


// Constructor
VGA_Screen::VGA_Screen() {
 1000b80:	defffd04 	addi	sp,sp,-12
 1000b84:	dfc00215 	stw	ra,8(sp)
 1000b88:	df000115 	stw	fp,4(sp)
 1000b8c:	df000104 	addi	fp,sp,4
 1000b90:	e13fff15 	stw	r4,-4(fp)
	printf("Constructing VGA Screen \n");
 1000b94:	010041b4 	movhi	r4,262
 1000b98:	21206e04 	addi	r4,r4,-32328
 1000b9c:	1044c080 	call	1044c08 <puts>
	this->pixel_buffer = init_pixel_buffer();
 1000ba0:	e13fff17 	ldw	r4,-4(fp)
 1000ba4:	1000b380 	call	1000b38 <_ZN10VGA_Screen17init_pixel_bufferEv>
 1000ba8:	1007883a 	mov	r3,r2
 1000bac:	e0bfff17 	ldw	r2,-4(fp)
 1000bb0:	10c00015 	stw	r3,0(r2)
	this->char_buffer = init_char_buffer();
 1000bb4:	e13fff17 	ldw	r4,-4(fp)
 1000bb8:	1000ae80 	call	1000ae8 <_ZN10VGA_Screen16init_char_bufferEv>
 1000bbc:	1007883a 	mov	r3,r2
 1000bc0:	e0bfff17 	ldw	r2,-4(fp)
 1000bc4:	10c00115 	stw	r3,4(r2)
}
 1000bc8:	e037883a 	mov	sp,fp
 1000bcc:	dfc00117 	ldw	ra,4(sp)
 1000bd0:	df000017 	ldw	fp,0(sp)
 1000bd4:	dec00204 	addi	sp,sp,8
 1000bd8:	f800283a 	ret

01000bdc <_ZN10VGA_ScreenC2Ev>:
#define i_block_color 0xFF8F
#define player_color 0x0000


// Constructor
VGA_Screen::VGA_Screen() {
 1000bdc:	defffd04 	addi	sp,sp,-12
 1000be0:	dfc00215 	stw	ra,8(sp)
 1000be4:	df000115 	stw	fp,4(sp)
 1000be8:	df000104 	addi	fp,sp,4
 1000bec:	e13fff15 	stw	r4,-4(fp)
	printf("Constructing VGA Screen \n");
 1000bf0:	010041b4 	movhi	r4,262
 1000bf4:	21206e04 	addi	r4,r4,-32328
 1000bf8:	1044c080 	call	1044c08 <puts>
	this->pixel_buffer = init_pixel_buffer();
 1000bfc:	e13fff17 	ldw	r4,-4(fp)
 1000c00:	1000b380 	call	1000b38 <_ZN10VGA_Screen17init_pixel_bufferEv>
 1000c04:	1007883a 	mov	r3,r2
 1000c08:	e0bfff17 	ldw	r2,-4(fp)
 1000c0c:	10c00015 	stw	r3,0(r2)
	this->char_buffer = init_char_buffer();
 1000c10:	e13fff17 	ldw	r4,-4(fp)
 1000c14:	1000ae80 	call	1000ae8 <_ZN10VGA_Screen16init_char_bufferEv>
 1000c18:	1007883a 	mov	r3,r2
 1000c1c:	e0bfff17 	ldw	r2,-4(fp)
 1000c20:	10c00115 	stw	r3,4(r2)
}
 1000c24:	e037883a 	mov	sp,fp
 1000c28:	dfc00117 	ldw	ra,4(sp)
 1000c2c:	df000017 	ldw	fp,0(sp)
 1000c30:	dec00204 	addi	sp,sp,8
 1000c34:	f800283a 	ret

01000c38 <_ZN10VGA_Screen12clear_screenEP27alt_up_pixel_buffer_dma_dev>:
	while (IORD_32DIRECT(drawer_base,20) == 0)
		; // wait until done
}

// Clears screen. Can't clear characters, needs to be checked out
void VGA_Screen::clear_screen(alt_up_pixel_buffer_dma_dev* pixel_buffer) {
 1000c38:	defffc04 	addi	sp,sp,-16
 1000c3c:	dfc00315 	stw	ra,12(sp)
 1000c40:	df000215 	stw	fp,8(sp)
 1000c44:	df000204 	addi	fp,sp,8
 1000c48:	e13ffe15 	stw	r4,-8(fp)
 1000c4c:	e17fff15 	stw	r5,-4(fp)
	printf("Clearing Screen \n");
 1000c50:	010041b4 	movhi	r4,262
 1000c54:	21207504 	addi	r4,r4,-32300
 1000c58:	1044c080 	call	1044c08 <puts>
	alt_up_pixel_buffer_dma_clear_screen(pixel_buffer, 0);
 1000c5c:	e13fff17 	ldw	r4,-4(fp)
 1000c60:	000b883a 	mov	r5,zero
 1000c64:	1054ca80 	call	1054ca8 <alt_up_pixel_buffer_dma_clear_screen>

}
 1000c68:	e037883a 	mov	sp,fp
 1000c6c:	dfc00117 	ldw	ra,4(sp)
 1000c70:	df000017 	ldw	fp,0(sp)
 1000c74:	dec00204 	addi	sp,sp,8
 1000c78:	f800283a 	ret

01000c7c <_ZN10VGA_Screen12paint_screenEP27alt_up_pixel_buffer_dma_dev>:
	while (IORD_32DIRECT(drawer_base,20) == 0)
		; // wait until done
}

// paints screen black, you can change color in coding
void VGA_Screen::paint_screen(alt_up_pixel_buffer_dma_dev* pixel_buffer) {
 1000c7c:	defffc04 	addi	sp,sp,-16
 1000c80:	dfc00315 	stw	ra,12(sp)
 1000c84:	df000215 	stw	fp,8(sp)
 1000c88:	df000204 	addi	fp,sp,8
 1000c8c:	e13ffe15 	stw	r4,-8(fp)
 1000c90:	e17fff15 	stw	r5,-4(fp)
	printf("Painting Screen White \n");
 1000c94:	010041b4 	movhi	r4,262
 1000c98:	21207a04 	addi	r4,r4,-32280
 1000c9c:	1044c080 	call	1044c08 <puts>
	IOWR_32DIRECT(drawer_base, 0, 0);
 1000ca0:	00884004 	movi	r2,8448
 1000ca4:	10000035 	stwio	zero,0(r2)
	// Set x1
	IOWR_32DIRECT(drawer_base, 4, 0);
 1000ca8:	00884104 	movi	r2,8452
 1000cac:	10000035 	stwio	zero,0(r2)
	// Set y1
	IOWR_32DIRECT(drawer_base, 8, 320);
 1000cb0:	00c84204 	movi	r3,8456
 1000cb4:	00805004 	movi	r2,320
 1000cb8:	18800035 	stwio	r2,0(r3)
	// Set x2
	IOWR_32DIRECT(drawer_base, 12, 240);
 1000cbc:	00c84304 	movi	r3,8460
 1000cc0:	00803c04 	movi	r2,240
 1000cc4:	18800035 	stwio	r2,0(r3)
	// Set y2
	IOWR_32DIRECT(drawer_base, 16, 0x0000);
 1000cc8:	00884404 	movi	r2,8464
 1000ccc:	10000035 	stwio	zero,0(r2)
	// Set colour
	IOWR_32DIRECT(drawer_base, 20, 1);
 1000cd0:	00c84504 	movi	r3,8468
 1000cd4:	00800044 	movi	r2,1
 1000cd8:	18800035 	stwio	r2,0(r3)
	// Start drawing
	while (IORD_32DIRECT(drawer_base,20) == 0)
 1000cdc:	00884504 	movi	r2,8468
 1000ce0:	10800037 	ldwio	r2,0(r2)
 1000ce4:	1005003a 	cmpeq	r2,r2,zero
 1000ce8:	10803fcc 	andi	r2,r2,255
 1000cec:	1004c03a 	cmpne	r2,r2,zero
 1000cf0:	103ffa1e 	bne	r2,zero,1000cdc <_ZN10VGA_Screen12paint_screenEP27alt_up_pixel_buffer_dma_dev+0x60>
		; // wait until done
}
 1000cf4:	e037883a 	mov	sp,fp
 1000cf8:	dfc00117 	ldw	ra,4(sp)
 1000cfc:	df000017 	ldw	fp,0(sp)
 1000d00:	dec00204 	addi	sp,sp,8
 1000d04:	f800283a 	ret

01000d08 <_ZN10VGA_Screen10draw_boxesEP27alt_up_pixel_buffer_dma_deviiiii>:
	alt_up_pixel_buffer_dma_draw_line(pixel_buffer, 0, 0, 320, 240, 0x00ff, 0);
}

//
void VGA_Screen::draw_boxes(alt_up_pixel_buffer_dma_dev* pixel_buffer, int x_0,
		int x_1, int y_0, int y_1, int color) {
 1000d08:	defffa04 	addi	sp,sp,-24
 1000d0c:	dfc00515 	stw	ra,20(sp)
 1000d10:	df000415 	stw	fp,16(sp)
 1000d14:	df000404 	addi	fp,sp,16
 1000d18:	e13ffc15 	stw	r4,-16(fp)
 1000d1c:	e17ffd15 	stw	r5,-12(fp)
 1000d20:	e1bffe15 	stw	r6,-8(fp)
 1000d24:	e1ffff15 	stw	r7,-4(fp)
	printf("Drawing Box \n");
 1000d28:	010041b4 	movhi	r4,262
 1000d2c:	21208004 	addi	r4,r4,-32256
 1000d30:	1044c080 	call	1044c08 <puts>
	IOWR_32DIRECT(drawer_base, 0, x_0);
 1000d34:	00c84004 	movi	r3,8448
 1000d38:	e0bffe17 	ldw	r2,-8(fp)
 1000d3c:	18800035 	stwio	r2,0(r3)
	// Set x1
	IOWR_32DIRECT(drawer_base, 4, y_0);
 1000d40:	00c84104 	movi	r3,8452
 1000d44:	e0800217 	ldw	r2,8(fp)
 1000d48:	18800035 	stwio	r2,0(r3)
	// Set y1
	IOWR_32DIRECT(drawer_base, 8, x_1);
 1000d4c:	00c84204 	movi	r3,8456
 1000d50:	e0bfff17 	ldw	r2,-4(fp)
 1000d54:	18800035 	stwio	r2,0(r3)
	// Set x2
	IOWR_32DIRECT(drawer_base, 12, y_1);
 1000d58:	00c84304 	movi	r3,8460
 1000d5c:	e0800317 	ldw	r2,12(fp)
 1000d60:	18800035 	stwio	r2,0(r3)
	// Set y2
	IOWR_32DIRECT(drawer_base, 16, color);
 1000d64:	00c84404 	movi	r3,8464
 1000d68:	e0800417 	ldw	r2,16(fp)
 1000d6c:	18800035 	stwio	r2,0(r3)
	// Set colour
	IOWR_32DIRECT(drawer_base, 20, 1);
 1000d70:	00c84504 	movi	r3,8468
 1000d74:	00800044 	movi	r2,1
 1000d78:	18800035 	stwio	r2,0(r3)
	// Start drawing
	while (IORD_32DIRECT(drawer_base,20) == 0)
 1000d7c:	00884504 	movi	r2,8468
 1000d80:	10800037 	ldwio	r2,0(r2)
 1000d84:	1005003a 	cmpeq	r2,r2,zero
 1000d88:	10803fcc 	andi	r2,r2,255
 1000d8c:	1004c03a 	cmpne	r2,r2,zero
 1000d90:	103ffa1e 	bne	r2,zero,1000d7c <_ZN10VGA_Screen10draw_boxesEP27alt_up_pixel_buffer_dma_deviiiii+0x74>
		; // wait until done
}
 1000d94:	e037883a 	mov	sp,fp
 1000d98:	dfc00117 	ldw	ra,4(sp)
 1000d9c:	df000017 	ldw	fp,0(sp)
 1000da0:	dec00204 	addi	sp,sp,8
 1000da4:	f800283a 	ret

01000da8 <_ZN10VGA_Screen24draw_box_from_coordinateEiic>:
		}
	}
}

// Drawing 20x20 box: takes in top left coordinate of box
void VGA_Screen::draw_box_from_coordinate(int x, int y, char c){
 1000da8:	defff404 	addi	sp,sp,-48
 1000dac:	dfc00b15 	stw	ra,44(sp)
 1000db0:	df000a15 	stw	fp,40(sp)
 1000db4:	df000a04 	addi	fp,sp,40
 1000db8:	e13ffc15 	stw	r4,-16(fp)
 1000dbc:	e17ffd15 	stw	r5,-12(fp)
 1000dc0:	e1bffe15 	stw	r6,-8(fp)
 1000dc4:	e1ffff05 	stb	r7,-4(fp)
	int x_scaled = x*20 + 50;
 1000dc8:	e13ffd17 	ldw	r4,-12(fp)
 1000dcc:	01400504 	movi	r5,20
 1000dd0:	10418a80 	call	10418a8 <__mulsi3>
 1000dd4:	10800c84 	addi	r2,r2,50
 1000dd8:	e0bffb15 	stw	r2,-20(fp)
	int y_scaled = y*20 + 10;
 1000ddc:	e13ffe17 	ldw	r4,-8(fp)
 1000de0:	01400504 	movi	r5,20
 1000de4:	10418a80 	call	10418a8 <__mulsi3>
 1000de8:	10800284 	addi	r2,r2,10
 1000dec:	e0bffa15 	stw	r2,-24(fp)
	int color;
	if (c == 'o'){
 1000df0:	e0bfff07 	ldb	r2,-4(fp)
 1000df4:	10801bd8 	cmpnei	r2,r2,111
 1000df8:	1000031e 	bne	r2,zero,1000e08 <_ZN10VGA_Screen24draw_box_from_coordinateEiic+0x60>
		color = i_block_color;
 1000dfc:	00bfe3d4 	movui	r2,65423
 1000e00:	e0bff915 	stw	r2,-28(fp)
 1000e04:	00001006 	br	1000e48 <_ZN10VGA_Screen24draw_box_from_coordinateEiic+0xa0>
	}
	else if(c == 'x') {
 1000e08:	e0bfff07 	ldb	r2,-4(fp)
 1000e0c:	10801e18 	cmpnei	r2,r2,120
 1000e10:	1000041e 	bne	r2,zero,1000e24 <_ZN10VGA_Screen24draw_box_from_coordinateEiic+0x7c>
		color = path_color;
 1000e14:	00803ff4 	movhi	r2,255
 1000e18:	10914004 	addi	r2,r2,17664
 1000e1c:	e0bff915 	stw	r2,-28(fp)
 1000e20:	00000906 	br	1000e48 <_ZN10VGA_Screen24draw_box_from_coordinateEiic+0xa0>
	}
	else if(c == 'p'){
 1000e24:	e0bfff07 	ldb	r2,-4(fp)
 1000e28:	10801c18 	cmpnei	r2,r2,112
 1000e2c:	1000021e 	bne	r2,zero,1000e38 <_ZN10VGA_Screen24draw_box_from_coordinateEiic+0x90>
		color = player_color;
 1000e30:	e03ff915 	stw	zero,-28(fp)
 1000e34:	00000406 	br	1000e48 <_ZN10VGA_Screen24draw_box_from_coordinateEiic+0xa0>
	}
	else{
		printf("check your character array, something is wrong");
 1000e38:	010041b4 	movhi	r4,262
 1000e3c:	21208404 	addi	r4,r4,-32240
 1000e40:	10448e00 	call	10448e0 <printf>
		return;
 1000e44:	00000e06 	br	1000e80 <_ZN10VGA_Screen24draw_box_from_coordinateEiic+0xd8>
	}
	this->draw_boxes(this->pixel_buffer, x_scaled, x_scaled+20, y_scaled, y_scaled+20, color);
 1000e48:	e0bffc17 	ldw	r2,-16(fp)
 1000e4c:	11400017 	ldw	r5,0(r2)
 1000e50:	e0bffb17 	ldw	r2,-20(fp)
 1000e54:	11c00504 	addi	r7,r2,20
 1000e58:	e0bffa17 	ldw	r2,-24(fp)
 1000e5c:	10c00504 	addi	r3,r2,20
 1000e60:	e0bffa17 	ldw	r2,-24(fp)
 1000e64:	d8800015 	stw	r2,0(sp)
 1000e68:	d8c00115 	stw	r3,4(sp)
 1000e6c:	e0bff917 	ldw	r2,-28(fp)
 1000e70:	d8800215 	stw	r2,8(sp)
 1000e74:	e13ffc17 	ldw	r4,-16(fp)
 1000e78:	e1bffb17 	ldw	r6,-20(fp)
 1000e7c:	1000d080 	call	1000d08 <_ZN10VGA_Screen10draw_boxesEP27alt_up_pixel_buffer_dma_deviiiii>
}
 1000e80:	e037883a 	mov	sp,fp
 1000e84:	dfc00117 	ldw	ra,4(sp)
 1000e88:	df000017 	ldw	fp,0(sp)
 1000e8c:	dec00204 	addi	sp,sp,8
 1000e90:	f800283a 	ret

01000e94 <_ZN10VGA_Screen23erase_and_redraw_playerEiiii>:


void VGA_Screen::erase_and_redraw_player(int old_x, int old_y, int new_x, int new_y){
 1000e94:	defffa04 	addi	sp,sp,-24
 1000e98:	dfc00515 	stw	ra,20(sp)
 1000e9c:	df000415 	stw	fp,16(sp)
 1000ea0:	df000404 	addi	fp,sp,16
 1000ea4:	e13ffc15 	stw	r4,-16(fp)
 1000ea8:	e17ffd15 	stw	r5,-12(fp)
 1000eac:	e1bffe15 	stw	r6,-8(fp)
 1000eb0:	e1ffff15 	stw	r7,-4(fp)
	this->draw_box_from_coordinate(old_x, old_y, 'x');
 1000eb4:	e13ffc17 	ldw	r4,-16(fp)
 1000eb8:	e17ffd17 	ldw	r5,-12(fp)
 1000ebc:	e1bffe17 	ldw	r6,-8(fp)
 1000ec0:	01c01e04 	movi	r7,120
 1000ec4:	1000da80 	call	1000da8 <_ZN10VGA_Screen24draw_box_from_coordinateEiic>
	this->draw_box_from_coordinate(new_x, new_y, 'p');
 1000ec8:	e13ffc17 	ldw	r4,-16(fp)
 1000ecc:	e17fff17 	ldw	r5,-4(fp)
 1000ed0:	e1800217 	ldw	r6,8(fp)
 1000ed4:	01c01c04 	movi	r7,112
 1000ed8:	1000da80 	call	1000da8 <_ZN10VGA_Screen24draw_box_from_coordinateEiic>
}
 1000edc:	e037883a 	mov	sp,fp
 1000ee0:	dfc00117 	ldw	ra,4(sp)
 1000ee4:	df000017 	ldw	fp,0(sp)
 1000ee8:	dec00204 	addi	sp,sp,8
 1000eec:	f800283a 	ret

01000ef0 <_ZN10VGA_Screen19draw_map_from_arrayER9MatrixMap>:
}

//high level drawing stuff

//taking in array
void VGA_Screen::draw_map_from_array(MatrixMap& m_map) {
 1000ef0:	defff804 	addi	sp,sp,-32
 1000ef4:	dfc00715 	stw	ra,28(sp)
 1000ef8:	df000615 	stw	fp,24(sp)
 1000efc:	dc400515 	stw	r17,20(sp)
 1000f00:	dc000415 	stw	r16,16(sp)
 1000f04:	df000404 	addi	fp,sp,16
 1000f08:	e13ffe15 	stw	r4,-8(fp)
 1000f0c:	e17fff15 	stw	r5,-4(fp)
	for (int i = 0; i < 11; i++) {
 1000f10:	e03ffd15 	stw	zero,-12(fp)
 1000f14:	00001a06 	br	1000f80 <_ZN10VGA_Screen19draw_map_from_arrayER9MatrixMap+0x90>
		for (int j = 0; j < 11; j++) {
 1000f18:	e03ffc15 	stw	zero,-16(fp)
 1000f1c:	00001206 	br	1000f68 <_ZN10VGA_Screen19draw_map_from_arrayER9MatrixMap+0x78>
			this->draw_box_from_coordinate(i,j,m_map.map[i][j]);
 1000f20:	e13ffd17 	ldw	r4,-12(fp)
 1000f24:	e47ffc17 	ldw	r17,-16(fp)
 1000f28:	e43fff17 	ldw	r16,-4(fp)
 1000f2c:	014002c4 	movi	r5,11
 1000f30:	10418a80 	call	10418a8 <__mulsi3>
 1000f34:	1405883a 	add	r2,r2,r16
 1000f38:	1445883a 	add	r2,r2,r17
 1000f3c:	10800003 	ldbu	r2,0(r2)
 1000f40:	11c03fcc 	andi	r7,r2,255
 1000f44:	39c0201c 	xori	r7,r7,128
 1000f48:	39ffe004 	addi	r7,r7,-128
 1000f4c:	e13ffe17 	ldw	r4,-8(fp)
 1000f50:	e17ffd17 	ldw	r5,-12(fp)
 1000f54:	e1bffc17 	ldw	r6,-16(fp)
 1000f58:	1000da80 	call	1000da8 <_ZN10VGA_Screen24draw_box_from_coordinateEiic>
//high level drawing stuff

//taking in array
void VGA_Screen::draw_map_from_array(MatrixMap& m_map) {
	for (int i = 0; i < 11; i++) {
		for (int j = 0; j < 11; j++) {
 1000f5c:	e0bffc17 	ldw	r2,-16(fp)
 1000f60:	10800044 	addi	r2,r2,1
 1000f64:	e0bffc15 	stw	r2,-16(fp)
 1000f68:	e0bffc17 	ldw	r2,-16(fp)
 1000f6c:	108002d0 	cmplti	r2,r2,11
 1000f70:	103feb1e 	bne	r2,zero,1000f20 <_ZN10VGA_Screen19draw_map_from_arrayER9MatrixMap+0x30>

//high level drawing stuff

//taking in array
void VGA_Screen::draw_map_from_array(MatrixMap& m_map) {
	for (int i = 0; i < 11; i++) {
 1000f74:	e0bffd17 	ldw	r2,-12(fp)
 1000f78:	10800044 	addi	r2,r2,1
 1000f7c:	e0bffd15 	stw	r2,-12(fp)
 1000f80:	e0bffd17 	ldw	r2,-12(fp)
 1000f84:	108002d0 	cmplti	r2,r2,11
 1000f88:	103fe31e 	bne	r2,zero,1000f18 <_ZN10VGA_Screen19draw_map_from_arrayER9MatrixMap+0x28>
		for (int j = 0; j < 11; j++) {
			this->draw_box_from_coordinate(i,j,m_map.map[i][j]);
		}
	}
}
 1000f8c:	e037883a 	mov	sp,fp
 1000f90:	dfc00317 	ldw	ra,12(sp)
 1000f94:	df000217 	ldw	fp,8(sp)
 1000f98:	dc400117 	ldw	r17,4(sp)
 1000f9c:	dc000017 	ldw	r16,0(sp)
 1000fa0:	dec00404 	addi	sp,sp,16
 1000fa4:	f800283a 	ret

01000fa8 <_ZN10VGA_Screen18draw_diagonal_lineEP27alt_up_pixel_buffer_dma_dev>:
	alt_up_char_buffer_string(char_buffer, "Swag", 10, 120);
	alt_up_char_buffer_string(char_buffer, "Swag", 310, 120);
}

// Not sure if this will be useful or not, but kept it anyways
void VGA_Screen::draw_diagonal_line(alt_up_pixel_buffer_dma_dev* pixel_buffer) {
 1000fa8:	defff904 	addi	sp,sp,-28
 1000fac:	dfc00615 	stw	ra,24(sp)
 1000fb0:	df000515 	stw	fp,20(sp)
 1000fb4:	df000504 	addi	fp,sp,20
 1000fb8:	e13ffe15 	stw	r4,-8(fp)
 1000fbc:	e17fff15 	stw	r5,-4(fp)
	printf("Drawing Diagonal Line \n");
 1000fc0:	010041b4 	movhi	r4,262
 1000fc4:	21209004 	addi	r4,r4,-32192
 1000fc8:	1044c080 	call	1044c08 <puts>
	alt_up_pixel_buffer_dma_draw_line(pixel_buffer, 0, 0, 320, 240, 0x00ff, 0);
 1000fcc:	00803c04 	movi	r2,240
 1000fd0:	d8800015 	stw	r2,0(sp)
 1000fd4:	00803fc4 	movi	r2,255
 1000fd8:	d8800115 	stw	r2,4(sp)
 1000fdc:	d8000215 	stw	zero,8(sp)
 1000fe0:	e13fff17 	ldw	r4,-4(fp)
 1000fe4:	000b883a 	mov	r5,zero
 1000fe8:	000d883a 	mov	r6,zero
 1000fec:	01c05004 	movi	r7,320
 1000ff0:	1055bdc0 	call	1055bdc <alt_up_pixel_buffer_dma_draw_line>
}
 1000ff4:	e037883a 	mov	sp,fp
 1000ff8:	dfc00117 	ldw	ra,4(sp)
 1000ffc:	df000017 	ldw	fp,0(sp)
 1001000:	dec00204 	addi	sp,sp,8
 1001004:	f800283a 	ret

01001008 <_ZN10VGA_Screen14draw_characterEP22alt_up_char_buffer_dev>:


}

// TODO Draw a character, needs to take in input
void VGA_Screen::draw_character(alt_up_char_buffer_dev* char_buffer) {
 1001008:	defffc04 	addi	sp,sp,-16
 100100c:	dfc00315 	stw	ra,12(sp)
 1001010:	df000215 	stw	fp,8(sp)
 1001014:	df000204 	addi	fp,sp,8
 1001018:	e13ffe15 	stw	r4,-8(fp)
 100101c:	e17fff15 	stw	r5,-4(fp)
	printf("Drawing Character \n");
 1001020:	010041b4 	movhi	r4,262
 1001024:	21209604 	addi	r4,r4,-32168
 1001028:	1044c080 	call	1044c08 <puts>
	alt_up_char_buffer_string(char_buffer, "Swag", 10, 120);
 100102c:	e13fff17 	ldw	r4,-4(fp)
 1001030:	014041b4 	movhi	r5,262
 1001034:	29609b04 	addi	r5,r5,-32148
 1001038:	01800284 	movi	r6,10
 100103c:	01c01e04 	movi	r7,120
 1001040:	10548680 	call	1054868 <alt_up_char_buffer_string>
	alt_up_char_buffer_string(char_buffer, "Swag", 310, 120);
 1001044:	e13fff17 	ldw	r4,-4(fp)
 1001048:	014041b4 	movhi	r5,262
 100104c:	29609b04 	addi	r5,r5,-32148
 1001050:	01804d84 	movi	r6,310
 1001054:	01c01e04 	movi	r7,120
 1001058:	10548680 	call	1054868 <alt_up_char_buffer_string>
}
 100105c:	e037883a 	mov	sp,fp
 1001060:	dfc00117 	ldw	ra,4(sp)
 1001064:	df000017 	ldw	fp,0(sp)
 1001068:	dec00204 	addi	sp,sp,8
 100106c:	f800283a 	ret

01001070 <_ZN10VGA_Screen4initEv>:
	this->pixel_buffer = init_pixel_buffer();
	this->char_buffer = init_char_buffer();
}

// Make sure you call this when creating a VGA_Screen object
void VGA_Screen::init() {
 1001070:	defffd04 	addi	sp,sp,-12
 1001074:	dfc00215 	stw	ra,8(sp)
 1001078:	df000115 	stw	fp,4(sp)
 100107c:	df000104 	addi	fp,sp,4
 1001080:	e13fff15 	stw	r4,-4(fp)
	// Init Screen
	printf("Initializing VGA Screen \n");
 1001084:	010041b4 	movhi	r4,262
 1001088:	21209d04 	addi	r4,r4,-32140
 100108c:	1044c080 	call	1044c08 <puts>
	if (this->pixel_buffer == 0) {
 1001090:	e0bfff17 	ldw	r2,-4(fp)
 1001094:	10800017 	ldw	r2,0(r2)
 1001098:	1004c03a 	cmpne	r2,r2,zero
 100109c:	1000041e 	bne	r2,zero,10010b0 <_ZN10VGA_Screen4initEv+0x40>
		printf(
				"error initializing pixel buffer (check name in alt_up_pixel_buffer_dma_open_dev)\n");
 10010a0:	010041b4 	movhi	r4,262
 10010a4:	2120a404 	addi	r4,r4,-32112
 10010a8:	1044c080 	call	1044c08 <puts>
		return;
 10010ac:	00001206 	br	10010f8 <_ZN10VGA_Screen4initEv+0x88>
	}
	alt_up_pixel_buffer_dma_change_back_buffer_address(pixel_buffer,
			PIXEL_BUFFER_BASE);
 10010b0:	e0bfff17 	ldw	r2,-4(fp)
 10010b4:	11000017 	ldw	r4,0(r2)
 10010b8:	01400234 	movhi	r5,8
 10010bc:	1054bc40 	call	1054bc4 <alt_up_pixel_buffer_dma_change_back_buffer_address>
	alt_up_pixel_buffer_dma_swap_buffers(pixel_buffer);
 10010c0:	e0bfff17 	ldw	r2,-4(fp)
 10010c4:	11000017 	ldw	r4,0(r2)
 10010c8:	1054c1c0 	call	1054c1c <alt_up_pixel_buffer_dma_swap_buffers>
	while (alt_up_pixel_buffer_dma_check_swap_buffers_status(pixel_buffer))
 10010cc:	e0bfff17 	ldw	r2,-4(fp)
 10010d0:	11000017 	ldw	r4,0(r2)
 10010d4:	1054c740 	call	1054c74 <alt_up_pixel_buffer_dma_check_swap_buffers_status>
 10010d8:	1004c03a 	cmpne	r2,r2,zero
 10010dc:	10803fcc 	andi	r2,r2,255
 10010e0:	1004c03a 	cmpne	r2,r2,zero
 10010e4:	103ff91e 	bne	r2,zero,10010cc <_ZN10VGA_Screen4initEv+0x5c>
		;
	alt_up_pixel_buffer_dma_clear_screen(pixel_buffer, 0);
 10010e8:	e0bfff17 	ldw	r2,-4(fp)
 10010ec:	11000017 	ldw	r4,0(r2)
 10010f0:	000b883a 	mov	r5,zero
 10010f4:	1054ca80 	call	1054ca8 <alt_up_pixel_buffer_dma_clear_screen>


}
 10010f8:	e037883a 	mov	sp,fp
 10010fc:	dfc00117 	ldw	ra,4(sp)
 1001100:	df000017 	ldw	fp,0(sp)
 1001104:	dec00204 	addi	sp,sp,8
 1001108:	f800283a 	ret

0100110c <_Z41__static_initialization_and_destruction_0ii>:
	vga_screen.erase_and_redraw_player(0,1, 0,2);
	usleep(100000);
	vga_screen.erase_and_redraw_player(0,2, 0,3);

	return 0;
}
 100110c:	defffc04 	addi	sp,sp,-16
 1001110:	dfc00315 	stw	ra,12(sp)
 1001114:	df000215 	stw	fp,8(sp)
 1001118:	df000204 	addi	fp,sp,8
 100111c:	e13ffe15 	stw	r4,-8(fp)
 1001120:	e17fff15 	stw	r5,-4(fp)
 1001124:	e0bffe17 	ldw	r2,-8(fp)
 1001128:	10800058 	cmpnei	r2,r2,1
 100112c:	1000051e 	bne	r2,zero,1001144 <_Z41__static_initialization_and_destruction_0ii+0x38>
 1001130:	e0ffff17 	ldw	r3,-4(fp)
 1001134:	00bfffd4 	movui	r2,65535
 1001138:	1880021e 	bne	r3,r2,1001144 <_Z41__static_initialization_and_destruction_0ii+0x38>
 100113c:	d127c244 	addi	r4,gp,-24823
 1001140:	100197c0 	call	100197c <_ZNSt8ios_base4InitC1Ev>
 1001144:	e0bffe17 	ldw	r2,-8(fp)
 1001148:	1004c03a 	cmpne	r2,r2,zero
 100114c:	1000051e 	bne	r2,zero,1001164 <_Z41__static_initialization_and_destruction_0ii+0x58>
 1001150:	e0ffff17 	ldw	r3,-4(fp)
 1001154:	00bfffd4 	movui	r2,65535
 1001158:	1880021e 	bne	r3,r2,1001164 <_Z41__static_initialization_and_destruction_0ii+0x58>
 100115c:	d127c244 	addi	r4,gp,-24823
 1001160:	10012d00 	call	10012d0 <_ZNSt8ios_base4InitD1Ev>
 1001164:	e037883a 	mov	sp,fp
 1001168:	dfc00117 	ldw	ra,4(sp)
 100116c:	df000017 	ldw	fp,0(sp)
 1001170:	dec00204 	addi	sp,sp,8
 1001174:	f800283a 	ret

01001178 <_GLOBAL__D_main>:
 1001178:	defffe04 	addi	sp,sp,-8
 100117c:	dfc00115 	stw	ra,4(sp)
 1001180:	df000015 	stw	fp,0(sp)
 1001184:	d839883a 	mov	fp,sp
 1001188:	0009883a 	mov	r4,zero
 100118c:	017fffd4 	movui	r5,65535
 1001190:	100110c0 	call	100110c <_Z41__static_initialization_and_destruction_0ii>
 1001194:	e037883a 	mov	sp,fp
 1001198:	dfc00117 	ldw	ra,4(sp)
 100119c:	df000017 	ldw	fp,0(sp)
 10011a0:	dec00204 	addi	sp,sp,8
 10011a4:	f800283a 	ret

010011a8 <_GLOBAL__I_main>:
	usleep(100000);
	vga_screen.erase_and_redraw_player(0,2, 0,3);

	return 0;
}
 10011a8:	defffe04 	addi	sp,sp,-8
 10011ac:	dfc00115 	stw	ra,4(sp)
 10011b0:	df000015 	stw	fp,0(sp)
 10011b4:	d839883a 	mov	fp,sp
 10011b8:	01000044 	movi	r4,1
 10011bc:	017fffd4 	movui	r5,65535
 10011c0:	100110c0 	call	100110c <_Z41__static_initialization_and_destruction_0ii>
 10011c4:	e037883a 	mov	sp,fp
 10011c8:	dfc00117 	ldw	ra,4(sp)
 10011cc:	df000017 	ldw	fp,0(sp)
 10011d0:	dec00204 	addi	sp,sp,8
 10011d4:	f800283a 	ret

010011d8 <main>:
#include "MatrixMap.h"
#include "unistd.h"
#include "sys/alt_timestamp.h"
#include <iostream>

int main() {
 10011d8:	deffd704 	addi	sp,sp,-164
 10011dc:	dfc02815 	stw	ra,160(sp)
 10011e0:	df002715 	stw	fp,156(sp)
 10011e4:	df002704 	addi	fp,sp,156
	Player p;
 10011e8:	e13fda04 	addi	r4,fp,-152
 10011ec:	10009d80 	call	10009d8 <_ZN6PlayerC1Ev>
	MatrixMap m;
 10011f0:	e13fe104 	addi	r4,fp,-124
 10011f4:	100034c0 	call	100034c <_ZN9MatrixMapC1Ev>
	m.print_matrix();
 10011f8:	e13fe104 	addi	r4,fp,-124
 10011fc:	10004180 	call	1000418 <_ZN9MatrixMap12print_matrixEv>
//		printf("x = %d   y = %d	cord=%c\n", p.get_x_cord(), p.get_y_cord(),
//				m.get_cord(p.get_x_cord(), p.get_y_cord()));
//		usleep(100000);
//	}

	VGA_Screen vga_screen;
 1001200:	e13fdf04 	addi	r4,fp,-132
 1001204:	1000b800 	call	1000b80 <_ZN10VGA_ScreenC1Ev>
	vga_screen.init();
 1001208:	e13fdf04 	addi	r4,fp,-132
 100120c:	10010700 	call	1001070 <_ZN10VGA_Screen4initEv>
	vga_screen.clear_screen(vga_screen.pixel_buffer);
 1001210:	e17fdf17 	ldw	r5,-132(fp)
 1001214:	e13fdf04 	addi	r4,fp,-132
 1001218:	1000c380 	call	1000c38 <_ZN10VGA_Screen12clear_screenEP27alt_up_pixel_buffer_dma_dev>
	vga_screen.draw_map_from_array(m);
 100121c:	e13fdf04 	addi	r4,fp,-132
 1001220:	e17fe104 	addi	r5,fp,-124
 1001224:	1000ef00 	call	1000ef0 <_ZN10VGA_Screen19draw_map_from_arrayER9MatrixMap>
	vga_screen.erase_and_redraw_player(0,0, 0,0);
 1001228:	e13fdf04 	addi	r4,fp,-132
 100122c:	d8000015 	stw	zero,0(sp)
 1001230:	000b883a 	mov	r5,zero
 1001234:	000d883a 	mov	r6,zero
 1001238:	000f883a 	mov	r7,zero
 100123c:	1000e940 	call	1000e94 <_ZN10VGA_Screen23erase_and_redraw_playerEiiii>
	usleep(100000);
 1001240:	010000b4 	movhi	r4,2
 1001244:	2121a804 	addi	r4,r4,-31072
 1001248:	10535a40 	call	10535a4 <usleep>
	vga_screen.erase_and_redraw_player(0,0, 0,1);
 100124c:	e13fdf04 	addi	r4,fp,-132
 1001250:	00800044 	movi	r2,1
 1001254:	d8800015 	stw	r2,0(sp)
 1001258:	000b883a 	mov	r5,zero
 100125c:	000d883a 	mov	r6,zero
 1001260:	000f883a 	mov	r7,zero
 1001264:	1000e940 	call	1000e94 <_ZN10VGA_Screen23erase_and_redraw_playerEiiii>
	usleep(100000);
 1001268:	010000b4 	movhi	r4,2
 100126c:	2121a804 	addi	r4,r4,-31072
 1001270:	10535a40 	call	10535a4 <usleep>
	vga_screen.erase_and_redraw_player(0,1, 0,2);
 1001274:	e13fdf04 	addi	r4,fp,-132
 1001278:	00800084 	movi	r2,2
 100127c:	d8800015 	stw	r2,0(sp)
 1001280:	000b883a 	mov	r5,zero
 1001284:	01800044 	movi	r6,1
 1001288:	000f883a 	mov	r7,zero
 100128c:	1000e940 	call	1000e94 <_ZN10VGA_Screen23erase_and_redraw_playerEiiii>
	usleep(100000);
 1001290:	010000b4 	movhi	r4,2
 1001294:	2121a804 	addi	r4,r4,-31072
 1001298:	10535a40 	call	10535a4 <usleep>
	vga_screen.erase_and_redraw_player(0,2, 0,3);
 100129c:	e13fdf04 	addi	r4,fp,-132
 10012a0:	008000c4 	movi	r2,3
 10012a4:	d8800015 	stw	r2,0(sp)
 10012a8:	000b883a 	mov	r5,zero
 10012ac:	01800084 	movi	r6,2
 10012b0:	000f883a 	mov	r7,zero
 10012b4:	1000e940 	call	1000e94 <_ZN10VGA_Screen23erase_and_redraw_playerEiiii>

	return 0;
 10012b8:	0005883a 	mov	r2,zero
}
 10012bc:	e037883a 	mov	sp,fp
 10012c0:	dfc00117 	ldw	ra,4(sp)
 10012c4:	df000017 	ldw	fp,0(sp)
 10012c8:	dec00204 	addi	sp,sp,8
 10012cc:	f800283a 	ret

010012d0 <_ZNSt8ios_base4InitD1Ev>:
 10012d0:	deffe904 	addi	sp,sp,-92
 10012d4:	008040f4 	movhi	r2,259
 10012d8:	1099dd04 	addi	r2,r2,26484
 10012dc:	00c04174 	movhi	r3,261
 10012e0:	18dbf504 	addi	r3,r3,28628
 10012e4:	d8800615 	stw	r2,24(sp)
 10012e8:	d809883a 	mov	r4,sp
 10012ec:	00804034 	movhi	r2,256
 10012f0:	1084ed04 	addi	r2,r2,5044
 10012f4:	d8c00715 	stw	r3,28(sp)
 10012f8:	dfc01615 	stw	ra,88(sp)
 10012fc:	d8800915 	stw	r2,36(sp)
 1001300:	df001515 	stw	fp,84(sp)
 1001304:	ddc01415 	stw	r23,80(sp)
 1001308:	dd801315 	stw	r22,76(sp)
 100130c:	dd401215 	stw	r21,72(sp)
 1001310:	dd001115 	stw	r20,68(sp)
 1001314:	dcc01015 	stw	r19,64(sp)
 1001318:	dc800f15 	stw	r18,60(sp)
 100131c:	dc400e15 	stw	r17,56(sp)
 1001320:	dc000d15 	stw	r16,52(sp)
 1001324:	dec00815 	stw	sp,32(sp)
 1001328:	dec00a15 	stw	sp,40(sp)
 100132c:	10418e00 	call	10418e0 <_Unwind_SjLj_Register>
 1001330:	017fffc4 	movi	r5,-1
 1001334:	010041b4 	movhi	r4,262
 1001338:	21388d04 	addi	r4,r4,-7628
 100133c:	d9400115 	stw	r5,4(sp)
 1001340:	1033ad40 	call	1033ad4 <_ZN9__gnu_cxx18__exchange_and_addEPVii>
 1001344:	00c00084 	movi	r3,2
 1001348:	10c00e26 	beq	r2,r3,1001384 <_ZNSt8ios_base4InitD1Ev+0xb4>
 100134c:	d809883a 	mov	r4,sp
 1001350:	10418f00 	call	10418f0 <_Unwind_SjLj_Unregister>
 1001354:	dfc01617 	ldw	ra,88(sp)
 1001358:	df001517 	ldw	fp,84(sp)
 100135c:	ddc01417 	ldw	r23,80(sp)
 1001360:	dd801317 	ldw	r22,76(sp)
 1001364:	dd401217 	ldw	r21,72(sp)
 1001368:	dd001117 	ldw	r20,68(sp)
 100136c:	dcc01017 	ldw	r19,64(sp)
 1001370:	dc800f17 	ldw	r18,60(sp)
 1001374:	dc400e17 	ldw	r17,56(sp)
 1001378:	dc000d17 	ldw	r16,52(sp)
 100137c:	dec01704 	addi	sp,sp,92
 1001380:	f800283a 	ret
 1001384:	00800044 	movi	r2,1
 1001388:	d8800115 	stw	r2,4(sp)
 100138c:	010041b4 	movhi	r4,262
 1001390:	213c0004 	addi	r4,r4,-4096
 1001394:	102af240 	call	102af24 <_ZNSo5flushEv>
 1001398:	010041b4 	movhi	r4,262
 100139c:	213c2304 	addi	r4,r4,-3956
 10013a0:	102af240 	call	102af24 <_ZNSo5flushEv>
 10013a4:	010041b4 	movhi	r4,262
 10013a8:	213c4604 	addi	r4,r4,-3816
 10013ac:	102af240 	call	102af24 <_ZNSo5flushEv>
 10013b0:	003fe606 	br	100134c <_ZNSt8ios_base4InitD1Ev+0x7c>
 10013b4:	d9000217 	ldw	r4,8(sp)
 10013b8:	1035ee80 	call	1035ee8 <__cxa_begin_catch>
 10013bc:	d8000115 	stw	zero,4(sp)
 10013c0:	1035e440 	call	1035e44 <__cxa_end_catch>
 10013c4:	003fe106 	br	100134c <_ZNSt8ios_base4InitD1Ev+0x7c>

010013c8 <_ZNSt8ios_base4InitD2Ev>:
 10013c8:	deffe904 	addi	sp,sp,-92
 10013cc:	008040f4 	movhi	r2,259
 10013d0:	1099dd04 	addi	r2,r2,26484
 10013d4:	00c04174 	movhi	r3,261
 10013d8:	18dbf904 	addi	r3,r3,28644
 10013dc:	d8800615 	stw	r2,24(sp)
 10013e0:	d809883a 	mov	r4,sp
 10013e4:	00804034 	movhi	r2,256
 10013e8:	10852b04 	addi	r2,r2,5292
 10013ec:	d8c00715 	stw	r3,28(sp)
 10013f0:	dfc01615 	stw	ra,88(sp)
 10013f4:	d8800915 	stw	r2,36(sp)
 10013f8:	df001515 	stw	fp,84(sp)
 10013fc:	ddc01415 	stw	r23,80(sp)
 1001400:	dd801315 	stw	r22,76(sp)
 1001404:	dd401215 	stw	r21,72(sp)
 1001408:	dd001115 	stw	r20,68(sp)
 100140c:	dcc01015 	stw	r19,64(sp)
 1001410:	dc800f15 	stw	r18,60(sp)
 1001414:	dc400e15 	stw	r17,56(sp)
 1001418:	dc000d15 	stw	r16,52(sp)
 100141c:	dec00815 	stw	sp,32(sp)
 1001420:	dec00a15 	stw	sp,40(sp)
 1001424:	10418e00 	call	10418e0 <_Unwind_SjLj_Register>
 1001428:	017fffc4 	movi	r5,-1
 100142c:	010041b4 	movhi	r4,262
 1001430:	21388d04 	addi	r4,r4,-7628
 1001434:	d9400115 	stw	r5,4(sp)
 1001438:	1033ad40 	call	1033ad4 <_ZN9__gnu_cxx18__exchange_and_addEPVii>
 100143c:	00c00084 	movi	r3,2
 1001440:	10c00e26 	beq	r2,r3,100147c <_ZNSt8ios_base4InitD2Ev+0xb4>
 1001444:	d809883a 	mov	r4,sp
 1001448:	10418f00 	call	10418f0 <_Unwind_SjLj_Unregister>
 100144c:	dfc01617 	ldw	ra,88(sp)
 1001450:	df001517 	ldw	fp,84(sp)
 1001454:	ddc01417 	ldw	r23,80(sp)
 1001458:	dd801317 	ldw	r22,76(sp)
 100145c:	dd401217 	ldw	r21,72(sp)
 1001460:	dd001117 	ldw	r20,68(sp)
 1001464:	dcc01017 	ldw	r19,64(sp)
 1001468:	dc800f17 	ldw	r18,60(sp)
 100146c:	dc400e17 	ldw	r17,56(sp)
 1001470:	dc000d17 	ldw	r16,52(sp)
 1001474:	dec01704 	addi	sp,sp,92
 1001478:	f800283a 	ret
 100147c:	00800044 	movi	r2,1
 1001480:	d8800115 	stw	r2,4(sp)
 1001484:	010041b4 	movhi	r4,262
 1001488:	213c0004 	addi	r4,r4,-4096
 100148c:	102af240 	call	102af24 <_ZNSo5flushEv>
 1001490:	010041b4 	movhi	r4,262
 1001494:	213c2304 	addi	r4,r4,-3956
 1001498:	102af240 	call	102af24 <_ZNSo5flushEv>
 100149c:	010041b4 	movhi	r4,262
 10014a0:	213c4604 	addi	r4,r4,-3816
 10014a4:	102af240 	call	102af24 <_ZNSo5flushEv>
 10014a8:	003fe606 	br	1001444 <_ZNSt8ios_base4InitD2Ev+0x7c>
 10014ac:	d9000217 	ldw	r4,8(sp)
 10014b0:	1035ee80 	call	1035ee8 <__cxa_begin_catch>
 10014b4:	d8000115 	stw	zero,4(sp)
 10014b8:	1035e440 	call	1035e44 <__cxa_end_catch>
 10014bc:	003fe106 	br	1001444 <_ZNSt8ios_base4InitD2Ev+0x7c>

010014c0 <_ZNSt8ios_base4InitC2Ev>:
 10014c0:	deffec04 	addi	sp,sp,-80
 10014c4:	008040f4 	movhi	r2,259
 10014c8:	1099dd04 	addi	r2,r2,26484
 10014cc:	d8800615 	stw	r2,24(sp)
 10014d0:	00c04174 	movhi	r3,261
 10014d4:	18dbfd04 	addi	r3,r3,28660
 10014d8:	00804034 	movhi	r2,256
 10014dc:	10862704 	addi	r2,r2,6300
 10014e0:	d809883a 	mov	r4,sp
 10014e4:	d8800915 	stw	r2,36(sp)
 10014e8:	dfc01315 	stw	ra,76(sp)
 10014ec:	df001215 	stw	fp,72(sp)
 10014f0:	ddc01115 	stw	r23,68(sp)
 10014f4:	d8c00715 	stw	r3,28(sp)
 10014f8:	dec00815 	stw	sp,32(sp)
 10014fc:	dec00a15 	stw	sp,40(sp)
 1001500:	10418e00 	call	10418e0 <_Unwind_SjLj_Register>
 1001504:	00bfffc4 	movi	r2,-1
 1001508:	010041b4 	movhi	r4,262
 100150c:	21388d04 	addi	r4,r4,-7628
 1001510:	01400044 	movi	r5,1
 1001514:	d8800115 	stw	r2,4(sp)
 1001518:	1033ad40 	call	1033ad4 <_ZN9__gnu_cxx18__exchange_and_addEPVii>
 100151c:	10000726 	beq	r2,zero,100153c <_ZNSt8ios_base4InitC2Ev+0x7c>
 1001520:	d809883a 	mov	r4,sp
 1001524:	10418f00 	call	10418f0 <_Unwind_SjLj_Unregister>
 1001528:	dfc01317 	ldw	ra,76(sp)
 100152c:	df001217 	ldw	fp,72(sp)
 1001530:	ddc01117 	ldw	r23,68(sp)
 1001534:	dec01404 	addi	sp,sp,80
 1001538:	f800283a 	ret
 100153c:	00c041b4 	movhi	r3,262
 1001540:	18f0e704 	addi	r3,r3,-15460
 1001544:	18800017 	ldw	r2,0(r3)
 1001548:	00c00044 	movi	r3,1
 100154c:	10800217 	ldw	r2,8(r2)
 1001550:	d8800f15 	stw	r2,60(sp)
 1001554:	008041b4 	movhi	r2,262
 1001558:	10bc6904 	addi	r2,r2,-3676
 100155c:	11000704 	addi	r4,r2,28
 1001560:	008041b4 	movhi	r2,262
 1001564:	10b0de04 	addi	r2,r2,-15496
 1001568:	10c00005 	stb	r3,0(r2)
 100156c:	008041b4 	movhi	r2,262
 1001570:	10bc6904 	addi	r2,r2,-3676
 1001574:	00c041b4 	movhi	r3,262
 1001578:	18e40d04 	addi	r3,r3,-28620
 100157c:	10c00015 	stw	r3,0(r2)
 1001580:	10000115 	stw	zero,4(r2)
 1001584:	10000215 	stw	zero,8(r2)
 1001588:	10000315 	stw	zero,12(r2)
 100158c:	10000415 	stw	zero,16(r2)
 1001590:	10000515 	stw	zero,20(r2)
 1001594:	10000615 	stw	zero,24(r2)
 1001598:	10050080 	call	1005008 <_ZNSt6localeC1Ev>
 100159c:	d8c00f17 	ldw	r3,60(sp)
 10015a0:	010041b4 	movhi	r4,262
 10015a4:	2130e704 	addi	r4,r4,-15460
 10015a8:	20800017 	ldw	r2,0(r4)
 10015ac:	010041b4 	movhi	r4,262
 10015b0:	213c6904 	addi	r4,r4,-3676
 10015b4:	20c00815 	stw	r3,32(r4)
 10015b8:	10800117 	ldw	r2,4(r2)
 10015bc:	00c041b4 	movhi	r3,262
 10015c0:	18fc6904 	addi	r3,r3,-3676
 10015c4:	d8800e15 	stw	r2,56(sp)
 10015c8:	008041b4 	movhi	r2,262
 10015cc:	10bc7304 	addi	r2,r2,-3636
 10015d0:	11000704 	addi	r4,r2,28
 10015d4:	008041b4 	movhi	r2,262
 10015d8:	10a3dc04 	addi	r2,r2,-28816
 10015dc:	18800015 	stw	r2,0(r3)
 10015e0:	00bfffc4 	movi	r2,-1
 10015e4:	18800915 	stw	r2,36(r3)
 10015e8:	00c041b4 	movhi	r3,262
 10015ec:	18fc7304 	addi	r3,r3,-3636
 10015f0:	008041b4 	movhi	r2,262
 10015f4:	10a40d04 	addi	r2,r2,-28620
 10015f8:	18800015 	stw	r2,0(r3)
 10015fc:	18000115 	stw	zero,4(r3)
 1001600:	18000215 	stw	zero,8(r3)
 1001604:	18000315 	stw	zero,12(r3)
 1001608:	18000415 	stw	zero,16(r3)
 100160c:	18000515 	stw	zero,20(r3)
 1001610:	18000615 	stw	zero,24(r3)
 1001614:	10050080 	call	1005008 <_ZNSt6localeC1Ev>
 1001618:	00c041b4 	movhi	r3,262
 100161c:	18f0e704 	addi	r3,r3,-15460
 1001620:	d9000e17 	ldw	r4,56(sp)
 1001624:	18800017 	ldw	r2,0(r3)
 1001628:	00c041b4 	movhi	r3,262
 100162c:	18fc7304 	addi	r3,r3,-3636
 1001630:	19000815 	stw	r4,32(r3)
 1001634:	10800317 	ldw	r2,12(r2)
 1001638:	d8800d15 	stw	r2,52(sp)
 100163c:	008041b4 	movhi	r2,262
 1001640:	10bc7d04 	addi	r2,r2,-3596
 1001644:	11000704 	addi	r4,r2,28
 1001648:	00bfffc4 	movi	r2,-1
 100164c:	18800915 	stw	r2,36(r3)
 1001650:	008041b4 	movhi	r2,262
 1001654:	10a40d04 	addi	r2,r2,-28620
 1001658:	00c041b4 	movhi	r3,262
 100165c:	18fc7d04 	addi	r3,r3,-3596
 1001660:	18800015 	stw	r2,0(r3)
 1001664:	008041b4 	movhi	r2,262
 1001668:	10a3dc04 	addi	r2,r2,-28816
 100166c:	00c041b4 	movhi	r3,262
 1001670:	18fc7304 	addi	r3,r3,-3636
 1001674:	18800015 	stw	r2,0(r3)
 1001678:	00c041b4 	movhi	r3,262
 100167c:	18fc7d04 	addi	r3,r3,-3596
 1001680:	18000115 	stw	zero,4(r3)
 1001684:	18000215 	stw	zero,8(r3)
 1001688:	18000315 	stw	zero,12(r3)
 100168c:	18000415 	stw	zero,16(r3)
 1001690:	18000515 	stw	zero,20(r3)
 1001694:	18000615 	stw	zero,24(r3)
 1001698:	10050080 	call	1005008 <_ZNSt6localeC1Ev>
 100169c:	00bfffc4 	movi	r2,-1
 10016a0:	010041b4 	movhi	r4,262
 10016a4:	213c7d04 	addi	r4,r4,-3596
 10016a8:	20800915 	stw	r2,36(r4)
 10016ac:	d8800d17 	ldw	r2,52(sp)
 10016b0:	00c041b4 	movhi	r3,262
 10016b4:	18e3dc04 	addi	r3,r3,-28816
 10016b8:	20c00015 	stw	r3,0(r4)
 10016bc:	20800815 	stw	r2,32(r4)
 10016c0:	00800204 	movi	r2,8
 10016c4:	d8800115 	stw	r2,4(sp)
 10016c8:	010041b4 	movhi	r4,262
 10016cc:	213c0104 	addi	r4,r4,-4092
 10016d0:	1039c7c0 	call	1039c7c <_ZNSt8ios_baseC2Ev>
 10016d4:	008041b4 	movhi	r2,262
 10016d8:	10a3fe04 	addi	r2,r2,-28680
 10016dc:	010041b4 	movhi	r4,262
 10016e0:	213c0104 	addi	r4,r4,-4092
 10016e4:	10c00504 	addi	r3,r2,20
 10016e8:	20c00015 	stw	r3,0(r4)
 10016ec:	20001c15 	stw	zero,112(r4)
 10016f0:	20001d05 	stb	zero,116(r4)
 10016f4:	20001d45 	stb	zero,117(r4)
 10016f8:	20001e15 	stw	zero,120(r4)
 10016fc:	20001f15 	stw	zero,124(r4)
 1001700:	20002015 	stw	zero,128(r4)
 1001704:	20002115 	stw	zero,132(r4)
 1001708:	20bfff15 	stw	r2,-4(r4)
 100170c:	00c00104 	movi	r3,4
 1001710:	d8c00115 	stw	r3,4(sp)
 1001714:	014041b4 	movhi	r5,262
 1001718:	297c6904 	addi	r5,r5,-3676
 100171c:	1005dc80 	call	1005dc8 <_ZNSt9basic_iosIcSt11char_traitsIcEE4initEPSt15basic_streambufIcS1_E>
 1001720:	008001c4 	movi	r2,7
 1001724:	d8800115 	stw	r2,4(sp)
 1001728:	010041b4 	movhi	r4,262
 100172c:	213bde04 	addi	r4,r4,-4232
 1001730:	1039c7c0 	call	1039c7c <_ZNSt8ios_baseC2Ev>
 1001734:	008041b4 	movhi	r2,262
 1001738:	10a15504 	addi	r2,r2,-31404
 100173c:	010041b4 	movhi	r4,262
 1001740:	213bde04 	addi	r4,r4,-4232
 1001744:	10c00504 	addi	r3,r2,20
 1001748:	20bffe15 	stw	r2,-8(r4)
 100174c:	20c00015 	stw	r3,0(r4)
 1001750:	20001c15 	stw	zero,112(r4)
 1001754:	20001d05 	stb	zero,116(r4)
 1001758:	20001d45 	stb	zero,117(r4)
 100175c:	20001e15 	stw	zero,120(r4)
 1001760:	20001f15 	stw	zero,124(r4)
 1001764:	20002015 	stw	zero,128(r4)
 1001768:	20002115 	stw	zero,132(r4)
 100176c:	203fff15 	stw	zero,-4(r4)
 1001770:	008000c4 	movi	r2,3
 1001774:	d8800115 	stw	r2,4(sp)
 1001778:	014041b4 	movhi	r5,262
 100177c:	297c7304 	addi	r5,r5,-3636
 1001780:	1005dc80 	call	1005dc8 <_ZNSt9basic_iosIcSt11char_traitsIcEE4initEPSt15basic_streambufIcS1_E>
 1001784:	00800184 	movi	r2,6
 1001788:	d8800115 	stw	r2,4(sp)
 100178c:	010041b4 	movhi	r4,262
 1001790:	213c2404 	addi	r4,r4,-3952
 1001794:	1039c7c0 	call	1039c7c <_ZNSt8ios_baseC2Ev>
 1001798:	008041b4 	movhi	r2,262
 100179c:	10a3fe04 	addi	r2,r2,-28680
 10017a0:	010041b4 	movhi	r4,262
 10017a4:	213c2404 	addi	r4,r4,-3952
 10017a8:	10c00504 	addi	r3,r2,20
 10017ac:	20c00015 	stw	r3,0(r4)
 10017b0:	20001c15 	stw	zero,112(r4)
 10017b4:	20001d05 	stb	zero,116(r4)
 10017b8:	20001d45 	stb	zero,117(r4)
 10017bc:	20001e15 	stw	zero,120(r4)
 10017c0:	20001f15 	stw	zero,124(r4)
 10017c4:	20002015 	stw	zero,128(r4)
 10017c8:	20002115 	stw	zero,132(r4)
 10017cc:	20bfff15 	stw	r2,-4(r4)
 10017d0:	00c00084 	movi	r3,2
 10017d4:	d8c00115 	stw	r3,4(sp)
 10017d8:	014041b4 	movhi	r5,262
 10017dc:	297c7d04 	addi	r5,r5,-3596
 10017e0:	1005dc80 	call	1005dc8 <_ZNSt9basic_iosIcSt11char_traitsIcEE4initEPSt15basic_streambufIcS1_E>
 10017e4:	00800144 	movi	r2,5
 10017e8:	d8800115 	stw	r2,4(sp)
 10017ec:	010041b4 	movhi	r4,262
 10017f0:	213c4704 	addi	r4,r4,-3812
 10017f4:	1039c7c0 	call	1039c7c <_ZNSt8ios_baseC2Ev>
 10017f8:	008041b4 	movhi	r2,262
 10017fc:	10a3fe04 	addi	r2,r2,-28680
 1001800:	010041b4 	movhi	r4,262
 1001804:	213c4704 	addi	r4,r4,-3812
 1001808:	10c00504 	addi	r3,r2,20
 100180c:	20c00015 	stw	r3,0(r4)
 1001810:	20001c15 	stw	zero,112(r4)
 1001814:	20001d05 	stb	zero,116(r4)
 1001818:	20001d45 	stb	zero,117(r4)
 100181c:	20001e15 	stw	zero,120(r4)
 1001820:	20001f15 	stw	zero,124(r4)
 1001824:	20002015 	stw	zero,128(r4)
 1001828:	20002115 	stw	zero,132(r4)
 100182c:	20bfff15 	stw	r2,-4(r4)
 1001830:	00c00044 	movi	r3,1
 1001834:	d8c00115 	stw	r3,4(sp)
 1001838:	014041b4 	movhi	r5,262
 100183c:	297c7d04 	addi	r5,r5,-3596
 1001840:	1005dc80 	call	1005dc8 <_ZNSt9basic_iosIcSt11char_traitsIcEE4initEPSt15basic_streambufIcS1_E>
 1001844:	00c041b4 	movhi	r3,262
 1001848:	18fc0004 	addi	r3,r3,-4096
 100184c:	008041b4 	movhi	r2,262
 1001850:	10bbdc04 	addi	r2,r2,-4240
 1001854:	10c01e15 	stw	r3,120(r2)
 1001858:	01080004 	movi	r4,8192
 100185c:	008041b4 	movhi	r2,262
 1001860:	10bc2304 	addi	r2,r2,-3956
 1001864:	11000415 	stw	r4,16(r2)
 1001868:	00ffffc4 	movi	r3,-1
 100186c:	01400044 	movi	r5,1
 1001870:	010041b4 	movhi	r4,262
 1001874:	21388d04 	addi	r4,r4,-7628
 1001878:	d8c00115 	stw	r3,4(sp)
 100187c:	1033ae80 	call	1033ae8 <_ZN9__gnu_cxx12__atomic_addEPVii>
 1001880:	d809883a 	mov	r4,sp
 1001884:	10418f00 	call	10418f0 <_Unwind_SjLj_Unregister>
 1001888:	dfc01317 	ldw	ra,76(sp)
 100188c:	df001217 	ldw	fp,72(sp)
 1001890:	ddc01117 	ldw	r23,68(sp)
 1001894:	dec01404 	addi	sp,sp,80
 1001898:	f800283a 	ret
 100189c:	d8800217 	ldw	r2,8(sp)
 10018a0:	d8c00117 	ldw	r3,4(sp)
 10018a4:	d8801015 	stw	r2,64(sp)
 10018a8:	00800044 	movi	r2,1
 10018ac:	18802a26 	beq	r3,r2,1001958 <_ZNSt8ios_base4InitC2Ev+0x498>
 10018b0:	00800084 	movi	r2,2
 10018b4:	18801f26 	beq	r3,r2,1001934 <_ZNSt8ios_base4InitC2Ev+0x474>
 10018b8:	008000c4 	movi	r2,3
 10018bc:	18801426 	beq	r3,r2,1001910 <_ZNSt8ios_base4InitC2Ev+0x450>
 10018c0:	00800104 	movi	r2,4
 10018c4:	18800e26 	beq	r3,r2,1001900 <_ZNSt8ios_base4InitC2Ev+0x440>
 10018c8:	00800144 	movi	r2,5
 10018cc:	18800c26 	beq	r3,r2,1001900 <_ZNSt8ios_base4InitC2Ev+0x440>
 10018d0:	00800184 	movi	r2,6
 10018d4:	18800a26 	beq	r3,r2,1001900 <_ZNSt8ios_base4InitC2Ev+0x440>
 10018d8:	008001c4 	movi	r2,7
 10018dc:	18800826 	beq	r3,r2,1001900 <_ZNSt8ios_base4InitC2Ev+0x440>
 10018e0:	00c041b4 	movhi	r3,262
 10018e4:	18fc4704 	addi	r3,r3,-3812
 10018e8:	008041b4 	movhi	r2,262
 10018ec:	10a14404 	addi	r2,r2,-31472
 10018f0:	18800015 	stw	r2,0(r3)
 10018f4:	1809883a 	mov	r4,r3
 10018f8:	d8000115 	stw	zero,4(sp)
 10018fc:	1039b9c0 	call	1039b9c <_ZNSt8ios_baseD2Ev>
 1001900:	d9001017 	ldw	r4,64(sp)
 1001904:	00bfffc4 	movi	r2,-1
 1001908:	d8800115 	stw	r2,4(sp)
 100190c:	1041bac0 	call	1041bac <_Unwind_SjLj_Resume>
 1001910:	00c041b4 	movhi	r3,262
 1001914:	18fc0104 	addi	r3,r3,-4092
 1001918:	008041b4 	movhi	r2,262
 100191c:	10a14404 	addi	r2,r2,-31472
 1001920:	18800015 	stw	r2,0(r3)
 1001924:	1809883a 	mov	r4,r3
 1001928:	d8000115 	stw	zero,4(sp)
 100192c:	1039b9c0 	call	1039b9c <_ZNSt8ios_baseD2Ev>
 1001930:	003ff306 	br	1001900 <_ZNSt8ios_base4InitC2Ev+0x440>
 1001934:	00c041b4 	movhi	r3,262
 1001938:	18fbde04 	addi	r3,r3,-4232
 100193c:	008041b4 	movhi	r2,262
 1001940:	10a14404 	addi	r2,r2,-31472
 1001944:	18800015 	stw	r2,0(r3)
 1001948:	1809883a 	mov	r4,r3
 100194c:	d8000115 	stw	zero,4(sp)
 1001950:	1039b9c0 	call	1039b9c <_ZNSt8ios_baseD2Ev>
 1001954:	003fea06 	br	1001900 <_ZNSt8ios_base4InitC2Ev+0x440>
 1001958:	00c041b4 	movhi	r3,262
 100195c:	18fc2404 	addi	r3,r3,-3952
 1001960:	008041b4 	movhi	r2,262
 1001964:	10a14404 	addi	r2,r2,-31472
 1001968:	18800015 	stw	r2,0(r3)
 100196c:	1809883a 	mov	r4,r3
 1001970:	d8000115 	stw	zero,4(sp)
 1001974:	1039b9c0 	call	1039b9c <_ZNSt8ios_baseD2Ev>
 1001978:	003fe106 	br	1001900 <_ZNSt8ios_base4InitC2Ev+0x440>

0100197c <_ZNSt8ios_base4InitC1Ev>:
 100197c:	deffec04 	addi	sp,sp,-80
 1001980:	008040f4 	movhi	r2,259
 1001984:	1099dd04 	addi	r2,r2,26484
 1001988:	d8800615 	stw	r2,24(sp)
 100198c:	00c04174 	movhi	r3,261
 1001990:	18dc0204 	addi	r3,r3,28680
 1001994:	00804034 	movhi	r2,256
 1001998:	10875604 	addi	r2,r2,7512
 100199c:	d809883a 	mov	r4,sp
 10019a0:	d8800915 	stw	r2,36(sp)
 10019a4:	dfc01315 	stw	ra,76(sp)
 10019a8:	df001215 	stw	fp,72(sp)
 10019ac:	ddc01115 	stw	r23,68(sp)
 10019b0:	d8c00715 	stw	r3,28(sp)
 10019b4:	dec00815 	stw	sp,32(sp)
 10019b8:	dec00a15 	stw	sp,40(sp)
 10019bc:	10418e00 	call	10418e0 <_Unwind_SjLj_Register>
 10019c0:	00bfffc4 	movi	r2,-1
 10019c4:	010041b4 	movhi	r4,262
 10019c8:	21388d04 	addi	r4,r4,-7628
 10019cc:	01400044 	movi	r5,1
 10019d0:	d8800115 	stw	r2,4(sp)
 10019d4:	1033ad40 	call	1033ad4 <_ZN9__gnu_cxx18__exchange_and_addEPVii>
 10019d8:	10000726 	beq	r2,zero,10019f8 <_ZNSt8ios_base4InitC1Ev+0x7c>
 10019dc:	d809883a 	mov	r4,sp
 10019e0:	10418f00 	call	10418f0 <_Unwind_SjLj_Unregister>
 10019e4:	dfc01317 	ldw	ra,76(sp)
 10019e8:	df001217 	ldw	fp,72(sp)
 10019ec:	ddc01117 	ldw	r23,68(sp)
 10019f0:	dec01404 	addi	sp,sp,80
 10019f4:	f800283a 	ret
 10019f8:	00c041b4 	movhi	r3,262
 10019fc:	18f0e704 	addi	r3,r3,-15460
 1001a00:	18800017 	ldw	r2,0(r3)
 1001a04:	00c00044 	movi	r3,1
 1001a08:	10800217 	ldw	r2,8(r2)
 1001a0c:	d8800f15 	stw	r2,60(sp)
 1001a10:	008041b4 	movhi	r2,262
 1001a14:	10bc6904 	addi	r2,r2,-3676
 1001a18:	11000704 	addi	r4,r2,28
 1001a1c:	008041b4 	movhi	r2,262
 1001a20:	10b0de04 	addi	r2,r2,-15496
 1001a24:	10c00005 	stb	r3,0(r2)
 1001a28:	008041b4 	movhi	r2,262
 1001a2c:	10bc6904 	addi	r2,r2,-3676
 1001a30:	00c041b4 	movhi	r3,262
 1001a34:	18e40d04 	addi	r3,r3,-28620
 1001a38:	10c00015 	stw	r3,0(r2)
 1001a3c:	10000115 	stw	zero,4(r2)
 1001a40:	10000215 	stw	zero,8(r2)
 1001a44:	10000315 	stw	zero,12(r2)
 1001a48:	10000415 	stw	zero,16(r2)
 1001a4c:	10000515 	stw	zero,20(r2)
 1001a50:	10000615 	stw	zero,24(r2)
 1001a54:	10050080 	call	1005008 <_ZNSt6localeC1Ev>
 1001a58:	d8c00f17 	ldw	r3,60(sp)
 1001a5c:	010041b4 	movhi	r4,262
 1001a60:	2130e704 	addi	r4,r4,-15460
 1001a64:	20800017 	ldw	r2,0(r4)
 1001a68:	010041b4 	movhi	r4,262
 1001a6c:	213c6904 	addi	r4,r4,-3676
 1001a70:	20c00815 	stw	r3,32(r4)
 1001a74:	10800117 	ldw	r2,4(r2)
 1001a78:	00c041b4 	movhi	r3,262
 1001a7c:	18fc6904 	addi	r3,r3,-3676
 1001a80:	d8800e15 	stw	r2,56(sp)
 1001a84:	008041b4 	movhi	r2,262
 1001a88:	10bc7304 	addi	r2,r2,-3636
 1001a8c:	11000704 	addi	r4,r2,28
 1001a90:	008041b4 	movhi	r2,262
 1001a94:	10a3dc04 	addi	r2,r2,-28816
 1001a98:	18800015 	stw	r2,0(r3)
 1001a9c:	00bfffc4 	movi	r2,-1
 1001aa0:	18800915 	stw	r2,36(r3)
 1001aa4:	00c041b4 	movhi	r3,262
 1001aa8:	18fc7304 	addi	r3,r3,-3636
 1001aac:	008041b4 	movhi	r2,262
 1001ab0:	10a40d04 	addi	r2,r2,-28620
 1001ab4:	18800015 	stw	r2,0(r3)
 1001ab8:	18000115 	stw	zero,4(r3)
 1001abc:	18000215 	stw	zero,8(r3)
 1001ac0:	18000315 	stw	zero,12(r3)
 1001ac4:	18000415 	stw	zero,16(r3)
 1001ac8:	18000515 	stw	zero,20(r3)
 1001acc:	18000615 	stw	zero,24(r3)
 1001ad0:	10050080 	call	1005008 <_ZNSt6localeC1Ev>
 1001ad4:	00c041b4 	movhi	r3,262
 1001ad8:	18f0e704 	addi	r3,r3,-15460
 1001adc:	d9000e17 	ldw	r4,56(sp)
 1001ae0:	18800017 	ldw	r2,0(r3)
 1001ae4:	00c041b4 	movhi	r3,262
 1001ae8:	18fc7304 	addi	r3,r3,-3636
 1001aec:	19000815 	stw	r4,32(r3)
 1001af0:	10800317 	ldw	r2,12(r2)
 1001af4:	d8800d15 	stw	r2,52(sp)
 1001af8:	008041b4 	movhi	r2,262
 1001afc:	10bc7d04 	addi	r2,r2,-3596
 1001b00:	11000704 	addi	r4,r2,28
 1001b04:	00bfffc4 	movi	r2,-1
 1001b08:	18800915 	stw	r2,36(r3)
 1001b0c:	008041b4 	movhi	r2,262
 1001b10:	10a40d04 	addi	r2,r2,-28620
 1001b14:	00c041b4 	movhi	r3,262
 1001b18:	18fc7d04 	addi	r3,r3,-3596
 1001b1c:	18800015 	stw	r2,0(r3)
 1001b20:	008041b4 	movhi	r2,262
 1001b24:	10a3dc04 	addi	r2,r2,-28816
 1001b28:	00c041b4 	movhi	r3,262
 1001b2c:	18fc7304 	addi	r3,r3,-3636
 1001b30:	18800015 	stw	r2,0(r3)
 1001b34:	00c041b4 	movhi	r3,262
 1001b38:	18fc7d04 	addi	r3,r3,-3596
 1001b3c:	18000115 	stw	zero,4(r3)
 1001b40:	18000215 	stw	zero,8(r3)
 1001b44:	18000315 	stw	zero,12(r3)
 1001b48:	18000415 	stw	zero,16(r3)
 1001b4c:	18000515 	stw	zero,20(r3)
 1001b50:	18000615 	stw	zero,24(r3)
 1001b54:	10050080 	call	1005008 <_ZNSt6localeC1Ev>
 1001b58:	00bfffc4 	movi	r2,-1
 1001b5c:	010041b4 	movhi	r4,262
 1001b60:	213c7d04 	addi	r4,r4,-3596
 1001b64:	20800915 	stw	r2,36(r4)
 1001b68:	d8800d17 	ldw	r2,52(sp)
 1001b6c:	00c041b4 	movhi	r3,262
 1001b70:	18e3dc04 	addi	r3,r3,-28816
 1001b74:	20c00015 	stw	r3,0(r4)
 1001b78:	20800815 	stw	r2,32(r4)
 1001b7c:	00800204 	movi	r2,8
 1001b80:	d8800115 	stw	r2,4(sp)
 1001b84:	010041b4 	movhi	r4,262
 1001b88:	213c0104 	addi	r4,r4,-4092
 1001b8c:	1039c7c0 	call	1039c7c <_ZNSt8ios_baseC2Ev>
 1001b90:	008041b4 	movhi	r2,262
 1001b94:	10a3fe04 	addi	r2,r2,-28680
 1001b98:	010041b4 	movhi	r4,262
 1001b9c:	213c0104 	addi	r4,r4,-4092
 1001ba0:	10c00504 	addi	r3,r2,20
 1001ba4:	20c00015 	stw	r3,0(r4)
 1001ba8:	20001c15 	stw	zero,112(r4)
 1001bac:	20001d05 	stb	zero,116(r4)
 1001bb0:	20001d45 	stb	zero,117(r4)
 1001bb4:	20001e15 	stw	zero,120(r4)
 1001bb8:	20001f15 	stw	zero,124(r4)
 1001bbc:	20002015 	stw	zero,128(r4)
 1001bc0:	20002115 	stw	zero,132(r4)
 1001bc4:	20bfff15 	stw	r2,-4(r4)
 1001bc8:	00c00104 	movi	r3,4
 1001bcc:	d8c00115 	stw	r3,4(sp)
 1001bd0:	014041b4 	movhi	r5,262
 1001bd4:	297c6904 	addi	r5,r5,-3676
 1001bd8:	1005dc80 	call	1005dc8 <_ZNSt9basic_iosIcSt11char_traitsIcEE4initEPSt15basic_streambufIcS1_E>
 1001bdc:	008001c4 	movi	r2,7
 1001be0:	d8800115 	stw	r2,4(sp)
 1001be4:	010041b4 	movhi	r4,262
 1001be8:	213bde04 	addi	r4,r4,-4232
 1001bec:	1039c7c0 	call	1039c7c <_ZNSt8ios_baseC2Ev>
 1001bf0:	008041b4 	movhi	r2,262
 1001bf4:	10a15504 	addi	r2,r2,-31404
 1001bf8:	010041b4 	movhi	r4,262
 1001bfc:	213bde04 	addi	r4,r4,-4232
 1001c00:	10c00504 	addi	r3,r2,20
 1001c04:	20bffe15 	stw	r2,-8(r4)
 1001c08:	20c00015 	stw	r3,0(r4)
 1001c0c:	20001c15 	stw	zero,112(r4)
 1001c10:	20001d05 	stb	zero,116(r4)
 1001c14:	20001d45 	stb	zero,117(r4)
 1001c18:	20001e15 	stw	zero,120(r4)
 1001c1c:	20001f15 	stw	zero,124(r4)
 1001c20:	20002015 	stw	zero,128(r4)
 1001c24:	20002115 	stw	zero,132(r4)
 1001c28:	203fff15 	stw	zero,-4(r4)
 1001c2c:	008000c4 	movi	r2,3
 1001c30:	d8800115 	stw	r2,4(sp)
 1001c34:	014041b4 	movhi	r5,262
 1001c38:	297c7304 	addi	r5,r5,-3636
 1001c3c:	1005dc80 	call	1005dc8 <_ZNSt9basic_iosIcSt11char_traitsIcEE4initEPSt15basic_streambufIcS1_E>
 1001c40:	00800184 	movi	r2,6
 1001c44:	d8800115 	stw	r2,4(sp)
 1001c48:	010041b4 	movhi	r4,262
 1001c4c:	213c2404 	addi	r4,r4,-3952
 1001c50:	1039c7c0 	call	1039c7c <_ZNSt8ios_baseC2Ev>
 1001c54:	008041b4 	movhi	r2,262
 1001c58:	10a3fe04 	addi	r2,r2,-28680
 1001c5c:	010041b4 	movhi	r4,262
 1001c60:	213c2404 	addi	r4,r4,-3952
 1001c64:	10c00504 	addi	r3,r2,20
 1001c68:	20c00015 	stw	r3,0(r4)
 1001c6c:	20001c15 	stw	zero,112(r4)
 1001c70:	20001d05 	stb	zero,116(r4)
 1001c74:	20001d45 	stb	zero,117(r4)
 1001c78:	20001e15 	stw	zero,120(r4)
 1001c7c:	20001f15 	stw	zero,124(r4)
 1001c80:	20002015 	stw	zero,128(r4)
 1001c84:	20002115 	stw	zero,132(r4)
 1001c88:	20bfff15 	stw	r2,-4(r4)
 1001c8c:	00c00084 	movi	r3,2
 1001c90:	d8c00115 	stw	r3,4(sp)
 1001c94:	014041b4 	movhi	r5,262
 1001c98:	297c7d04 	addi	r5,r5,-3596
 1001c9c:	1005dc80 	call	1005dc8 <_ZNSt9basic_iosIcSt11char_traitsIcEE4initEPSt15basic_streambufIcS1_E>
 1001ca0:	00800144 	movi	r2,5
 1001ca4:	d8800115 	stw	r2,4(sp)
 1001ca8:	010041b4 	movhi	r4,262
 1001cac:	213c4704 	addi	r4,r4,-3812
 1001cb0:	1039c7c0 	call	1039c7c <_ZNSt8ios_baseC2Ev>
 1001cb4:	008041b4 	movhi	r2,262
 1001cb8:	10a3fe04 	addi	r2,r2,-28680
 1001cbc:	010041b4 	movhi	r4,262
 1001cc0:	213c4704 	addi	r4,r4,-3812
 1001cc4:	10c00504 	addi	r3,r2,20
 1001cc8:	20c00015 	stw	r3,0(r4)
 1001ccc:	20001c15 	stw	zero,112(r4)
 1001cd0:	20001d05 	stb	zero,116(r4)
 1001cd4:	20001d45 	stb	zero,117(r4)
 1001cd8:	20001e15 	stw	zero,120(r4)
 1001cdc:	20001f15 	stw	zero,124(r4)
 1001ce0:	20002015 	stw	zero,128(r4)
 1001ce4:	20002115 	stw	zero,132(r4)
 1001ce8:	20bfff15 	stw	r2,-4(r4)
 1001cec:	00c00044 	movi	r3,1
 1001cf0:	d8c00115 	stw	r3,4(sp)
 1001cf4:	014041b4 	movhi	r5,262
 1001cf8:	297c7d04 	addi	r5,r5,-3596
 1001cfc:	1005dc80 	call	1005dc8 <_ZNSt9basic_iosIcSt11char_traitsIcEE4initEPSt15basic_streambufIcS1_E>
 1001d00:	00c041b4 	movhi	r3,262
 1001d04:	18fc0004 	addi	r3,r3,-4096
 1001d08:	008041b4 	movhi	r2,262
 1001d0c:	10bbdc04 	addi	r2,r2,-4240
 1001d10:	10c01e15 	stw	r3,120(r2)
 1001d14:	01080004 	movi	r4,8192
 1001d18:	008041b4 	movhi	r2,262
 1001d1c:	10bc2304 	addi	r2,r2,-3956
 1001d20:	11000415 	stw	r4,16(r2)
 1001d24:	00ffffc4 	movi	r3,-1
 1001d28:	01400044 	movi	r5,1
 1001d2c:	010041b4 	movhi	r4,262
 1001d30:	21388d04 	addi	r4,r4,-7628
 1001d34:	d8c00115 	stw	r3,4(sp)
 1001d38:	1033ae80 	call	1033ae8 <_ZN9__gnu_cxx12__atomic_addEPVii>
 1001d3c:	d809883a 	mov	r4,sp
 1001d40:	10418f00 	call	10418f0 <_Unwind_SjLj_Unregister>
 1001d44:	dfc01317 	ldw	ra,76(sp)
 1001d48:	df001217 	ldw	fp,72(sp)
 1001d4c:	ddc01117 	ldw	r23,68(sp)
 1001d50:	dec01404 	addi	sp,sp,80
 1001d54:	f800283a 	ret
 1001d58:	d8800217 	ldw	r2,8(sp)
 1001d5c:	d8c00117 	ldw	r3,4(sp)
 1001d60:	d8801015 	stw	r2,64(sp)
 1001d64:	00800044 	movi	r2,1
 1001d68:	18802a26 	beq	r3,r2,1001e14 <_ZNSt8ios_base4InitC1Ev+0x498>
 1001d6c:	00800084 	movi	r2,2
 1001d70:	18801f26 	beq	r3,r2,1001df0 <_ZNSt8ios_base4InitC1Ev+0x474>
 1001d74:	008000c4 	movi	r2,3
 1001d78:	18801426 	beq	r3,r2,1001dcc <_ZNSt8ios_base4InitC1Ev+0x450>
 1001d7c:	00800104 	movi	r2,4
 1001d80:	18800e26 	beq	r3,r2,1001dbc <_ZNSt8ios_base4InitC1Ev+0x440>
 1001d84:	00800144 	movi	r2,5
 1001d88:	18800c26 	beq	r3,r2,1001dbc <_ZNSt8ios_base4InitC1Ev+0x440>
 1001d8c:	00800184 	movi	r2,6
 1001d90:	18800a26 	beq	r3,r2,1001dbc <_ZNSt8ios_base4InitC1Ev+0x440>
 1001d94:	008001c4 	movi	r2,7
 1001d98:	18800826 	beq	r3,r2,1001dbc <_ZNSt8ios_base4InitC1Ev+0x440>
 1001d9c:	00c041b4 	movhi	r3,262
 1001da0:	18fc4704 	addi	r3,r3,-3812
 1001da4:	008041b4 	movhi	r2,262
 1001da8:	10a14404 	addi	r2,r2,-31472
 1001dac:	18800015 	stw	r2,0(r3)
 1001db0:	1809883a 	mov	r4,r3
 1001db4:	d8000115 	stw	zero,4(sp)
 1001db8:	1039b9c0 	call	1039b9c <_ZNSt8ios_baseD2Ev>
 1001dbc:	d9001017 	ldw	r4,64(sp)
 1001dc0:	00bfffc4 	movi	r2,-1
 1001dc4:	d8800115 	stw	r2,4(sp)
 1001dc8:	1041bac0 	call	1041bac <_Unwind_SjLj_Resume>
 1001dcc:	00c041b4 	movhi	r3,262
 1001dd0:	18fc0104 	addi	r3,r3,-4092
 1001dd4:	008041b4 	movhi	r2,262
 1001dd8:	10a14404 	addi	r2,r2,-31472
 1001ddc:	18800015 	stw	r2,0(r3)
 1001de0:	1809883a 	mov	r4,r3
 1001de4:	d8000115 	stw	zero,4(sp)
 1001de8:	1039b9c0 	call	1039b9c <_ZNSt8ios_baseD2Ev>
 1001dec:	003ff306 	br	1001dbc <_ZNSt8ios_base4InitC1Ev+0x440>
 1001df0:	00c041b4 	movhi	r3,262
 1001df4:	18fbde04 	addi	r3,r3,-4232
 1001df8:	008041b4 	movhi	r2,262
 1001dfc:	10a14404 	addi	r2,r2,-31472
 1001e00:	18800015 	stw	r2,0(r3)
 1001e04:	1809883a 	mov	r4,r3
 1001e08:	d8000115 	stw	zero,4(sp)
 1001e0c:	1039b9c0 	call	1039b9c <_ZNSt8ios_baseD2Ev>
 1001e10:	003fea06 	br	1001dbc <_ZNSt8ios_base4InitC1Ev+0x440>
 1001e14:	00c041b4 	movhi	r3,262
 1001e18:	18fc2404 	addi	r3,r3,-3952
 1001e1c:	008041b4 	movhi	r2,262
 1001e20:	10a14404 	addi	r2,r2,-31472
 1001e24:	18800015 	stw	r2,0(r3)
 1001e28:	1809883a 	mov	r4,r3
 1001e2c:	d8000115 	stw	zero,4(sp)
 1001e30:	1039b9c0 	call	1039b9c <_ZNSt8ios_baseD2Ev>
 1001e34:	003fe106 	br	1001dbc <_ZNSt8ios_base4InitC1Ev+0x440>

01001e38 <_ZNSt8ios_base15sync_with_stdioEb>:
 1001e38:	deffeb04 	addi	sp,sp,-84
 1001e3c:	008040f4 	movhi	r2,259
 1001e40:	1099dd04 	addi	r2,r2,26484
 1001e44:	00c04174 	movhi	r3,261
 1001e48:	18dc0704 	addi	r3,r3,28700
 1001e4c:	d8800715 	stw	r2,28(sp)
 1001e50:	d9000f05 	stb	r4,60(sp)
 1001e54:	00804034 	movhi	r2,256
 1001e58:	10880904 	addi	r2,r2,8228
 1001e5c:	d9000104 	addi	r4,sp,4
 1001e60:	d8c00815 	stw	r3,32(sp)
 1001e64:	d8800a15 	stw	r2,40(sp)
 1001e68:	dfc01415 	stw	ra,80(sp)
 1001e6c:	df001315 	stw	fp,76(sp)
 1001e70:	ddc01215 	stw	r23,72(sp)
 1001e74:	dec00915 	stw	sp,36(sp)
 1001e78:	dec00b15 	stw	sp,44(sp)
 1001e7c:	10418e00 	call	10418e0 <_Unwind_SjLj_Register>
 1001e80:	00c041b4 	movhi	r3,262
 1001e84:	18f0de04 	addi	r3,r3,-15496
 1001e88:	18c00003 	ldbu	r3,0(r3)
 1001e8c:	d8800f03 	ldbu	r2,60(sp)
 1001e90:	d8c00e05 	stb	r3,56(sp)
 1001e94:	1000011e 	bne	r2,zero,1001e9c <_ZNSt8ios_base15sync_with_stdioEb+0x64>
 1001e98:	18000a1e 	bne	r3,zero,1001ec4 <_ZNSt8ios_base15sync_with_stdioEb+0x8c>
 1001e9c:	d8c00e03 	ldbu	r3,56(sp)
 1001ea0:	d9000104 	addi	r4,sp,4
 1001ea4:	d8c01115 	stw	r3,68(sp)
 1001ea8:	10418f00 	call	10418f0 <_Unwind_SjLj_Unregister>
 1001eac:	d8801117 	ldw	r2,68(sp)
 1001eb0:	dfc01417 	ldw	ra,80(sp)
 1001eb4:	df001317 	ldw	fp,76(sp)
 1001eb8:	ddc01217 	ldw	r23,72(sp)
 1001ebc:	dec01504 	addi	sp,sp,84
 1001ec0:	f800283a 	ret
 1001ec4:	00bfffc4 	movi	r2,-1
 1001ec8:	d809883a 	mov	r4,sp
 1001ecc:	d8800215 	stw	r2,8(sp)
 1001ed0:	100197c0 	call	100197c <_ZNSt8ios_base4InitC1Ev>
 1001ed4:	00c041b4 	movhi	r3,262
 1001ed8:	18f0de04 	addi	r3,r3,-15496
 1001edc:	008041b4 	movhi	r2,262
 1001ee0:	10bc6904 	addi	r2,r2,-3676
 1001ee4:	18000005 	stb	zero,0(r3)
 1001ee8:	00c041b4 	movhi	r3,262
 1001eec:	18e40d04 	addi	r3,r3,-28620
 1001ef0:	11000704 	addi	r4,r2,28
 1001ef4:	10c00015 	stw	r3,0(r2)
 1001ef8:	10033ac0 	call	10033ac <_ZNSt6localeD1Ev>
 1001efc:	008041b4 	movhi	r2,262
 1001f00:	10bc7304 	addi	r2,r2,-3636
 1001f04:	00c041b4 	movhi	r3,262
 1001f08:	18e40d04 	addi	r3,r3,-28620
 1001f0c:	11000704 	addi	r4,r2,28
 1001f10:	10c00015 	stw	r3,0(r2)
 1001f14:	10033ac0 	call	10033ac <_ZNSt6localeD1Ev>
 1001f18:	008041b4 	movhi	r2,262
 1001f1c:	10bc7d04 	addi	r2,r2,-3596
 1001f20:	00c041b4 	movhi	r3,262
 1001f24:	18e40d04 	addi	r3,r3,-28620
 1001f28:	11000704 	addi	r4,r2,28
 1001f2c:	10c00015 	stw	r3,0(r2)
 1001f30:	10033ac0 	call	10033ac <_ZNSt6localeD1Ev>
 1001f34:	008041b4 	movhi	r2,262
 1001f38:	10b0e704 	addi	r2,r2,-15460
 1001f3c:	10c00017 	ldw	r3,0(r2)
 1001f40:	008000c4 	movi	r2,3
 1001f44:	010041b4 	movhi	r4,262
 1001f48:	213c8704 	addi	r4,r4,-3556
 1001f4c:	19400217 	ldw	r5,8(r3)
 1001f50:	01800404 	movi	r6,16
 1001f54:	d8800215 	stw	r2,8(sp)
 1001f58:	01c10004 	movi	r7,1024
 1001f5c:	10052880 	call	1005288 <_ZN9__gnu_cxx13stdio_filebufIcSt11char_traitsIcEEC1EP7__sFILESt13_Ios_Openmodem>
 1001f60:	00c041b4 	movhi	r3,262
 1001f64:	18f0e704 	addi	r3,r3,-15460
 1001f68:	18800017 	ldw	r2,0(r3)
 1001f6c:	00c00084 	movi	r3,2
 1001f70:	010041b4 	movhi	r4,262
 1001f74:	213ca404 	addi	r4,r4,-3440
 1001f78:	11400117 	ldw	r5,4(r2)
 1001f7c:	01800204 	movi	r6,8
 1001f80:	d8c00215 	stw	r3,8(sp)
 1001f84:	01c10004 	movi	r7,1024
 1001f88:	10052880 	call	1005288 <_ZN9__gnu_cxx13stdio_filebufIcSt11char_traitsIcEEC1EP7__sFILESt13_Ios_Openmodem>
 1001f8c:	00c041b4 	movhi	r3,262
 1001f90:	18f0e704 	addi	r3,r3,-15460
 1001f94:	18800017 	ldw	r2,0(r3)
 1001f98:	00c00044 	movi	r3,1
 1001f9c:	01800404 	movi	r6,16
 1001fa0:	11400317 	ldw	r5,12(r2)
 1001fa4:	01c10004 	movi	r7,1024
 1001fa8:	d8c00215 	stw	r3,8(sp)
 1001fac:	010041b4 	movhi	r4,262
 1001fb0:	213cc104 	addi	r4,r4,-3324
 1001fb4:	10052880 	call	1005288 <_ZN9__gnu_cxx13stdio_filebufIcSt11char_traitsIcEEC1EP7__sFILESt13_Ios_Openmodem>
 1001fb8:	00800104 	movi	r2,4
 1001fbc:	d8800215 	stw	r2,8(sp)
 1001fc0:	010041b4 	movhi	r4,262
 1001fc4:	213c0104 	addi	r4,r4,-4092
 1001fc8:	014041b4 	movhi	r5,262
 1001fcc:	297c8704 	addi	r5,r5,-3556
 1001fd0:	10061fc0 	call	10061fc <_ZNSt9basic_iosIcSt11char_traitsIcEE5rdbufEPSt15basic_streambufIcS1_E>
 1001fd4:	010041b4 	movhi	r4,262
 1001fd8:	213bde04 	addi	r4,r4,-4232
 1001fdc:	014041b4 	movhi	r5,262
 1001fe0:	297ca404 	addi	r5,r5,-3440
 1001fe4:	10061fc0 	call	10061fc <_ZNSt9basic_iosIcSt11char_traitsIcEE5rdbufEPSt15basic_streambufIcS1_E>
 1001fe8:	010041b4 	movhi	r4,262
 1001fec:	213c2404 	addi	r4,r4,-3952
 1001ff0:	014041b4 	movhi	r5,262
 1001ff4:	297cc104 	addi	r5,r5,-3324
 1001ff8:	10061fc0 	call	10061fc <_ZNSt9basic_iosIcSt11char_traitsIcEE5rdbufEPSt15basic_streambufIcS1_E>
 1001ffc:	014041b4 	movhi	r5,262
 1002000:	297cc104 	addi	r5,r5,-3324
 1002004:	010041b4 	movhi	r4,262
 1002008:	213c4704 	addi	r4,r4,-3812
 100200c:	10061fc0 	call	10061fc <_ZNSt9basic_iosIcSt11char_traitsIcEE5rdbufEPSt15basic_streambufIcS1_E>
 1002010:	00bfffc4 	movi	r2,-1
 1002014:	d809883a 	mov	r4,sp
 1002018:	d8800215 	stw	r2,8(sp)
 100201c:	10012d00 	call	10012d0 <_ZNSt8ios_base4InitD1Ev>
 1002020:	003f9e06 	br	1001e9c <_ZNSt8ios_base15sync_with_stdioEb+0x64>
 1002024:	d8800317 	ldw	r2,12(sp)
 1002028:	d809883a 	mov	r4,sp
 100202c:	d8000215 	stw	zero,8(sp)
 1002030:	d8801015 	stw	r2,64(sp)
 1002034:	10012d00 	call	10012d0 <_ZNSt8ios_base4InitD1Ev>
 1002038:	d9001017 	ldw	r4,64(sp)
 100203c:	00bfffc4 	movi	r2,-1
 1002040:	d8800215 	stw	r2,8(sp)
 1002044:	1041bac0 	call	1041bac <_Unwind_SjLj_Resume>

01002048 <_ZNSt6localeC2EPNS_5_ImplE>:
 1002048:	21400015 	stw	r5,0(r4)
 100204c:	f800283a 	ret

01002050 <_ZNSt6localeC1EPNS_5_ImplE>:
 1002050:	21400015 	stw	r5,0(r4)
 1002054:	f800283a 	ret

01002058 <_ZNSt6locale5facet13_S_get_c_nameEv>:
 1002058:	d0a00804 	addi	r2,gp,-32736
 100205c:	f800283a 	ret

01002060 <_ZNKSt6locale2id5_M_idEv>:
 1002060:	defffe04 	addi	sp,sp,-8
 1002064:	dc000015 	stw	r16,0(sp)
 1002068:	2021883a 	mov	r16,r4
 100206c:	80800017 	ldw	r2,0(r16)
 1002070:	dfc00115 	stw	ra,4(sp)
 1002074:	01400044 	movi	r5,1
 1002078:	d127c604 	addi	r4,gp,-24808
 100207c:	1000031e 	bne	r2,zero,100208c <_ZNKSt6locale2id5_M_idEv+0x2c>
 1002080:	1033ad40 	call	1033ad4 <_ZN9__gnu_cxx18__exchange_and_addEPVii>
 1002084:	10800044 	addi	r2,r2,1
 1002088:	80800015 	stw	r2,0(r16)
 100208c:	10bfffc4 	addi	r2,r2,-1
 1002090:	dfc00117 	ldw	ra,4(sp)
 1002094:	dc000017 	ldw	r16,0(sp)
 1002098:	dec00204 	addi	sp,sp,8
 100209c:	f800283a 	ret

010020a0 <_ZNSt6locale21_S_normalize_categoryEi>:
 10020a0:	deffff04 	addi	sp,sp,-4
 10020a4:	dfc00015 	stw	ra,0(sp)
 10020a8:	20001726 	beq	r4,zero,1002108 <_ZNSt6locale21_S_normalize_categoryEi+0x68>
 10020ac:	20800fcc 	andi	r2,r4,63
 10020b0:	1000121e 	bne	r2,zero,10020fc <_ZNSt6locale21_S_normalize_categoryEi+0x5c>
 10020b4:	00800144 	movi	r2,5
 10020b8:	1100032e 	bgeu	r2,r4,10020c8 <_ZNSt6locale21_S_normalize_categoryEi+0x28>
 10020bc:	010041b4 	movhi	r4,262
 10020c0:	2120b904 	addi	r4,r4,-32028
 10020c4:	10390cc0 	call	10390cc <_ZSt21__throw_runtime_errorPKc>
 10020c8:	2105883a 	add	r2,r4,r4
 10020cc:	1085883a 	add	r2,r2,r2
 10020d0:	00c04034 	movhi	r3,256
 10020d4:	18c83904 	addi	r3,r3,8420
 10020d8:	10c5883a 	add	r2,r2,r3
 10020dc:	11000017 	ldw	r4,0(r2)
 10020e0:	2000683a 	jmp	r4
 10020e4:	01002118 	cmpnei	r4,zero,132
 10020e8:	01002120 	cmpeqi	r4,zero,132
 10020ec:	01002128 	cmpgeui	r4,zero,132
 10020f0:	01002130 	cmpltui	r4,zero,132
 10020f4:	01002138 	rdprs	r4,zero,132
 10020f8:	01002140 	call	100214 <__alt_mem_onchip_memory2_0+0x100214>
 10020fc:	00bff004 	movi	r2,-64
 1002100:	2084703a 	and	r2,r4,r2
 1002104:	103feb1e 	bne	r2,zero,10020b4 <_ZNSt6locale21_S_normalize_categoryEi+0x14>
 1002108:	2005883a 	mov	r2,r4
 100210c:	dfc00017 	ldw	ra,0(sp)
 1002110:	dec00104 	addi	sp,sp,4
 1002114:	f800283a 	ret
 1002118:	00800fc4 	movi	r2,63
 100211c:	003ffb06 	br	100210c <_ZNSt6locale21_S_normalize_categoryEi+0x6c>
 1002120:	00800104 	movi	r2,4
 1002124:	003ff906 	br	100210c <_ZNSt6locale21_S_normalize_categoryEi+0x6c>
 1002128:	00800044 	movi	r2,1
 100212c:	003ff706 	br	100210c <_ZNSt6locale21_S_normalize_categoryEi+0x6c>
 1002130:	00800404 	movi	r2,16
 1002134:	003ff506 	br	100210c <_ZNSt6locale21_S_normalize_categoryEi+0x6c>
 1002138:	00800084 	movi	r2,2
 100213c:	003ff306 	br	100210c <_ZNSt6locale21_S_normalize_categoryEi+0x6c>
 1002140:	00800204 	movi	r2,8
 1002144:	003ff106 	br	100210c <_ZNSt6locale21_S_normalize_categoryEi+0x6c>

01002148 <_ZNSt6locale5facetD0Ev>:
 1002148:	008041b4 	movhi	r2,262
 100214c:	10a0d004 	addi	r2,r2,-31936
 1002150:	20800015 	stw	r2,0(r4)
 1002154:	10360001 	jmpi	1036000 <_ZdlPv>

01002158 <_ZNSt6locale5facetD1Ev>:
 1002158:	008041b4 	movhi	r2,262
 100215c:	10a0d004 	addi	r2,r2,-31936
 1002160:	20800015 	stw	r2,0(r4)
 1002164:	f800283a 	ret

01002168 <_ZNSt6locale5facetD2Ev>:
 1002168:	008041b4 	movhi	r2,262
 100216c:	10a0d004 	addi	r2,r2,-31936
 1002170:	20800015 	stw	r2,0(r4)
 1002174:	f800283a 	ret

01002178 <_ZNSt6locale5facet18_S_initialize_onceEv>:
 1002178:	d127c504 	addi	r4,gp,-24812
 100217c:	d1600804 	addi	r5,gp,-32736
 1002180:	000d883a 	mov	r6,zero
 1002184:	10351341 	jmpi	1035134 <_ZNSt6locale5facet18_S_create_c_localeERPiPKcS1_>

01002188 <_ZNSt6locale5facet15_S_get_c_localeEv>:
 1002188:	d0a7c517 	ldw	r2,-24812(gp)
 100218c:	deffff04 	addi	sp,sp,-4
 1002190:	dfc00015 	stw	ra,0(sp)
 1002194:	10000326 	beq	r2,zero,10021a4 <_ZNSt6locale5facet15_S_get_c_localeEv+0x1c>
 1002198:	dfc00017 	ldw	ra,0(sp)
 100219c:	dec00104 	addi	sp,sp,4
 10021a0:	f800283a 	ret
 10021a4:	10021780 	call	1002178 <_ZNSt6locale5facet18_S_initialize_onceEv>
 10021a8:	d0a7c517 	ldw	r2,-24812(gp)
 10021ac:	dfc00017 	ldw	ra,0(sp)
 10021b0:	dec00104 	addi	sp,sp,4
 10021b4:	f800283a 	ret

010021b8 <_ZNSt6localeC1ERKS_>:
 10021b8:	deffee04 	addi	sp,sp,-72
 10021bc:	008040f4 	movhi	r2,259
 10021c0:	1099dd04 	addi	r2,r2,26484
 10021c4:	00c04174 	movhi	r3,261
 10021c8:	18dc0a04 	addi	r3,r3,28712
 10021cc:	d8800615 	stw	r2,24(sp)
 10021d0:	d9000d15 	stw	r4,52(sp)
 10021d4:	00804034 	movhi	r2,256
 10021d8:	10889004 	addi	r2,r2,8768
 10021dc:	d809883a 	mov	r4,sp
 10021e0:	d8c00715 	stw	r3,28(sp)
 10021e4:	d8800915 	stw	r2,36(sp)
 10021e8:	d9400e15 	stw	r5,56(sp)
 10021ec:	dfc01115 	stw	ra,68(sp)
 10021f0:	df001015 	stw	fp,64(sp)
 10021f4:	ddc00f15 	stw	r23,60(sp)
 10021f8:	dec00815 	stw	sp,32(sp)
 10021fc:	dec00a15 	stw	sp,40(sp)
 1002200:	10418e00 	call	10418e0 <_Unwind_SjLj_Register>
 1002204:	d8800e17 	ldw	r2,56(sp)
 1002208:	d8c00d17 	ldw	r3,52(sp)
 100220c:	11000017 	ldw	r4,0(r2)
 1002210:	00800044 	movi	r2,1
 1002214:	100b883a 	mov	r5,r2
 1002218:	19000015 	stw	r4,0(r3)
 100221c:	d8800115 	stw	r2,4(sp)
 1002220:	1033ae80 	call	1033ae8 <_ZN9__gnu_cxx12__atomic_addEPVii>
 1002224:	d809883a 	mov	r4,sp
 1002228:	10418f00 	call	10418f0 <_Unwind_SjLj_Unregister>
 100222c:	dfc01117 	ldw	ra,68(sp)
 1002230:	df001017 	ldw	fp,64(sp)
 1002234:	ddc00f17 	ldw	r23,60(sp)
 1002238:	dec01204 	addi	sp,sp,72
 100223c:	f800283a 	ret
 1002240:	d8800317 	ldw	r2,12(sp)
 1002244:	00ffffc4 	movi	r3,-1
 1002248:	d9000217 	ldw	r4,8(sp)
 100224c:	10c00226 	beq	r2,r3,1002258 <_ZNSt6localeC1ERKS_+0xa0>
 1002250:	d8c00115 	stw	r3,4(sp)
 1002254:	1041bac0 	call	1041bac <_Unwind_SjLj_Resume>
 1002258:	00bfffc4 	movi	r2,-1
 100225c:	d8800115 	stw	r2,4(sp)
 1002260:	10365f40 	call	10365f4 <__cxa_call_unexpected>

01002264 <_ZNSt6localeC2ERKS_>:
 1002264:	deffee04 	addi	sp,sp,-72
 1002268:	008040f4 	movhi	r2,259
 100226c:	1099dd04 	addi	r2,r2,26484
 1002270:	00c04174 	movhi	r3,261
 1002274:	18dc0e04 	addi	r3,r3,28728
 1002278:	d8800615 	stw	r2,24(sp)
 100227c:	d9000d15 	stw	r4,52(sp)
 1002280:	00804034 	movhi	r2,256
 1002284:	1088bb04 	addi	r2,r2,8940
 1002288:	d809883a 	mov	r4,sp
 100228c:	d8c00715 	stw	r3,28(sp)
 1002290:	d8800915 	stw	r2,36(sp)
 1002294:	d9400e15 	stw	r5,56(sp)
 1002298:	dfc01115 	stw	ra,68(sp)
 100229c:	df001015 	stw	fp,64(sp)
 10022a0:	ddc00f15 	stw	r23,60(sp)
 10022a4:	dec00815 	stw	sp,32(sp)
 10022a8:	dec00a15 	stw	sp,40(sp)
 10022ac:	10418e00 	call	10418e0 <_Unwind_SjLj_Register>
 10022b0:	d8800e17 	ldw	r2,56(sp)
 10022b4:	d8c00d17 	ldw	r3,52(sp)
 10022b8:	11000017 	ldw	r4,0(r2)
 10022bc:	00800044 	movi	r2,1
 10022c0:	100b883a 	mov	r5,r2
 10022c4:	19000015 	stw	r4,0(r3)
 10022c8:	d8800115 	stw	r2,4(sp)
 10022cc:	1033ae80 	call	1033ae8 <_ZN9__gnu_cxx12__atomic_addEPVii>
 10022d0:	d809883a 	mov	r4,sp
 10022d4:	10418f00 	call	10418f0 <_Unwind_SjLj_Unregister>
 10022d8:	dfc01117 	ldw	ra,68(sp)
 10022dc:	df001017 	ldw	fp,64(sp)
 10022e0:	ddc00f17 	ldw	r23,60(sp)
 10022e4:	dec01204 	addi	sp,sp,72
 10022e8:	f800283a 	ret
 10022ec:	d8800317 	ldw	r2,12(sp)
 10022f0:	00ffffc4 	movi	r3,-1
 10022f4:	d9000217 	ldw	r4,8(sp)
 10022f8:	10c00226 	beq	r2,r3,1002304 <_ZNSt6localeC2ERKS_+0xa0>
 10022fc:	d8c00115 	stw	r3,4(sp)
 1002300:	1041bac0 	call	1041bac <_Unwind_SjLj_Resume>
 1002304:	00bfffc4 	movi	r2,-1
 1002308:	d8800115 	stw	r2,4(sp)
 100230c:	10365f40 	call	10365f4 <__cxa_call_unexpected>

01002310 <_ZNSt6locale5_Impl16_M_install_cacheEPKNS_5facetEm>:
 1002310:	deffec04 	addi	sp,sp,-80
 1002314:	008040f4 	movhi	r2,259
 1002318:	1099dd04 	addi	r2,r2,26484
 100231c:	00c04174 	movhi	r3,261
 1002320:	18dc1204 	addi	r3,r3,28744
 1002324:	d8800615 	stw	r2,24(sp)
 1002328:	d9000e15 	stw	r4,56(sp)
 100232c:	00804034 	movhi	r2,256
 1002330:	1088fc04 	addi	r2,r2,9200
 1002334:	d809883a 	mov	r4,sp
 1002338:	d8c00715 	stw	r3,28(sp)
 100233c:	d8800915 	stw	r2,36(sp)
 1002340:	dfc01315 	stw	ra,76(sp)
 1002344:	df001215 	stw	fp,72(sp)
 1002348:	ddc01115 	stw	r23,68(sp)
 100234c:	dec00815 	stw	sp,32(sp)
 1002350:	dec00a15 	stw	sp,40(sp)
 1002354:	d9801015 	stw	r6,64(sp)
 1002358:	d9400f15 	stw	r5,60(sp)
 100235c:	10418e00 	call	10418e0 <_Unwind_SjLj_Register>
 1002360:	d8800e17 	ldw	r2,56(sp)
 1002364:	d9001017 	ldw	r4,64(sp)
 1002368:	10c00317 	ldw	r3,12(r2)
 100236c:	2105883a 	add	r2,r4,r4
 1002370:	1085883a 	add	r2,r2,r2
 1002374:	1887883a 	add	r3,r3,r2
 1002378:	d8800d15 	stw	r2,52(sp)
 100237c:	18800017 	ldw	r2,0(r3)
 1002380:	10000f26 	beq	r2,zero,10023c0 <_ZNSt6locale5_Impl16_M_install_cacheEPKNS_5facetEm+0xb0>
 1002384:	d9400f17 	ldw	r5,60(sp)
 1002388:	28000626 	beq	r5,zero,10023a4 <_ZNSt6locale5_Impl16_M_install_cacheEPKNS_5facetEm+0x94>
 100238c:	28800017 	ldw	r2,0(r5)
 1002390:	00c00084 	movi	r3,2
 1002394:	2809883a 	mov	r4,r5
 1002398:	11400117 	ldw	r5,4(r2)
 100239c:	d8c00115 	stw	r3,4(sp)
 10023a0:	283ee83a 	callr	r5
 10023a4:	d809883a 	mov	r4,sp
 10023a8:	10418f00 	call	10418f0 <_Unwind_SjLj_Unregister>
 10023ac:	dfc01317 	ldw	ra,76(sp)
 10023b0:	df001217 	ldw	fp,72(sp)
 10023b4:	ddc01117 	ldw	r23,68(sp)
 10023b8:	dec01404 	addi	sp,sp,80
 10023bc:	f800283a 	ret
 10023c0:	d8800f17 	ldw	r2,60(sp)
 10023c4:	01400044 	movi	r5,1
 10023c8:	d9400115 	stw	r5,4(sp)
 10023cc:	11000104 	addi	r4,r2,4
 10023d0:	1033ae80 	call	1033ae8 <_ZN9__gnu_cxx12__atomic_addEPVii>
 10023d4:	d8c00e17 	ldw	r3,56(sp)
 10023d8:	d9000d17 	ldw	r4,52(sp)
 10023dc:	d9400f17 	ldw	r5,60(sp)
 10023e0:	18800317 	ldw	r2,12(r3)
 10023e4:	2085883a 	add	r2,r4,r2
 10023e8:	11400015 	stw	r5,0(r2)
 10023ec:	003fed06 	br	10023a4 <_ZNSt6locale5_Impl16_M_install_cacheEPKNS_5facetEm+0x94>
 10023f0:	d8c00117 	ldw	r3,4(sp)
 10023f4:	00800044 	movi	r2,1
 10023f8:	d9000217 	ldw	r4,8(sp)
 10023fc:	d9400317 	ldw	r5,12(sp)
 1002400:	18800426 	beq	r3,r2,1002414 <_ZNSt6locale5_Impl16_M_install_cacheEPKNS_5facetEm+0x104>
 1002404:	00bfffc4 	movi	r2,-1
 1002408:	28800426 	beq	r5,r2,100241c <_ZNSt6locale5_Impl16_M_install_cacheEPKNS_5facetEm+0x10c>
 100240c:	d8800115 	stw	r2,4(sp)
 1002410:	1041bac0 	call	1041bac <_Unwind_SjLj_Resume>
 1002414:	00bfffc4 	movi	r2,-1
 1002418:	003ffc06 	br	100240c <_ZNSt6locale5_Impl16_M_install_cacheEPKNS_5facetEm+0xfc>
 100241c:	00bfffc4 	movi	r2,-1
 1002420:	d8800115 	stw	r2,4(sp)
 1002424:	10365f40 	call	10365f4 <__cxa_call_unexpected>

01002428 <_ZNKSt6locale4nameEv>:
 1002428:	deffdd04 	addi	sp,sp,-140
 100242c:	008040f4 	movhi	r2,259
 1002430:	1099dd04 	addi	r2,r2,26484
 1002434:	d8800815 	stw	r2,32(sp)
 1002438:	00804034 	movhi	r2,256
 100243c:	1089f904 	addi	r2,r2,10212
 1002440:	00c04174 	movhi	r3,261
 1002444:	18dc1544 	addi	r3,r3,28757
 1002448:	d8800b15 	stw	r2,44(sp)
 100244c:	d9001e15 	stw	r4,120(sp)
 1002450:	d8800104 	addi	r2,sp,4
 1002454:	d9000204 	addi	r4,sp,8
 1002458:	d8c00915 	stw	r3,36(sp)
 100245c:	d8800a15 	stw	r2,40(sp)
 1002460:	dfc02215 	stw	ra,136(sp)
 1002464:	df002115 	stw	fp,132(sp)
 1002468:	ddc02015 	stw	r23,128(sp)
 100246c:	d9401f15 	stw	r5,124(sp)
 1002470:	dec00c15 	stw	sp,48(sp)
 1002474:	10418e00 	call	10418e0 <_Unwind_SjLj_Register>
 1002478:	d8c01f17 	ldw	r3,124(sp)
 100247c:	018041b4 	movhi	r6,262
 1002480:	31b8a004 	addi	r6,r6,-7552
 1002484:	31000304 	addi	r4,r6,12
 1002488:	18800017 	ldw	r2,0(r3)
 100248c:	10c00417 	ldw	r3,16(r2)
 1002490:	d8801e17 	ldw	r2,120(sp)
 1002494:	11000015 	stw	r4,0(r2)
 1002498:	19800017 	ldw	r6,0(r3)
 100249c:	d8801a15 	stw	r2,104(sp)
 10024a0:	d9801d15 	stw	r6,116(sp)
 10024a4:	3000c526 	beq	r6,zero,10027bc <_ZNKSt6locale4nameEv+0x394>
 10024a8:	18800117 	ldw	r2,4(r3)
 10024ac:	10000f26 	beq	r2,zero,10024ec <_ZNKSt6locale4nameEv+0xc4>
 10024b0:	d8c00f15 	stw	r3,60(sp)
 10024b4:	d8001915 	stw	zero,100(sp)
 10024b8:	d8800f17 	ldw	r2,60(sp)
 10024bc:	11000017 	ldw	r4,0(r2)
 10024c0:	11400117 	ldw	r5,4(r2)
 10024c4:	10457200 	call	1045720 <strcmp>
 10024c8:	1000181e 	bne	r2,zero,100252c <_ZNKSt6locale4nameEv+0x104>
 10024cc:	d8c01917 	ldw	r3,100(sp)
 10024d0:	d9000f17 	ldw	r4,60(sp)
 10024d4:	01800144 	movi	r6,5
 10024d8:	18c00044 	addi	r3,r3,1
 10024dc:	21000104 	addi	r4,r4,4
 10024e0:	d8c01915 	stw	r3,100(sp)
 10024e4:	d9000f15 	stw	r4,60(sp)
 10024e8:	19bff31e 	bne	r3,r6,10024b8 <_ZNKSt6locale4nameEv+0x90>
 10024ec:	d9001d17 	ldw	r4,116(sp)
 10024f0:	10469300 	call	1046930 <strlen>
 10024f4:	00c00084 	movi	r3,2
 10024f8:	d8c00315 	stw	r3,12(sp)
 10024fc:	d9401d17 	ldw	r5,116(sp)
 1002500:	100d883a 	mov	r6,r2
 1002504:	d9001a17 	ldw	r4,104(sp)
 1002508:	10327c80 	call	10327c8 <_ZNSs6assignEPKcm>
 100250c:	d9000204 	addi	r4,sp,8
 1002510:	10418f00 	call	10418f0 <_Unwind_SjLj_Unregister>
 1002514:	d8801e17 	ldw	r2,120(sp)
 1002518:	dfc02217 	ldw	ra,136(sp)
 100251c:	df002117 	ldw	fp,132(sp)
 1002520:	ddc02017 	ldw	r23,128(sp)
 1002524:	dec02304 	addi	sp,sp,140
 1002528:	f800283a 	ret
 100252c:	00800084 	movi	r2,2
 1002530:	d8800315 	stw	r2,12(sp)
 1002534:	d9001a17 	ldw	r4,104(sp)
 1002538:	01402004 	movi	r5,128
 100253c:	1031d2c0 	call	1031d2c <_ZNSs7reserveEm>
 1002540:	008041b4 	movhi	r2,262
 1002544:	10b0b304 	addi	r2,r2,-15668
 1002548:	10800017 	ldw	r2,0(r2)
 100254c:	d8801c15 	stw	r2,112(sp)
 1002550:	10800017 	ldw	r2,0(r2)
 1002554:	1009883a 	mov	r4,r2
 1002558:	d8801815 	stw	r2,96(sp)
 100255c:	10469300 	call	1046930 <strlen>
 1002560:	00c00084 	movi	r3,2
 1002564:	d8c00315 	stw	r3,12(sp)
 1002568:	d9401817 	ldw	r5,96(sp)
 100256c:	100d883a 	mov	r6,r2
 1002570:	d9001a17 	ldw	r4,104(sp)
 1002574:	1031fbc0 	call	1031fbc <_ZNSs6appendEPKcm>
 1002578:	d9001a17 	ldw	r4,104(sp)
 100257c:	20800017 	ldw	r2,0(r4)
 1002580:	113ffd04 	addi	r4,r2,-12
 1002584:	20c00017 	ldw	r3,0(r4)
 1002588:	20800117 	ldw	r2,4(r4)
 100258c:	18c00044 	addi	r3,r3,1
 1002590:	d8c01715 	stw	r3,92(sp)
 1002594:	10c00236 	bltu	r2,r3,10025a0 <_ZNKSt6locale4nameEv+0x178>
 1002598:	20800217 	ldw	r2,8(r4)
 100259c:	0080050e 	bge	zero,r2,10025b4 <_ZNKSt6locale4nameEv+0x18c>
 10025a0:	01800084 	movi	r6,2
 10025a4:	d9800315 	stw	r6,12(sp)
 10025a8:	d9001a17 	ldw	r4,104(sp)
 10025ac:	d9401717 	ldw	r5,92(sp)
 10025b0:	1031d2c0 	call	1031d2c <_ZNSs7reserveEm>
 10025b4:	d8801a17 	ldw	r2,104(sp)
 10025b8:	01000f44 	movi	r4,61
 10025bc:	10c00017 	ldw	r3,0(r2)
 10025c0:	18bffd17 	ldw	r2,-12(r3)
 10025c4:	1887883a 	add	r3,r3,r2
 10025c8:	19000005 	stb	r4,0(r3)
 10025cc:	d8c01a17 	ldw	r3,104(sp)
 10025d0:	d9001717 	ldw	r4,92(sp)
 10025d4:	18800017 	ldw	r2,0(r3)
 10025d8:	10bffd04 	addi	r2,r2,-12
 10025dc:	1107883a 	add	r3,r2,r4
 10025e0:	11000015 	stw	r4,0(r2)
 10025e4:	10000215 	stw	zero,8(r2)
 10025e8:	18000305 	stb	zero,12(r3)
 10025ec:	d9801f17 	ldw	r6,124(sp)
 10025f0:	30800017 	ldw	r2,0(r6)
 10025f4:	10c00417 	ldw	r3,16(r2)
 10025f8:	18c00017 	ldw	r3,0(r3)
 10025fc:	1809883a 	mov	r4,r3
 1002600:	d8c01615 	stw	r3,88(sp)
 1002604:	10469300 	call	1046930 <strlen>
 1002608:	00c00084 	movi	r3,2
 100260c:	d8c00315 	stw	r3,12(sp)
 1002610:	d9401617 	ldw	r5,88(sp)
 1002614:	100d883a 	mov	r6,r2
 1002618:	d9001a17 	ldw	r4,104(sp)
 100261c:	1031fbc0 	call	1031fbc <_ZNSs6appendEPKcm>
 1002620:	01000104 	movi	r4,4
 1002624:	d9001015 	stw	r4,64(sp)
 1002628:	d9801a17 	ldw	r6,104(sp)
 100262c:	30800017 	ldw	r2,0(r6)
 1002630:	113ffd17 	ldw	r4,-12(r2)
 1002634:	10bffd04 	addi	r2,r2,-12
 1002638:	10c00117 	ldw	r3,4(r2)
 100263c:	21000044 	addi	r4,r4,1
 1002640:	d9001515 	stw	r4,84(sp)
 1002644:	19000236 	bltu	r3,r4,1002650 <_ZNKSt6locale4nameEv+0x228>
 1002648:	10800217 	ldw	r2,8(r2)
 100264c:	0080050e 	bge	zero,r2,1002664 <_ZNKSt6locale4nameEv+0x23c>
 1002650:	00800084 	movi	r2,2
 1002654:	d8800315 	stw	r2,12(sp)
 1002658:	d9001a17 	ldw	r4,104(sp)
 100265c:	d9401517 	ldw	r5,84(sp)
 1002660:	1031d2c0 	call	1031d2c <_ZNSs7reserveEm>
 1002664:	d8c01a17 	ldw	r3,104(sp)
 1002668:	d9001c17 	ldw	r4,112(sp)
 100266c:	d9801017 	ldw	r6,64(sp)
 1002670:	18800017 	ldw	r2,0(r3)
 1002674:	218b883a 	add	r5,r4,r6
 1002678:	10fffd17 	ldw	r3,-12(r2)
 100267c:	10c5883a 	add	r2,r2,r3
 1002680:	00c00ec4 	movi	r3,59
 1002684:	10c00005 	stb	r3,0(r2)
 1002688:	d9001a17 	ldw	r4,104(sp)
 100268c:	d9801517 	ldw	r6,84(sp)
 1002690:	20c00017 	ldw	r3,0(r4)
 1002694:	193ffd04 	addi	r4,r3,-12
 1002698:	2185883a 	add	r2,r4,r6
 100269c:	19bffd15 	stw	r6,-12(r3)
 10026a0:	20000215 	stw	zero,8(r4)
 10026a4:	10800304 	addi	r2,r2,12
 10026a8:	10000005 	stb	zero,0(r2)
 10026ac:	29400017 	ldw	r5,0(r5)
 10026b0:	2809883a 	mov	r4,r5
 10026b4:	d9401415 	stw	r5,80(sp)
 10026b8:	10469300 	call	1046930 <strlen>
 10026bc:	00c00084 	movi	r3,2
 10026c0:	d8c00315 	stw	r3,12(sp)
 10026c4:	d9401417 	ldw	r5,80(sp)
 10026c8:	100d883a 	mov	r6,r2
 10026cc:	d9001a17 	ldw	r4,104(sp)
 10026d0:	1031fbc0 	call	1031fbc <_ZNSs6appendEPKcm>
 10026d4:	d9001a17 	ldw	r4,104(sp)
 10026d8:	01800304 	movi	r6,12
 10026dc:	20800017 	ldw	r2,0(r4)
 10026e0:	1189c83a 	sub	r4,r2,r6
 10026e4:	20c00017 	ldw	r3,0(r4)
 10026e8:	20800117 	ldw	r2,4(r4)
 10026ec:	18c00044 	addi	r3,r3,1
 10026f0:	d8c01315 	stw	r3,76(sp)
 10026f4:	10c00236 	bltu	r2,r3,1002700 <_ZNKSt6locale4nameEv+0x2d8>
 10026f8:	20800217 	ldw	r2,8(r4)
 10026fc:	0080050e 	bge	zero,r2,1002714 <_ZNKSt6locale4nameEv+0x2ec>
 1002700:	00800084 	movi	r2,2
 1002704:	d8800315 	stw	r2,12(sp)
 1002708:	d9001a17 	ldw	r4,104(sp)
 100270c:	d9401317 	ldw	r5,76(sp)
 1002710:	1031d2c0 	call	1031d2c <_ZNSs7reserveEm>
 1002714:	d8c01a17 	ldw	r3,104(sp)
 1002718:	01000f44 	movi	r4,61
 100271c:	18800017 	ldw	r2,0(r3)
 1002720:	10fffd17 	ldw	r3,-12(r2)
 1002724:	10c5883a 	add	r2,r2,r3
 1002728:	11000005 	stb	r4,0(r2)
 100272c:	d9001a17 	ldw	r4,104(sp)
 1002730:	d9801317 	ldw	r6,76(sp)
 1002734:	20c00017 	ldw	r3,0(r4)
 1002738:	18bffd04 	addi	r2,r3,-12
 100273c:	1189883a 	add	r4,r2,r6
 1002740:	19bffd15 	stw	r6,-12(r3)
 1002744:	10000215 	stw	zero,8(r2)
 1002748:	20000305 	stb	zero,12(r4)
 100274c:	d8801f17 	ldw	r2,124(sp)
 1002750:	10c00017 	ldw	r3,0(r2)
 1002754:	18800417 	ldw	r2,16(r3)
 1002758:	d8c01017 	ldw	r3,64(sp)
 100275c:	10c5883a 	add	r2,r2,r3
 1002760:	10800017 	ldw	r2,0(r2)
 1002764:	1009883a 	mov	r4,r2
 1002768:	d8801215 	stw	r2,72(sp)
 100276c:	10469300 	call	1046930 <strlen>
 1002770:	01000084 	movi	r4,2
 1002774:	d9000315 	stw	r4,12(sp)
 1002778:	d9401217 	ldw	r5,72(sp)
 100277c:	100d883a 	mov	r6,r2
 1002780:	d9001a17 	ldw	r4,104(sp)
 1002784:	1031fbc0 	call	1031fbc <_ZNSs6appendEPKcm>
 1002788:	d9801017 	ldw	r6,64(sp)
 100278c:	00800604 	movi	r2,24
 1002790:	31800104 	addi	r6,r6,4
 1002794:	d9801015 	stw	r6,64(sp)
 1002798:	30bfa31e 	bne	r6,r2,1002628 <_ZNKSt6locale4nameEv+0x200>
 100279c:	d9000204 	addi	r4,sp,8
 10027a0:	10418f00 	call	10418f0 <_Unwind_SjLj_Unregister>
 10027a4:	d8801e17 	ldw	r2,120(sp)
 10027a8:	dfc02217 	ldw	ra,136(sp)
 10027ac:	df002117 	ldw	fp,132(sp)
 10027b0:	ddc02017 	ldw	r23,128(sp)
 10027b4:	dec02304 	addi	sp,sp,140
 10027b8:	f800283a 	ret
 10027bc:	00800a84 	movi	r2,42
 10027c0:	00c00084 	movi	r3,2
 10027c4:	21bffd17 	ldw	r6,-12(r4)
 10027c8:	000b883a 	mov	r5,zero
 10027cc:	d8800015 	stw	r2,0(sp)
 10027d0:	d8c00315 	stw	r3,12(sp)
 10027d4:	d9001e17 	ldw	r4,120(sp)
 10027d8:	01c00044 	movi	r7,1
 10027dc:	10329900 	call	1032990 <_ZNSs14_M_replace_auxEmmmc>
 10027e0:	003f4a06 	br	100250c <_ZNKSt6locale4nameEv+0xe4>
 10027e4:	d8c00317 	ldw	r3,12(sp)
 10027e8:	00800044 	movi	r2,1
 10027ec:	d9000417 	ldw	r4,16(sp)
 10027f0:	18800326 	beq	r3,r2,1002800 <_ZNKSt6locale4nameEv+0x3d8>
 10027f4:	00bfffc4 	movi	r2,-1
 10027f8:	d8800315 	stw	r2,12(sp)
 10027fc:	1041bac0 	call	1041bac <_Unwind_SjLj_Resume>
 1002800:	d8c01a17 	ldw	r3,104(sp)
 1002804:	d9001b15 	stw	r4,108(sp)
 1002808:	010041b4 	movhi	r4,262
 100280c:	2138a004 	addi	r4,r4,-7552
 1002810:	18800017 	ldw	r2,0(r3)
 1002814:	10bffd04 	addi	r2,r2,-12
 1002818:	d8801115 	stw	r2,68(sp)
 100281c:	2080041e 	bne	r4,r2,1002830 <_ZNKSt6locale4nameEv+0x408>
 1002820:	d9001b17 	ldw	r4,108(sp)
 1002824:	00bfffc4 	movi	r2,-1
 1002828:	d8800315 	stw	r2,12(sp)
 100282c:	1041bac0 	call	1041bac <_Unwind_SjLj_Resume>
 1002830:	d9801117 	ldw	r6,68(sp)
 1002834:	00800044 	movi	r2,1
 1002838:	d8800315 	stw	r2,12(sp)
 100283c:	31000204 	addi	r4,r6,8
 1002840:	017fffc4 	movi	r5,-1
 1002844:	1033ad40 	call	1033ad4 <_ZN9__gnu_cxx18__exchange_and_addEPVii>
 1002848:	00bff516 	blt	zero,r2,1002820 <_ZNKSt6locale4nameEv+0x3f8>
 100284c:	d9001117 	ldw	r4,68(sp)
 1002850:	d9400104 	addi	r5,sp,4
 1002854:	10305640 	call	1030564 <_ZNSs4_Rep10_M_destroyERKSaIcE>
 1002858:	003ff106 	br	1002820 <_ZNKSt6locale4nameEv+0x3f8>

0100285c <_ZNKSt6localeeqERKS_>:
 100285c:	deffdc04 	addi	sp,sp,-144
 1002860:	008040f4 	movhi	r2,259
 1002864:	1099dd04 	addi	r2,r2,26484
 1002868:	00c04174 	movhi	r3,261
 100286c:	18dc1804 	addi	r3,r3,28768
 1002870:	d8800b15 	stw	r2,44(sp)
 1002874:	d9001e15 	stw	r4,120(sp)
 1002878:	00804034 	movhi	r2,256
 100287c:	108aa504 	addi	r2,r2,10900
 1002880:	d9000504 	addi	r4,sp,20
 1002884:	d8c00c15 	stw	r3,48(sp)
 1002888:	d8800e15 	stw	r2,56(sp)
 100288c:	dfc02315 	stw	ra,140(sp)
 1002890:	df002215 	stw	fp,136(sp)
 1002894:	ddc02115 	stw	r23,132(sp)
 1002898:	d9401f15 	stw	r5,124(sp)
 100289c:	dec00d15 	stw	sp,52(sp)
 10028a0:	dec00f15 	stw	sp,60(sp)
 10028a4:	10418e00 	call	10418e0 <_Unwind_SjLj_Register>
 10028a8:	d8c01e17 	ldw	r3,120(sp)
 10028ac:	d9001f17 	ldw	r4,124(sp)
 10028b0:	18800017 	ldw	r2,0(r3)
 10028b4:	20c00017 	ldw	r3,0(r4)
 10028b8:	10c05426 	beq	r2,r3,1002a0c <_ZNKSt6localeeqERKS_+0x1b0>
 10028bc:	10800417 	ldw	r2,16(r2)
 10028c0:	11000017 	ldw	r4,0(r2)
 10028c4:	d8801d15 	stw	r2,116(sp)
 10028c8:	20004226 	beq	r4,zero,10029d4 <_ZNKSt6localeeqERKS_+0x178>
 10028cc:	18c00417 	ldw	r3,16(r3)
 10028d0:	19400017 	ldw	r5,0(r3)
 10028d4:	d8c01c15 	stw	r3,112(sp)
 10028d8:	28003e26 	beq	r5,zero,10029d4 <_ZNKSt6localeeqERKS_+0x178>
 10028dc:	10457200 	call	1045720 <strcmp>
 10028e0:	10003c1e 	bne	r2,zero,10029d4 <_ZNKSt6localeeqERKS_+0x178>
 10028e4:	d8c01d17 	ldw	r3,116(sp)
 10028e8:	18800117 	ldw	r2,4(r3)
 10028ec:	10004426 	beq	r2,zero,1002a00 <_ZNKSt6localeeqERKS_+0x1a4>
 10028f0:	00800144 	movi	r2,5
 10028f4:	d8800615 	stw	r2,24(sp)
 10028f8:	d9401e17 	ldw	r5,120(sp)
 10028fc:	d9000204 	addi	r4,sp,8
 1002900:	10024280 	call	1002428 <_ZNKSt6locale4nameEv>
 1002904:	d8800217 	ldw	r2,8(sp)
 1002908:	01000104 	movi	r4,4
 100290c:	d9000615 	stw	r4,24(sp)
 1002910:	d9401f17 	ldw	r5,124(sp)
 1002914:	d909883a 	add	r4,sp,r4
 1002918:	d8801715 	stw	r2,92(sp)
 100291c:	10024280 	call	1002428 <_ZNKSt6locale4nameEv>
 1002920:	d9400117 	ldw	r5,4(sp)
 1002924:	d8c01717 	ldw	r3,92(sp)
 1002928:	00bffd04 	movi	r2,-12
 100292c:	1887883a 	add	r3,r3,r2
 1002930:	2885883a 	add	r2,r5,r2
 1002934:	19000017 	ldw	r4,0(r3)
 1002938:	d8801915 	stw	r2,100(sp)
 100293c:	10800017 	ldw	r2,0(r2)
 1002940:	d8c01815 	stw	r3,96(sp)
 1002944:	d9001415 	stw	r4,80(sp)
 1002948:	d8801515 	stw	r2,84(sp)
 100294c:	d9000315 	stw	r4,12(sp)
 1002950:	d8800415 	stw	r2,16(sp)
 1002954:	11002836 	bltu	r2,r4,10029f8 <_ZNKSt6localeeqERKS_+0x19c>
 1002958:	d9800304 	addi	r6,sp,12
 100295c:	31800017 	ldw	r6,0(r6)
 1002960:	d9001717 	ldw	r4,92(sp)
 1002964:	10445dc0 	call	10445dc <memcmp>
 1002968:	d8801615 	stw	r2,88(sp)
 100296c:	1000041e 	bne	r2,zero,1002980 <_ZNKSt6localeeqERKS_+0x124>
 1002970:	d8c01417 	ldw	r3,80(sp)
 1002974:	d9001517 	ldw	r4,84(sp)
 1002978:	1907c83a 	sub	r3,r3,r4
 100297c:	d8c01615 	stw	r3,88(sp)
 1002980:	d9001917 	ldw	r4,100(sp)
 1002984:	008041b4 	movhi	r2,262
 1002988:	10b8a004 	addi	r2,r2,-7552
 100298c:	2080331e 	bne	r4,r2,1002a5c <_ZNKSt6localeeqERKS_+0x200>
 1002990:	d9001617 	ldw	r4,88(sp)
 1002994:	00c041b4 	movhi	r3,262
 1002998:	18f8a004 	addi	r3,r3,-7552
 100299c:	2005003a 	cmpeq	r2,r4,zero
 10029a0:	d8802005 	stb	r2,128(sp)
 10029a4:	d8801817 	ldw	r2,96(sp)
 10029a8:	10c0221e 	bne	r2,r3,1002a34 <_ZNKSt6localeeqERKS_+0x1d8>
 10029ac:	d9002003 	ldbu	r4,128(sp)
 10029b0:	d9001215 	stw	r4,72(sp)
 10029b4:	d9000504 	addi	r4,sp,20
 10029b8:	10418f00 	call	10418f0 <_Unwind_SjLj_Unregister>
 10029bc:	d8801217 	ldw	r2,72(sp)
 10029c0:	dfc02317 	ldw	ra,140(sp)
 10029c4:	df002217 	ldw	fp,136(sp)
 10029c8:	ddc02117 	ldw	r23,132(sp)
 10029cc:	dec02404 	addi	sp,sp,144
 10029d0:	f800283a 	ret
 10029d4:	d9000504 	addi	r4,sp,20
 10029d8:	d8001215 	stw	zero,72(sp)
 10029dc:	10418f00 	call	10418f0 <_Unwind_SjLj_Unregister>
 10029e0:	d8801217 	ldw	r2,72(sp)
 10029e4:	dfc02317 	ldw	ra,140(sp)
 10029e8:	df002217 	ldw	fp,136(sp)
 10029ec:	ddc02117 	ldw	r23,132(sp)
 10029f0:	dec02404 	addi	sp,sp,144
 10029f4:	f800283a 	ret
 10029f8:	d9800404 	addi	r6,sp,16
 10029fc:	003fd706 	br	100295c <_ZNKSt6localeeqERKS_+0x100>
 1002a00:	d9001c17 	ldw	r4,112(sp)
 1002a04:	20800117 	ldw	r2,4(r4)
 1002a08:	103fb91e 	bne	r2,zero,10028f0 <_ZNKSt6localeeqERKS_+0x94>
 1002a0c:	00800044 	movi	r2,1
 1002a10:	d9000504 	addi	r4,sp,20
 1002a14:	d8801215 	stw	r2,72(sp)
 1002a18:	10418f00 	call	10418f0 <_Unwind_SjLj_Unregister>
 1002a1c:	d8801217 	ldw	r2,72(sp)
 1002a20:	dfc02317 	ldw	ra,140(sp)
 1002a24:	df002217 	ldw	fp,136(sp)
 1002a28:	ddc02117 	ldw	r23,132(sp)
 1002a2c:	dec02404 	addi	sp,sp,144
 1002a30:	f800283a 	ret
 1002a34:	00800044 	movi	r2,1
 1002a38:	d8800615 	stw	r2,24(sp)
 1002a3c:	d8801817 	ldw	r2,96(sp)
 1002a40:	017fffc4 	movi	r5,-1
 1002a44:	11000204 	addi	r4,r2,8
 1002a48:	1033ad40 	call	1033ad4 <_ZN9__gnu_cxx18__exchange_and_addEPVii>
 1002a4c:	00800d0e 	bge	zero,r2,1002a84 <_ZNKSt6localeeqERKS_+0x228>
 1002a50:	d8c02003 	ldbu	r3,128(sp)
 1002a54:	d8c01215 	stw	r3,72(sp)
 1002a58:	003fd606 	br	10029b4 <_ZNKSt6localeeqERKS_+0x158>
 1002a5c:	008000c4 	movi	r2,3
 1002a60:	d8800615 	stw	r2,24(sp)
 1002a64:	21000204 	addi	r4,r4,8
 1002a68:	017fffc4 	movi	r5,-1
 1002a6c:	1033ad40 	call	1033ad4 <_ZN9__gnu_cxx18__exchange_and_addEPVii>
 1002a70:	00bfc716 	blt	zero,r2,1002990 <_ZNKSt6localeeqERKS_+0x134>
 1002a74:	d9001917 	ldw	r4,100(sp)
 1002a78:	d9400084 	addi	r5,sp,2
 1002a7c:	10305640 	call	1030564 <_ZNSs4_Rep10_M_destroyERKSaIcE>
 1002a80:	003fc306 	br	1002990 <_ZNKSt6localeeqERKS_+0x134>
 1002a84:	d9001817 	ldw	r4,96(sp)
 1002a88:	d80b883a 	mov	r5,sp
 1002a8c:	10305640 	call	1030564 <_ZNSs4_Rep10_M_destroyERKSaIcE>
 1002a90:	003fc606 	br	10029ac <_ZNKSt6localeeqERKS_+0x150>
 1002a94:	d8c00617 	ldw	r3,24(sp)
 1002a98:	00800044 	movi	r2,1
 1002a9c:	d9000717 	ldw	r4,28(sp)
 1002aa0:	d9400817 	ldw	r5,32(sp)
 1002aa4:	18800426 	beq	r3,r2,1002ab8 <_ZNKSt6localeeqERKS_+0x25c>
 1002aa8:	00800084 	movi	r2,2
 1002aac:	18800626 	beq	r3,r2,1002ac8 <_ZNKSt6localeeqERKS_+0x26c>
 1002ab0:	008000c4 	movi	r2,3
 1002ab4:	18800426 	beq	r3,r2,1002ac8 <_ZNKSt6localeeqERKS_+0x26c>
 1002ab8:	00bfffc4 	movi	r2,-1
 1002abc:	28800e26 	beq	r5,r2,1002af8 <_ZNKSt6localeeqERKS_+0x29c>
 1002ac0:	d8800615 	stw	r2,24(sp)
 1002ac4:	1041bac0 	call	1041bac <_Unwind_SjLj_Resume>
 1002ac8:	d8801717 	ldw	r2,92(sp)
 1002acc:	d9401a15 	stw	r5,104(sp)
 1002ad0:	d9001b15 	stw	r4,108(sp)
 1002ad4:	10bffd04 	addi	r2,r2,-12
 1002ad8:	d8801315 	stw	r2,76(sp)
 1002adc:	d8c01317 	ldw	r3,76(sp)
 1002ae0:	008041b4 	movhi	r2,262
 1002ae4:	10b8a004 	addi	r2,r2,-7552
 1002ae8:	1880061e 	bne	r3,r2,1002b04 <_ZNKSt6localeeqERKS_+0x2a8>
 1002aec:	d9001b17 	ldw	r4,108(sp)
 1002af0:	d9401a17 	ldw	r5,104(sp)
 1002af4:	003ff006 	br	1002ab8 <_ZNKSt6localeeqERKS_+0x25c>
 1002af8:	00bfffc4 	movi	r2,-1
 1002afc:	d8800615 	stw	r2,24(sp)
 1002b00:	10365f40 	call	10365f4 <__cxa_call_unexpected>
 1002b04:	00800084 	movi	r2,2
 1002b08:	d8800615 	stw	r2,24(sp)
 1002b0c:	19000204 	addi	r4,r3,8
 1002b10:	017fffc4 	movi	r5,-1
 1002b14:	1033ad40 	call	1033ad4 <_ZN9__gnu_cxx18__exchange_and_addEPVii>
 1002b18:	00bff416 	blt	zero,r2,1002aec <_ZNKSt6localeeqERKS_+0x290>
 1002b1c:	d9001317 	ldw	r4,76(sp)
 1002b20:	d9400044 	addi	r5,sp,1
 1002b24:	10305640 	call	1030564 <_ZNSs4_Rep10_M_destroyERKSaIcE>
 1002b28:	003ff006 	br	1002aec <_ZNKSt6localeeqERKS_+0x290>

01002b2c <_ZNSt6locale5_ImplD1Ev>:
 1002b2c:	deffe104 	addi	sp,sp,-124
 1002b30:	008040f4 	movhi	r2,259
 1002b34:	1099dd04 	addi	r2,r2,26484
 1002b38:	d8800615 	stw	r2,24(sp)
 1002b3c:	00c04174 	movhi	r3,261
 1002b40:	18dc1e04 	addi	r3,r3,28792
 1002b44:	00804034 	movhi	r2,256
 1002b48:	108b5d04 	addi	r2,r2,11636
 1002b4c:	d9001415 	stw	r4,80(sp)
 1002b50:	d809883a 	mov	r4,sp
 1002b54:	d8800915 	stw	r2,36(sp)
 1002b58:	dfc01e15 	stw	ra,120(sp)
 1002b5c:	df001d15 	stw	fp,116(sp)
 1002b60:	ddc01c15 	stw	r23,112(sp)
 1002b64:	dd801b15 	stw	r22,108(sp)
 1002b68:	dd401a15 	stw	r21,104(sp)
 1002b6c:	dd001915 	stw	r20,100(sp)
 1002b70:	dcc01815 	stw	r19,96(sp)
 1002b74:	dc801715 	stw	r18,92(sp)
 1002b78:	dc401615 	stw	r17,88(sp)
 1002b7c:	dc001515 	stw	r16,84(sp)
 1002b80:	d8c00715 	stw	r3,28(sp)
 1002b84:	dec00815 	stw	sp,32(sp)
 1002b88:	dec00a15 	stw	sp,40(sp)
 1002b8c:	10418e00 	call	10418e0 <_Unwind_SjLj_Register>
 1002b90:	d8801417 	ldw	r2,80(sp)
 1002b94:	11000117 	ldw	r4,4(r2)
 1002b98:	20002726 	beq	r4,zero,1002c38 <_ZNSt6locale5_ImplD1Ev+0x10c>
 1002b9c:	10800217 	ldw	r2,8(r2)
 1002ba0:	10002426 	beq	r2,zero,1002c34 <_ZNSt6locale5_ImplD1Ev+0x108>
 1002ba4:	d8001115 	stw	zero,68(sp)
 1002ba8:	d8000d15 	stw	zero,52(sp)
 1002bac:	d8c01417 	ldw	r3,80(sp)
 1002bb0:	18800117 	ldw	r2,4(r3)
 1002bb4:	d8c00d17 	ldw	r3,52(sp)
 1002bb8:	1885883a 	add	r2,r3,r2
 1002bbc:	10800017 	ldw	r2,0(r2)
 1002bc0:	d8801315 	stw	r2,76(sp)
 1002bc4:	10000e26 	beq	r2,zero,1002c00 <_ZNSt6locale5_ImplD1Ev+0xd4>
 1002bc8:	01000104 	movi	r4,4
 1002bcc:	d9000115 	stw	r4,4(sp)
 1002bd0:	017fffc4 	movi	r5,-1
 1002bd4:	1109883a 	add	r4,r2,r4
 1002bd8:	1033ad40 	call	1033ad4 <_ZN9__gnu_cxx18__exchange_and_addEPVii>
 1002bdc:	00c00044 	movi	r3,1
 1002be0:	10c0071e 	bne	r2,r3,1002c00 <_ZNSt6locale5_ImplD1Ev+0xd4>
 1002be4:	d8c01317 	ldw	r3,76(sp)
 1002be8:	18800017 	ldw	r2,0(r3)
 1002bec:	1809883a 	mov	r4,r3
 1002bf0:	00c000c4 	movi	r3,3
 1002bf4:	11400117 	ldw	r5,4(r2)
 1002bf8:	d8c00115 	stw	r3,4(sp)
 1002bfc:	283ee83a 	callr	r5
 1002c00:	d8c01417 	ldw	r3,80(sp)
 1002c04:	18800217 	ldw	r2,8(r3)
 1002c08:	d8c01117 	ldw	r3,68(sp)
 1002c0c:	18c00044 	addi	r3,r3,1
 1002c10:	d8c01115 	stw	r3,68(sp)
 1002c14:	d8c00d17 	ldw	r3,52(sp)
 1002c18:	18c00104 	addi	r3,r3,4
 1002c1c:	d8c00d15 	stw	r3,52(sp)
 1002c20:	d8c01117 	ldw	r3,68(sp)
 1002c24:	18bfe136 	bltu	r3,r2,1002bac <_ZNSt6locale5_ImplD1Ev+0x80>
 1002c28:	d8801417 	ldw	r2,80(sp)
 1002c2c:	11000117 	ldw	r4,4(r2)
 1002c30:	20000126 	beq	r4,zero,1002c38 <_ZNSt6locale5_ImplD1Ev+0x10c>
 1002c34:	103600c0 	call	103600c <_ZdaPv>
 1002c38:	d8c01417 	ldw	r3,80(sp)
 1002c3c:	19000317 	ldw	r4,12(r3)
 1002c40:	20002a26 	beq	r4,zero,1002cec <_ZNSt6locale5_ImplD1Ev+0x1c0>
 1002c44:	18800217 	ldw	r2,8(r3)
 1002c48:	10002726 	beq	r2,zero,1002ce8 <_ZNSt6locale5_ImplD1Ev+0x1bc>
 1002c4c:	d8001015 	stw	zero,64(sp)
 1002c50:	d8000e15 	stw	zero,56(sp)
 1002c54:	00000a06 	br	1002c80 <_ZNSt6locale5_ImplD1Ev+0x154>
 1002c58:	d8c01417 	ldw	r3,80(sp)
 1002c5c:	18800217 	ldw	r2,8(r3)
 1002c60:	d8c01017 	ldw	r3,64(sp)
 1002c64:	18c00044 	addi	r3,r3,1
 1002c68:	d8c01015 	stw	r3,64(sp)
 1002c6c:	d8c00e17 	ldw	r3,56(sp)
 1002c70:	18c00104 	addi	r3,r3,4
 1002c74:	d8c00e15 	stw	r3,56(sp)
 1002c78:	d8c01017 	ldw	r3,64(sp)
 1002c7c:	1880172e 	bgeu	r3,r2,1002cdc <_ZNSt6locale5_ImplD1Ev+0x1b0>
 1002c80:	d8c01417 	ldw	r3,80(sp)
 1002c84:	18800317 	ldw	r2,12(r3)
 1002c88:	d8c00e17 	ldw	r3,56(sp)
 1002c8c:	10c5883a 	add	r2,r2,r3
 1002c90:	10800017 	ldw	r2,0(r2)
 1002c94:	d8801215 	stw	r2,72(sp)
 1002c98:	103fef26 	beq	r2,zero,1002c58 <_ZNSt6locale5_ImplD1Ev+0x12c>
 1002c9c:	00800084 	movi	r2,2
 1002ca0:	d8800115 	stw	r2,4(sp)
 1002ca4:	d8801217 	ldw	r2,72(sp)
 1002ca8:	017fffc4 	movi	r5,-1
 1002cac:	11000104 	addi	r4,r2,4
 1002cb0:	1033ad40 	call	1033ad4 <_ZN9__gnu_cxx18__exchange_and_addEPVii>
 1002cb4:	100b883a 	mov	r5,r2
 1002cb8:	00800044 	movi	r2,1
 1002cbc:	28bfe61e 	bne	r5,r2,1002c58 <_ZNSt6locale5_ImplD1Ev+0x12c>
 1002cc0:	d8c01217 	ldw	r3,72(sp)
 1002cc4:	18800017 	ldw	r2,0(r3)
 1002cc8:	1809883a 	mov	r4,r3
 1002ccc:	10c00117 	ldw	r3,4(r2)
 1002cd0:	d9400115 	stw	r5,4(sp)
 1002cd4:	183ee83a 	callr	r3
 1002cd8:	003fdf06 	br	1002c58 <_ZNSt6locale5_ImplD1Ev+0x12c>
 1002cdc:	d8801417 	ldw	r2,80(sp)
 1002ce0:	11000317 	ldw	r4,12(r2)
 1002ce4:	20000126 	beq	r4,zero,1002cec <_ZNSt6locale5_ImplD1Ev+0x1c0>
 1002ce8:	103600c0 	call	103600c <_ZdaPv>
 1002cec:	d8c01417 	ldw	r3,80(sp)
 1002cf0:	18800417 	ldw	r2,16(r3)
 1002cf4:	10001126 	beq	r2,zero,1002d3c <_ZNSt6locale5_ImplD1Ev+0x210>
 1002cf8:	d8000f15 	stw	zero,60(sp)
 1002cfc:	d8c01417 	ldw	r3,80(sp)
 1002d00:	18800417 	ldw	r2,16(r3)
 1002d04:	d8c00f17 	ldw	r3,60(sp)
 1002d08:	10c5883a 	add	r2,r2,r3
 1002d0c:	11000017 	ldw	r4,0(r2)
 1002d10:	20000126 	beq	r4,zero,1002d18 <_ZNSt6locale5_ImplD1Ev+0x1ec>
 1002d14:	103600c0 	call	103600c <_ZdaPv>
 1002d18:	d8800f17 	ldw	r2,60(sp)
 1002d1c:	00c00604 	movi	r3,24
 1002d20:	10800104 	addi	r2,r2,4
 1002d24:	d8800f15 	stw	r2,60(sp)
 1002d28:	10fff41e 	bne	r2,r3,1002cfc <_ZNSt6locale5_ImplD1Ev+0x1d0>
 1002d2c:	d8801417 	ldw	r2,80(sp)
 1002d30:	11000417 	ldw	r4,16(r2)
 1002d34:	20000126 	beq	r4,zero,1002d3c <_ZNSt6locale5_ImplD1Ev+0x210>
 1002d38:	103600c0 	call	103600c <_ZdaPv>
 1002d3c:	d809883a 	mov	r4,sp
 1002d40:	10418f00 	call	10418f0 <_Unwind_SjLj_Unregister>
 1002d44:	dfc01e17 	ldw	ra,120(sp)
 1002d48:	df001d17 	ldw	fp,116(sp)
 1002d4c:	ddc01c17 	ldw	r23,112(sp)
 1002d50:	dd801b17 	ldw	r22,108(sp)
 1002d54:	dd401a17 	ldw	r21,104(sp)
 1002d58:	dd001917 	ldw	r20,100(sp)
 1002d5c:	dcc01817 	ldw	r19,96(sp)
 1002d60:	dc801717 	ldw	r18,92(sp)
 1002d64:	dc401617 	ldw	r17,88(sp)
 1002d68:	dc001517 	ldw	r16,84(sp)
 1002d6c:	dec01f04 	addi	sp,sp,124
 1002d70:	f800283a 	ret
 1002d74:	d8c00117 	ldw	r3,4(sp)
 1002d78:	00800044 	movi	r2,1
 1002d7c:	d9000217 	ldw	r4,8(sp)
 1002d80:	d9400317 	ldw	r5,12(sp)
 1002d84:	18800826 	beq	r3,r2,1002da8 <_ZNSt6locale5_ImplD1Ev+0x27c>
 1002d88:	00800084 	movi	r2,2
 1002d8c:	18800a26 	beq	r3,r2,1002db8 <_ZNSt6locale5_ImplD1Ev+0x28c>
 1002d90:	008000c4 	movi	r2,3
 1002d94:	18800426 	beq	r3,r2,1002da8 <_ZNSt6locale5_ImplD1Ev+0x27c>
 1002d98:	1035ee80 	call	1035ee8 <__cxa_begin_catch>
 1002d9c:	d8000115 	stw	zero,4(sp)
 1002da0:	1035e440 	call	1035e44 <__cxa_end_catch>
 1002da4:	003fac06 	br	1002c58 <_ZNSt6locale5_ImplD1Ev+0x12c>
 1002da8:	00bfffc4 	movi	r2,-1
 1002dac:	28800626 	beq	r5,r2,1002dc8 <_ZNSt6locale5_ImplD1Ev+0x29c>
 1002db0:	d8800115 	stw	r2,4(sp)
 1002db4:	1041bac0 	call	1041bac <_Unwind_SjLj_Resume>
 1002db8:	1035ee80 	call	1035ee8 <__cxa_begin_catch>
 1002dbc:	d8000115 	stw	zero,4(sp)
 1002dc0:	1035e440 	call	1035e44 <__cxa_end_catch>
 1002dc4:	003f8e06 	br	1002c00 <_ZNSt6locale5_ImplD1Ev+0xd4>
 1002dc8:	00bfffc4 	movi	r2,-1
 1002dcc:	d8800115 	stw	r2,4(sp)
 1002dd0:	10365f40 	call	10365f4 <__cxa_call_unexpected>

01002dd4 <_ZNSt6locale5_ImplC1ERKS0_m>:
 1002dd4:	deffe504 	addi	sp,sp,-108
 1002dd8:	008040f4 	movhi	r2,259
 1002ddc:	1099dd04 	addi	r2,r2,26484
 1002de0:	00c04174 	movhi	r3,261
 1002de4:	18dc2504 	addi	r3,r3,28820
 1002de8:	d8800615 	stw	r2,24(sp)
 1002dec:	d9001415 	stw	r4,80(sp)
 1002df0:	00804034 	movhi	r2,256
 1002df4:	108c1204 	addi	r2,r2,12360
 1002df8:	d809883a 	mov	r4,sp
 1002dfc:	d8c00715 	stw	r3,28(sp)
 1002e00:	d8800915 	stw	r2,36(sp)
 1002e04:	dfc01a15 	stw	ra,104(sp)
 1002e08:	df001915 	stw	fp,100(sp)
 1002e0c:	ddc01815 	stw	r23,96(sp)
 1002e10:	d9401515 	stw	r5,84(sp)
 1002e14:	dec00815 	stw	sp,32(sp)
 1002e18:	dec00a15 	stw	sp,40(sp)
 1002e1c:	d9801615 	stw	r6,88(sp)
 1002e20:	10418e00 	call	10418e0 <_Unwind_SjLj_Register>
 1002e24:	d8801517 	ldw	r2,84(sp)
 1002e28:	d8c01417 	ldw	r3,80(sp)
 1002e2c:	11000217 	ldw	r4,8(r2)
 1002e30:	d8801617 	ldw	r2,88(sp)
 1002e34:	18000115 	stw	zero,4(r3)
 1002e38:	19000215 	stw	r4,8(r3)
 1002e3c:	18800015 	stw	r2,0(r3)
 1002e40:	18000315 	stw	zero,12(r3)
 1002e44:	18000415 	stw	zero,16(r3)
 1002e48:	00800104 	movi	r2,4
 1002e4c:	2109883a 	add	r4,r4,r4
 1002e50:	d8800115 	stw	r2,4(sp)
 1002e54:	2109883a 	add	r4,r4,r4
 1002e58:	1035d7c0 	call	1035d7c <_Znam>
 1002e5c:	d8c01417 	ldw	r3,80(sp)
 1002e60:	19000217 	ldw	r4,8(r3)
 1002e64:	18800115 	stw	r2,4(r3)
 1002e68:	20001b26 	beq	r4,zero,1002ed8 <_ZNSt6locale5_ImplC1ERKS0_m+0x104>
 1002e6c:	d8001215 	stw	zero,72(sp)
 1002e70:	d8000d15 	stw	zero,52(sp)
 1002e74:	d9001517 	ldw	r4,84(sp)
 1002e78:	20800117 	ldw	r2,4(r4)
 1002e7c:	d9001417 	ldw	r4,80(sp)
 1002e80:	20c00117 	ldw	r3,4(r4)
 1002e84:	d9000d17 	ldw	r4,52(sp)
 1002e88:	2085883a 	add	r2,r4,r2
 1002e8c:	11000017 	ldw	r4,0(r2)
 1002e90:	d8800d17 	ldw	r2,52(sp)
 1002e94:	10c7883a 	add	r3,r2,r3
 1002e98:	19000015 	stw	r4,0(r3)
 1002e9c:	20000526 	beq	r4,zero,1002eb4 <_ZNSt6locale5_ImplC1ERKS0_m+0xe0>
 1002ea0:	00800084 	movi	r2,2
 1002ea4:	d8800115 	stw	r2,4(sp)
 1002ea8:	21000104 	addi	r4,r4,4
 1002eac:	01400044 	movi	r5,1
 1002eb0:	1033ae80 	call	1033ae8 <_ZN9__gnu_cxx12__atomic_addEPVii>
 1002eb4:	d8c01417 	ldw	r3,80(sp)
 1002eb8:	d8801217 	ldw	r2,72(sp)
 1002ebc:	19000217 	ldw	r4,8(r3)
 1002ec0:	d8c00d17 	ldw	r3,52(sp)
 1002ec4:	10800044 	addi	r2,r2,1
 1002ec8:	d8801215 	stw	r2,72(sp)
 1002ecc:	18c00104 	addi	r3,r3,4
 1002ed0:	d8c00d15 	stw	r3,52(sp)
 1002ed4:	113fe736 	bltu	r2,r4,1002e74 <_ZNSt6locale5_ImplC1ERKS0_m+0xa0>
 1002ed8:	00800104 	movi	r2,4
 1002edc:	2109883a 	add	r4,r4,r4
 1002ee0:	d8800115 	stw	r2,4(sp)
 1002ee4:	2109883a 	add	r4,r4,r4
 1002ee8:	1035d7c0 	call	1035d7c <_Znam>
 1002eec:	d9001417 	ldw	r4,80(sp)
 1002ef0:	20c00217 	ldw	r3,8(r4)
 1002ef4:	20800315 	stw	r2,12(r4)
 1002ef8:	18001926 	beq	r3,zero,1002f60 <_ZNSt6locale5_ImplC1ERKS0_m+0x18c>
 1002efc:	d8001115 	stw	zero,68(sp)
 1002f00:	d8000e15 	stw	zero,56(sp)
 1002f04:	d8c01517 	ldw	r3,84(sp)
 1002f08:	d9001417 	ldw	r4,80(sp)
 1002f0c:	18800317 	ldw	r2,12(r3)
 1002f10:	20c00317 	ldw	r3,12(r4)
 1002f14:	d9000e17 	ldw	r4,56(sp)
 1002f18:	2085883a 	add	r2,r4,r2
 1002f1c:	10800017 	ldw	r2,0(r2)
 1002f20:	20c7883a 	add	r3,r4,r3
 1002f24:	18800015 	stw	r2,0(r3)
 1002f28:	10000426 	beq	r2,zero,1002f3c <_ZNSt6locale5_ImplC1ERKS0_m+0x168>
 1002f2c:	01400044 	movi	r5,1
 1002f30:	d9400115 	stw	r5,4(sp)
 1002f34:	11000104 	addi	r4,r2,4
 1002f38:	1033ae80 	call	1033ae8 <_ZN9__gnu_cxx12__atomic_addEPVii>
 1002f3c:	d8c01417 	ldw	r3,80(sp)
 1002f40:	d9001117 	ldw	r4,68(sp)
 1002f44:	18800217 	ldw	r2,8(r3)
 1002f48:	d8c00e17 	ldw	r3,56(sp)
 1002f4c:	21000044 	addi	r4,r4,1
 1002f50:	d9001115 	stw	r4,68(sp)
 1002f54:	18c00104 	addi	r3,r3,4
 1002f58:	d8c00e15 	stw	r3,56(sp)
 1002f5c:	20bfe936 	bltu	r4,r2,1002f04 <_ZNSt6locale5_ImplC1ERKS0_m+0x130>
 1002f60:	01000104 	movi	r4,4
 1002f64:	d9000115 	stw	r4,4(sp)
 1002f68:	01000604 	movi	r4,24
 1002f6c:	1035d7c0 	call	1035d7c <_Znam>
 1002f70:	1009883a 	mov	r4,r2
 1002f74:	d8801417 	ldw	r2,80(sp)
 1002f78:	01800104 	movi	r6,4
 1002f7c:	01400604 	movi	r5,24
 1002f80:	11000415 	stw	r4,16(r2)
 1002f84:	0007883a 	mov	r3,zero
 1002f88:	20c5883a 	add	r2,r4,r3
 1002f8c:	1987883a 	add	r3,r3,r6
 1002f90:	10000015 	stw	zero,0(r2)
 1002f94:	197ffc1e 	bne	r3,r5,1002f88 <_ZNSt6locale5_ImplC1ERKS0_m+0x1b4>
 1002f98:	d8000f15 	stw	zero,60(sp)
 1002f9c:	d8c01517 	ldw	r3,84(sp)
 1002fa0:	d9000f17 	ldw	r4,60(sp)
 1002fa4:	18800417 	ldw	r2,16(r3)
 1002fa8:	1105883a 	add	r2,r2,r4
 1002fac:	11000017 	ldw	r4,0(r2)
 1002fb0:	20001e26 	beq	r4,zero,100302c <_ZNSt6locale5_ImplC1ERKS0_m+0x258>
 1002fb4:	10469300 	call	1046930 <strlen>
 1002fb8:	d9001417 	ldw	r4,80(sp)
 1002fbc:	10800044 	addi	r2,r2,1
 1002fc0:	d8801015 	stw	r2,64(sp)
 1002fc4:	20c00417 	ldw	r3,16(r4)
 1002fc8:	d9000f17 	ldw	r4,60(sp)
 1002fcc:	00800104 	movi	r2,4
 1002fd0:	d8800115 	stw	r2,4(sp)
 1002fd4:	20c7883a 	add	r3,r4,r3
 1002fd8:	d8c01315 	stw	r3,76(sp)
 1002fdc:	d9001017 	ldw	r4,64(sp)
 1002fe0:	1035d7c0 	call	1035d7c <_Znam>
 1002fe4:	d9001417 	ldw	r4,80(sp)
 1002fe8:	20c00417 	ldw	r3,16(r4)
 1002fec:	d9001517 	ldw	r4,84(sp)
 1002ff0:	21800417 	ldw	r6,16(r4)
 1002ff4:	d9001317 	ldw	r4,76(sp)
 1002ff8:	20800015 	stw	r2,0(r4)
 1002ffc:	d8800f17 	ldw	r2,60(sp)
 1003000:	1887883a 	add	r3,r3,r2
 1003004:	308d883a 	add	r6,r6,r2
 1003008:	19000017 	ldw	r4,0(r3)
 100300c:	31400017 	ldw	r5,0(r6)
 1003010:	d9801017 	ldw	r6,64(sp)
 1003014:	10800104 	addi	r2,r2,4
 1003018:	d8800f15 	stw	r2,60(sp)
 100301c:	10446500 	call	1044650 <memcpy>
 1003020:	d9000f17 	ldw	r4,60(sp)
 1003024:	00c00604 	movi	r3,24
 1003028:	20ffdc1e 	bne	r4,r3,1002f9c <_ZNSt6locale5_ImplC1ERKS0_m+0x1c8>
 100302c:	d809883a 	mov	r4,sp
 1003030:	10418f00 	call	10418f0 <_Unwind_SjLj_Unregister>
 1003034:	dfc01a17 	ldw	ra,104(sp)
 1003038:	df001917 	ldw	fp,100(sp)
 100303c:	ddc01817 	ldw	r23,96(sp)
 1003040:	dec01b04 	addi	sp,sp,108
 1003044:	f800283a 	ret
 1003048:	d8800217 	ldw	r2,8(sp)
 100304c:	d8c00117 	ldw	r3,4(sp)
 1003050:	d9000317 	ldw	r4,12(sp)
 1003054:	d8801715 	stw	r2,92(sp)
 1003058:	00800044 	movi	r2,1
 100305c:	18800426 	beq	r3,r2,1003070 <_ZNSt6locale5_ImplC1ERKS0_m+0x29c>
 1003060:	00800084 	movi	r2,2
 1003064:	18800e26 	beq	r3,r2,10030a0 <_ZNSt6locale5_ImplC1ERKS0_m+0x2cc>
 1003068:	008000c4 	movi	r2,3
 100306c:	18800526 	beq	r3,r2,1003084 <_ZNSt6locale5_ImplC1ERKS0_m+0x2b0>
 1003070:	00bfffc4 	movi	r2,-1
 1003074:	20800e26 	beq	r4,r2,10030b0 <_ZNSt6locale5_ImplC1ERKS0_m+0x2dc>
 1003078:	d9001717 	ldw	r4,92(sp)
 100307c:	d8800115 	stw	r2,4(sp)
 1003080:	1041bac0 	call	1041bac <_Unwind_SjLj_Resume>
 1003084:	d9001717 	ldw	r4,92(sp)
 1003088:	1035ee80 	call	1035ee8 <__cxa_begin_catch>
 100308c:	d9001417 	ldw	r4,80(sp)
 1003090:	1002b2c0 	call	1002b2c <_ZNSt6locale5_ImplD1Ev>
 1003094:	008000c4 	movi	r2,3
 1003098:	d8800115 	stw	r2,4(sp)
 100309c:	10353e40 	call	10353e4 <__cxa_rethrow>
 10030a0:	d8000115 	stw	zero,4(sp)
 10030a4:	1035e440 	call	1035e44 <__cxa_end_catch>
 10030a8:	00bfffc4 	movi	r2,-1
 10030ac:	003ff206 	br	1003078 <_ZNSt6locale5_ImplC1ERKS0_m+0x2a4>
 10030b0:	d9001717 	ldw	r4,92(sp)
 10030b4:	00bfffc4 	movi	r2,-1
 10030b8:	d8800115 	stw	r2,4(sp)
 10030bc:	10365f40 	call	10365f4 <__cxa_call_unexpected>

010030c0 <_ZNSt6locale5_ImplC2ERKS0_m>:
 10030c0:	deffe504 	addi	sp,sp,-108
 10030c4:	008040f4 	movhi	r2,259
 10030c8:	1099dd04 	addi	r2,r2,26484
 10030cc:	00c04174 	movhi	r3,261
 10030d0:	18dc2c04 	addi	r3,r3,28848
 10030d4:	d8800615 	stw	r2,24(sp)
 10030d8:	d9001415 	stw	r4,80(sp)
 10030dc:	00804034 	movhi	r2,256
 10030e0:	108ccd04 	addi	r2,r2,13108
 10030e4:	d809883a 	mov	r4,sp
 10030e8:	d8c00715 	stw	r3,28(sp)
 10030ec:	d8800915 	stw	r2,36(sp)
 10030f0:	dfc01a15 	stw	ra,104(sp)
 10030f4:	df001915 	stw	fp,100(sp)
 10030f8:	ddc01815 	stw	r23,96(sp)
 10030fc:	d9401515 	stw	r5,84(sp)
 1003100:	dec00815 	stw	sp,32(sp)
 1003104:	dec00a15 	stw	sp,40(sp)
 1003108:	d9801615 	stw	r6,88(sp)
 100310c:	10418e00 	call	10418e0 <_Unwind_SjLj_Register>
 1003110:	d8801517 	ldw	r2,84(sp)
 1003114:	d8c01417 	ldw	r3,80(sp)
 1003118:	11000217 	ldw	r4,8(r2)
 100311c:	d8801617 	ldw	r2,88(sp)
 1003120:	18000115 	stw	zero,4(r3)
 1003124:	19000215 	stw	r4,8(r3)
 1003128:	18800015 	stw	r2,0(r3)
 100312c:	18000315 	stw	zero,12(r3)
 1003130:	18000415 	stw	zero,16(r3)
 1003134:	00800104 	movi	r2,4
 1003138:	2109883a 	add	r4,r4,r4
 100313c:	d8800115 	stw	r2,4(sp)
 1003140:	2109883a 	add	r4,r4,r4
 1003144:	1035d7c0 	call	1035d7c <_Znam>
 1003148:	d8c01417 	ldw	r3,80(sp)
 100314c:	19000217 	ldw	r4,8(r3)
 1003150:	18800115 	stw	r2,4(r3)
 1003154:	20001b26 	beq	r4,zero,10031c4 <_ZNSt6locale5_ImplC2ERKS0_m+0x104>
 1003158:	d8001215 	stw	zero,72(sp)
 100315c:	d8000d15 	stw	zero,52(sp)
 1003160:	d9001517 	ldw	r4,84(sp)
 1003164:	20800117 	ldw	r2,4(r4)
 1003168:	d9001417 	ldw	r4,80(sp)
 100316c:	20c00117 	ldw	r3,4(r4)
 1003170:	d9000d17 	ldw	r4,52(sp)
 1003174:	1105883a 	add	r2,r2,r4
 1003178:	11000017 	ldw	r4,0(r2)
 100317c:	d8800d17 	ldw	r2,52(sp)
 1003180:	1887883a 	add	r3,r3,r2
 1003184:	19000015 	stw	r4,0(r3)
 1003188:	20000526 	beq	r4,zero,10031a0 <_ZNSt6locale5_ImplC2ERKS0_m+0xe0>
 100318c:	00800084 	movi	r2,2
 1003190:	d8800115 	stw	r2,4(sp)
 1003194:	21000104 	addi	r4,r4,4
 1003198:	01400044 	movi	r5,1
 100319c:	1033ae80 	call	1033ae8 <_ZN9__gnu_cxx12__atomic_addEPVii>
 10031a0:	d8c01417 	ldw	r3,80(sp)
 10031a4:	d8801217 	ldw	r2,72(sp)
 10031a8:	19000217 	ldw	r4,8(r3)
 10031ac:	d8c00d17 	ldw	r3,52(sp)
 10031b0:	10800044 	addi	r2,r2,1
 10031b4:	d8801215 	stw	r2,72(sp)
 10031b8:	18c00104 	addi	r3,r3,4
 10031bc:	d8c00d15 	stw	r3,52(sp)
 10031c0:	113fe736 	bltu	r2,r4,1003160 <_ZNSt6locale5_ImplC2ERKS0_m+0xa0>
 10031c4:	00800104 	movi	r2,4
 10031c8:	2109883a 	add	r4,r4,r4
 10031cc:	d8800115 	stw	r2,4(sp)
 10031d0:	2109883a 	add	r4,r4,r4
 10031d4:	1035d7c0 	call	1035d7c <_Znam>
 10031d8:	d9001417 	ldw	r4,80(sp)
 10031dc:	20c00217 	ldw	r3,8(r4)
 10031e0:	20800315 	stw	r2,12(r4)
 10031e4:	18001926 	beq	r3,zero,100324c <_ZNSt6locale5_ImplC2ERKS0_m+0x18c>
 10031e8:	d8001115 	stw	zero,68(sp)
 10031ec:	d8000e15 	stw	zero,56(sp)
 10031f0:	d8c01517 	ldw	r3,84(sp)
 10031f4:	d9001417 	ldw	r4,80(sp)
 10031f8:	18800317 	ldw	r2,12(r3)
 10031fc:	20c00317 	ldw	r3,12(r4)
 1003200:	d9000e17 	ldw	r4,56(sp)
 1003204:	2085883a 	add	r2,r4,r2
 1003208:	10800017 	ldw	r2,0(r2)
 100320c:	20c7883a 	add	r3,r4,r3
 1003210:	18800015 	stw	r2,0(r3)
 1003214:	10000426 	beq	r2,zero,1003228 <_ZNSt6locale5_ImplC2ERKS0_m+0x168>
 1003218:	01400044 	movi	r5,1
 100321c:	d9400115 	stw	r5,4(sp)
 1003220:	11000104 	addi	r4,r2,4
 1003224:	1033ae80 	call	1033ae8 <_ZN9__gnu_cxx12__atomic_addEPVii>
 1003228:	d8c01417 	ldw	r3,80(sp)
 100322c:	d9001117 	ldw	r4,68(sp)
 1003230:	18800217 	ldw	r2,8(r3)
 1003234:	d8c00e17 	ldw	r3,56(sp)
 1003238:	21000044 	addi	r4,r4,1
 100323c:	d9001115 	stw	r4,68(sp)
 1003240:	18c00104 	addi	r3,r3,4
 1003244:	d8c00e15 	stw	r3,56(sp)
 1003248:	20bfe936 	bltu	r4,r2,10031f0 <_ZNSt6locale5_ImplC2ERKS0_m+0x130>
 100324c:	01000104 	movi	r4,4
 1003250:	d9000115 	stw	r4,4(sp)
 1003254:	01000604 	movi	r4,24
 1003258:	1035d7c0 	call	1035d7c <_Znam>
 100325c:	1009883a 	mov	r4,r2
 1003260:	d8801417 	ldw	r2,80(sp)
 1003264:	01800104 	movi	r6,4
 1003268:	01400604 	movi	r5,24
 100326c:	11000415 	stw	r4,16(r2)
 1003270:	0007883a 	mov	r3,zero
 1003274:	20c5883a 	add	r2,r4,r3
 1003278:	1987883a 	add	r3,r3,r6
 100327c:	10000015 	stw	zero,0(r2)
 1003280:	197ffc1e 	bne	r3,r5,1003274 <_ZNSt6locale5_ImplC2ERKS0_m+0x1b4>
 1003284:	d8000f15 	stw	zero,60(sp)
 1003288:	d8c01517 	ldw	r3,84(sp)
 100328c:	d9000f17 	ldw	r4,60(sp)
 1003290:	18800417 	ldw	r2,16(r3)
 1003294:	1105883a 	add	r2,r2,r4
 1003298:	11000017 	ldw	r4,0(r2)
 100329c:	20001e26 	beq	r4,zero,1003318 <_ZNSt6locale5_ImplC2ERKS0_m+0x258>
 10032a0:	10469300 	call	1046930 <strlen>
 10032a4:	d9001417 	ldw	r4,80(sp)
 10032a8:	10800044 	addi	r2,r2,1
 10032ac:	d8801015 	stw	r2,64(sp)
 10032b0:	20c00417 	ldw	r3,16(r4)
 10032b4:	d9000f17 	ldw	r4,60(sp)
 10032b8:	00800104 	movi	r2,4
 10032bc:	d8800115 	stw	r2,4(sp)
 10032c0:	20c7883a 	add	r3,r4,r3
 10032c4:	d8c01315 	stw	r3,76(sp)
 10032c8:	d9001017 	ldw	r4,64(sp)
 10032cc:	1035d7c0 	call	1035d7c <_Znam>
 10032d0:	d9001417 	ldw	r4,80(sp)
 10032d4:	20c00417 	ldw	r3,16(r4)
 10032d8:	d9001517 	ldw	r4,84(sp)
 10032dc:	21800417 	ldw	r6,16(r4)
 10032e0:	d9001317 	ldw	r4,76(sp)
 10032e4:	20800015 	stw	r2,0(r4)
 10032e8:	d8800f17 	ldw	r2,60(sp)
 10032ec:	10c7883a 	add	r3,r2,r3
 10032f0:	118d883a 	add	r6,r2,r6
 10032f4:	19000017 	ldw	r4,0(r3)
 10032f8:	31400017 	ldw	r5,0(r6)
 10032fc:	d9801017 	ldw	r6,64(sp)
 1003300:	10800104 	addi	r2,r2,4
 1003304:	d8800f15 	stw	r2,60(sp)
 1003308:	10446500 	call	1044650 <memcpy>
 100330c:	d9000f17 	ldw	r4,60(sp)
 1003310:	00c00604 	movi	r3,24
 1003314:	20ffdc1e 	bne	r4,r3,1003288 <_ZNSt6locale5_ImplC2ERKS0_m+0x1c8>
 1003318:	d809883a 	mov	r4,sp
 100331c:	10418f00 	call	10418f0 <_Unwind_SjLj_Unregister>
 1003320:	dfc01a17 	ldw	ra,104(sp)
 1003324:	df001917 	ldw	fp,100(sp)
 1003328:	ddc01817 	ldw	r23,96(sp)
 100332c:	dec01b04 	addi	sp,sp,108
 1003330:	f800283a 	ret
 1003334:	d8800217 	ldw	r2,8(sp)
 1003338:	d8c00117 	ldw	r3,4(sp)
 100333c:	d9000317 	ldw	r4,12(sp)
 1003340:	d8801715 	stw	r2,92(sp)
 1003344:	00800044 	movi	r2,1
 1003348:	18800426 	beq	r3,r2,100335c <_ZNSt6locale5_ImplC2ERKS0_m+0x29c>
 100334c:	00800084 	movi	r2,2
 1003350:	18800e26 	beq	r3,r2,100338c <_ZNSt6locale5_ImplC2ERKS0_m+0x2cc>
 1003354:	008000c4 	movi	r2,3
 1003358:	18800526 	beq	r3,r2,1003370 <_ZNSt6locale5_ImplC2ERKS0_m+0x2b0>
 100335c:	00bfffc4 	movi	r2,-1
 1003360:	20800e26 	beq	r4,r2,100339c <_ZNSt6locale5_ImplC2ERKS0_m+0x2dc>
 1003364:	d9001717 	ldw	r4,92(sp)
 1003368:	d8800115 	stw	r2,4(sp)
 100336c:	1041bac0 	call	1041bac <_Unwind_SjLj_Resume>
 1003370:	d9001717 	ldw	r4,92(sp)
 1003374:	1035ee80 	call	1035ee8 <__cxa_begin_catch>
 1003378:	d9001417 	ldw	r4,80(sp)
 100337c:	1002b2c0 	call	1002b2c <_ZNSt6locale5_ImplD1Ev>
 1003380:	008000c4 	movi	r2,3
 1003384:	d8800115 	stw	r2,4(sp)
 1003388:	10353e40 	call	10353e4 <__cxa_rethrow>
 100338c:	d8000115 	stw	zero,4(sp)
 1003390:	1035e440 	call	1035e44 <__cxa_end_catch>
 1003394:	00bfffc4 	movi	r2,-1
 1003398:	003ff206 	br	1003364 <_ZNSt6locale5_ImplC2ERKS0_m+0x2a4>
 100339c:	d9001717 	ldw	r4,92(sp)
 10033a0:	00bfffc4 	movi	r2,-1
 10033a4:	d8800115 	stw	r2,4(sp)
 10033a8:	10365f40 	call	10365f4 <__cxa_call_unexpected>

010033ac <_ZNSt6localeD1Ev>:
 10033ac:	deffee04 	addi	sp,sp,-72
 10033b0:	008040f4 	movhi	r2,259
 10033b4:	1099dd04 	addi	r2,r2,26484
 10033b8:	00c04174 	movhi	r3,261
 10033bc:	18dc3304 	addi	r3,r3,28876
 10033c0:	d8800615 	stw	r2,24(sp)
 10033c4:	d9000e15 	stw	r4,56(sp)
 10033c8:	00804034 	movhi	r2,256
 10033cc:	108d1b04 	addi	r2,r2,13420
 10033d0:	d809883a 	mov	r4,sp
 10033d4:	d8c00715 	stw	r3,28(sp)
 10033d8:	d8800915 	stw	r2,36(sp)
 10033dc:	dfc01115 	stw	ra,68(sp)
 10033e0:	df001015 	stw	fp,64(sp)
 10033e4:	ddc00f15 	stw	r23,60(sp)
 10033e8:	dec00815 	stw	sp,32(sp)
 10033ec:	dec00a15 	stw	sp,40(sp)
 10033f0:	10418e00 	call	10418e0 <_Unwind_SjLj_Register>
 10033f4:	d8800e17 	ldw	r2,56(sp)
 10033f8:	00c00044 	movi	r3,1
 10033fc:	017fffc4 	movi	r5,-1
 1003400:	10800017 	ldw	r2,0(r2)
 1003404:	d8c00115 	stw	r3,4(sp)
 1003408:	d8800d15 	stw	r2,52(sp)
 100340c:	1009883a 	mov	r4,r2
 1003410:	1033ad40 	call	1033ad4 <_ZN9__gnu_cxx18__exchange_and_addEPVii>
 1003414:	00c00044 	movi	r3,1
 1003418:	10c00726 	beq	r2,r3,1003438 <_ZNSt6localeD1Ev+0x8c>
 100341c:	d809883a 	mov	r4,sp
 1003420:	10418f00 	call	10418f0 <_Unwind_SjLj_Unregister>
 1003424:	dfc01117 	ldw	ra,68(sp)
 1003428:	df001017 	ldw	fp,64(sp)
 100342c:	ddc00f17 	ldw	r23,60(sp)
 1003430:	dec01204 	addi	sp,sp,72
 1003434:	f800283a 	ret
 1003438:	d8800d17 	ldw	r2,52(sp)
 100343c:	103ff726 	beq	r2,zero,100341c <_ZNSt6localeD1Ev+0x70>
 1003440:	1009883a 	mov	r4,r2
 1003444:	1002b2c0 	call	1002b2c <_ZNSt6locale5_ImplD1Ev>
 1003448:	d9000d17 	ldw	r4,52(sp)
 100344c:	10360000 	call	1036000 <_ZdlPv>
 1003450:	d809883a 	mov	r4,sp
 1003454:	10418f00 	call	10418f0 <_Unwind_SjLj_Unregister>
 1003458:	dfc01117 	ldw	ra,68(sp)
 100345c:	df001017 	ldw	fp,64(sp)
 1003460:	ddc00f17 	ldw	r23,60(sp)
 1003464:	dec01204 	addi	sp,sp,72
 1003468:	f800283a 	ret
 100346c:	d8800317 	ldw	r2,12(sp)
 1003470:	00ffffc4 	movi	r3,-1
 1003474:	d9000217 	ldw	r4,8(sp)
 1003478:	10c00226 	beq	r2,r3,1003484 <_ZNSt6localeD1Ev+0xd8>
 100347c:	d8c00115 	stw	r3,4(sp)
 1003480:	1041bac0 	call	1041bac <_Unwind_SjLj_Resume>
 1003484:	00bfffc4 	movi	r2,-1
 1003488:	d8800115 	stw	r2,4(sp)
 100348c:	10365f40 	call	10365f4 <__cxa_call_unexpected>

01003490 <_ZNSt6localeD2Ev>:
 1003490:	deffee04 	addi	sp,sp,-72
 1003494:	008040f4 	movhi	r2,259
 1003498:	1099dd04 	addi	r2,r2,26484
 100349c:	00c04174 	movhi	r3,261
 10034a0:	18dc3704 	addi	r3,r3,28892
 10034a4:	d8800615 	stw	r2,24(sp)
 10034a8:	d9000e15 	stw	r4,56(sp)
 10034ac:	00804034 	movhi	r2,256
 10034b0:	108d5404 	addi	r2,r2,13648
 10034b4:	d809883a 	mov	r4,sp
 10034b8:	d8c00715 	stw	r3,28(sp)
 10034bc:	d8800915 	stw	r2,36(sp)
 10034c0:	dfc01115 	stw	ra,68(sp)
 10034c4:	df001015 	stw	fp,64(sp)
 10034c8:	ddc00f15 	stw	r23,60(sp)
 10034cc:	dec00815 	stw	sp,32(sp)
 10034d0:	dec00a15 	stw	sp,40(sp)
 10034d4:	10418e00 	call	10418e0 <_Unwind_SjLj_Register>
 10034d8:	d8800e17 	ldw	r2,56(sp)
 10034dc:	00c00044 	movi	r3,1
 10034e0:	017fffc4 	movi	r5,-1
 10034e4:	10800017 	ldw	r2,0(r2)
 10034e8:	d8c00115 	stw	r3,4(sp)
 10034ec:	d8800d15 	stw	r2,52(sp)
 10034f0:	1009883a 	mov	r4,r2
 10034f4:	1033ad40 	call	1033ad4 <_ZN9__gnu_cxx18__exchange_and_addEPVii>
 10034f8:	00c00044 	movi	r3,1
 10034fc:	10c00726 	beq	r2,r3,100351c <_ZNSt6localeD2Ev+0x8c>
 1003500:	d809883a 	mov	r4,sp
 1003504:	10418f00 	call	10418f0 <_Unwind_SjLj_Unregister>
 1003508:	dfc01117 	ldw	ra,68(sp)
 100350c:	df001017 	ldw	fp,64(sp)
 1003510:	ddc00f17 	ldw	r23,60(sp)
 1003514:	dec01204 	addi	sp,sp,72
 1003518:	f800283a 	ret
 100351c:	d8800d17 	ldw	r2,52(sp)
 1003520:	103ff726 	beq	r2,zero,1003500 <_ZNSt6localeD2Ev+0x70>
 1003524:	1009883a 	mov	r4,r2
 1003528:	1002b2c0 	call	1002b2c <_ZNSt6locale5_ImplD1Ev>
 100352c:	d9000d17 	ldw	r4,52(sp)
 1003530:	10360000 	call	1036000 <_ZdlPv>
 1003534:	d809883a 	mov	r4,sp
 1003538:	10418f00 	call	10418f0 <_Unwind_SjLj_Unregister>
 100353c:	dfc01117 	ldw	ra,68(sp)
 1003540:	df001017 	ldw	fp,64(sp)
 1003544:	ddc00f17 	ldw	r23,60(sp)
 1003548:	dec01204 	addi	sp,sp,72
 100354c:	f800283a 	ret
 1003550:	d8800317 	ldw	r2,12(sp)
 1003554:	00ffffc4 	movi	r3,-1
 1003558:	d9000217 	ldw	r4,8(sp)
 100355c:	10c00226 	beq	r2,r3,1003568 <_ZNSt6localeD2Ev+0xd8>
 1003560:	d8c00115 	stw	r3,4(sp)
 1003564:	1041bac0 	call	1041bac <_Unwind_SjLj_Resume>
 1003568:	00bfffc4 	movi	r2,-1
 100356c:	d8800115 	stw	r2,4(sp)
 1003570:	10365f40 	call	10365f4 <__cxa_call_unexpected>

01003574 <_ZNSt6localeaSERKS_>:
 1003574:	deffed04 	addi	sp,sp,-76
 1003578:	008040f4 	movhi	r2,259
 100357c:	1099dd04 	addi	r2,r2,26484
 1003580:	d8800615 	stw	r2,24(sp)
 1003584:	00c04174 	movhi	r3,261
 1003588:	18dc3b04 	addi	r3,r3,28908
 100358c:	00804034 	movhi	r2,256
 1003590:	108d9304 	addi	r2,r2,13900
 1003594:	d9000e15 	stw	r4,56(sp)
 1003598:	d809883a 	mov	r4,sp
 100359c:	d8800915 	stw	r2,36(sp)
 10035a0:	d9400f15 	stw	r5,60(sp)
 10035a4:	dfc01215 	stw	ra,72(sp)
 10035a8:	df001115 	stw	fp,68(sp)
 10035ac:	ddc01015 	stw	r23,64(sp)
 10035b0:	d8c00715 	stw	r3,28(sp)
 10035b4:	dec00815 	stw	sp,32(sp)
 10035b8:	dec00a15 	stw	sp,40(sp)
 10035bc:	10418e00 	call	10418e0 <_Unwind_SjLj_Register>
 10035c0:	00800084 	movi	r2,2
 10035c4:	d8800115 	stw	r2,4(sp)
 10035c8:	d8800f17 	ldw	r2,60(sp)
 10035cc:	01400044 	movi	r5,1
 10035d0:	11000017 	ldw	r4,0(r2)
 10035d4:	1033ae80 	call	1033ae8 <_ZN9__gnu_cxx12__atomic_addEPVii>
 10035d8:	d8c00e17 	ldw	r3,56(sp)
 10035dc:	00800044 	movi	r2,1
 10035e0:	017fffc4 	movi	r5,-1
 10035e4:	18c00017 	ldw	r3,0(r3)
 10035e8:	d8800115 	stw	r2,4(sp)
 10035ec:	d8c00d15 	stw	r3,52(sp)
 10035f0:	1809883a 	mov	r4,r3
 10035f4:	1033ad40 	call	1033ad4 <_ZN9__gnu_cxx18__exchange_and_addEPVii>
 10035f8:	00c00044 	movi	r3,1
 10035fc:	10c00c26 	beq	r2,r3,1003630 <_ZNSt6localeaSERKS_+0xbc>
 1003600:	d8c00f17 	ldw	r3,60(sp)
 1003604:	d809883a 	mov	r4,sp
 1003608:	18800017 	ldw	r2,0(r3)
 100360c:	d8c00e17 	ldw	r3,56(sp)
 1003610:	18800015 	stw	r2,0(r3)
 1003614:	10418f00 	call	10418f0 <_Unwind_SjLj_Unregister>
 1003618:	d8800e17 	ldw	r2,56(sp)
 100361c:	dfc01217 	ldw	ra,72(sp)
 1003620:	df001117 	ldw	fp,68(sp)
 1003624:	ddc01017 	ldw	r23,64(sp)
 1003628:	dec01304 	addi	sp,sp,76
 100362c:	f800283a 	ret
 1003630:	d8800d17 	ldw	r2,52(sp)
 1003634:	103ff226 	beq	r2,zero,1003600 <_ZNSt6localeaSERKS_+0x8c>
 1003638:	1009883a 	mov	r4,r2
 100363c:	1002b2c0 	call	1002b2c <_ZNSt6locale5_ImplD1Ev>
 1003640:	d9000d17 	ldw	r4,52(sp)
 1003644:	10360000 	call	1036000 <_ZdlPv>
 1003648:	003fed06 	br	1003600 <_ZNSt6localeaSERKS_+0x8c>
 100364c:	d9400317 	ldw	r5,12(sp)
 1003650:	00bfffc4 	movi	r2,-1
 1003654:	d9000217 	ldw	r4,8(sp)
 1003658:	28800226 	beq	r5,r2,1003664 <_ZNSt6localeaSERKS_+0xf0>
 100365c:	d8800115 	stw	r2,4(sp)
 1003660:	1041bac0 	call	1041bac <_Unwind_SjLj_Resume>
 1003664:	00bfffc4 	movi	r2,-1
 1003668:	d8800115 	stw	r2,4(sp)
 100366c:	10365f40 	call	10365f4 <__cxa_call_unexpected>

01003670 <_ZNSt6locale5_ImplD2Ev>:
 1003670:	deffe104 	addi	sp,sp,-124
 1003674:	008040f4 	movhi	r2,259
 1003678:	1099dd04 	addi	r2,r2,26484
 100367c:	d8800615 	stw	r2,24(sp)
 1003680:	00c04174 	movhi	r3,261
 1003684:	18dc3f04 	addi	r3,r3,28924
 1003688:	00804034 	movhi	r2,256
 100368c:	108e2e04 	addi	r2,r2,14520
 1003690:	d9001415 	stw	r4,80(sp)
 1003694:	d809883a 	mov	r4,sp
 1003698:	d8800915 	stw	r2,36(sp)
 100369c:	dfc01e15 	stw	ra,120(sp)
 10036a0:	df001d15 	stw	fp,116(sp)
 10036a4:	ddc01c15 	stw	r23,112(sp)
 10036a8:	dd801b15 	stw	r22,108(sp)
 10036ac:	dd401a15 	stw	r21,104(sp)
 10036b0:	dd001915 	stw	r20,100(sp)
 10036b4:	dcc01815 	stw	r19,96(sp)
 10036b8:	dc801715 	stw	r18,92(sp)
 10036bc:	dc401615 	stw	r17,88(sp)
 10036c0:	dc001515 	stw	r16,84(sp)
 10036c4:	d8c00715 	stw	r3,28(sp)
 10036c8:	dec00815 	stw	sp,32(sp)
 10036cc:	dec00a15 	stw	sp,40(sp)
 10036d0:	10418e00 	call	10418e0 <_Unwind_SjLj_Register>
 10036d4:	d8801417 	ldw	r2,80(sp)
 10036d8:	11000117 	ldw	r4,4(r2)
 10036dc:	20002726 	beq	r4,zero,100377c <_ZNSt6locale5_ImplD2Ev+0x10c>
 10036e0:	10800217 	ldw	r2,8(r2)
 10036e4:	10002426 	beq	r2,zero,1003778 <_ZNSt6locale5_ImplD2Ev+0x108>
 10036e8:	d8001115 	stw	zero,68(sp)
 10036ec:	d8000d15 	stw	zero,52(sp)
 10036f0:	d8c01417 	ldw	r3,80(sp)
 10036f4:	18800117 	ldw	r2,4(r3)
 10036f8:	d8c00d17 	ldw	r3,52(sp)
 10036fc:	1885883a 	add	r2,r3,r2
 1003700:	10800017 	ldw	r2,0(r2)
 1003704:	d8801315 	stw	r2,76(sp)
 1003708:	10000e26 	beq	r2,zero,1003744 <_ZNSt6locale5_ImplD2Ev+0xd4>
 100370c:	01000104 	movi	r4,4
 1003710:	d9000115 	stw	r4,4(sp)
 1003714:	017fffc4 	movi	r5,-1
 1003718:	1109883a 	add	r4,r2,r4
 100371c:	1033ad40 	call	1033ad4 <_ZN9__gnu_cxx18__exchange_and_addEPVii>
 1003720:	00c00044 	movi	r3,1
 1003724:	10c0071e 	bne	r2,r3,1003744 <_ZNSt6locale5_ImplD2Ev+0xd4>
 1003728:	d8c01317 	ldw	r3,76(sp)
 100372c:	18800017 	ldw	r2,0(r3)
 1003730:	1809883a 	mov	r4,r3
 1003734:	00c000c4 	movi	r3,3
 1003738:	11400117 	ldw	r5,4(r2)
 100373c:	d8c00115 	stw	r3,4(sp)
 1003740:	283ee83a 	callr	r5
 1003744:	d8c01417 	ldw	r3,80(sp)
 1003748:	18800217 	ldw	r2,8(r3)
 100374c:	d8c01117 	ldw	r3,68(sp)
 1003750:	18c00044 	addi	r3,r3,1
 1003754:	d8c01115 	stw	r3,68(sp)
 1003758:	d8c00d17 	ldw	r3,52(sp)
 100375c:	18c00104 	addi	r3,r3,4
 1003760:	d8c00d15 	stw	r3,52(sp)
 1003764:	d8c01117 	ldw	r3,68(sp)
 1003768:	18bfe136 	bltu	r3,r2,10036f0 <_ZNSt6locale5_ImplD2Ev+0x80>
 100376c:	d8801417 	ldw	r2,80(sp)
 1003770:	11000117 	ldw	r4,4(r2)
 1003774:	20000126 	beq	r4,zero,100377c <_ZNSt6locale5_ImplD2Ev+0x10c>
 1003778:	103600c0 	call	103600c <_ZdaPv>
 100377c:	d8c01417 	ldw	r3,80(sp)
 1003780:	19000317 	ldw	r4,12(r3)
 1003784:	20002a26 	beq	r4,zero,1003830 <_ZNSt6locale5_ImplD2Ev+0x1c0>
 1003788:	18800217 	ldw	r2,8(r3)
 100378c:	10002726 	beq	r2,zero,100382c <_ZNSt6locale5_ImplD2Ev+0x1bc>
 1003790:	d8001015 	stw	zero,64(sp)
 1003794:	d8000e15 	stw	zero,56(sp)
 1003798:	00000a06 	br	10037c4 <_ZNSt6locale5_ImplD2Ev+0x154>
 100379c:	d8c01417 	ldw	r3,80(sp)
 10037a0:	18800217 	ldw	r2,8(r3)
 10037a4:	d8c01017 	ldw	r3,64(sp)
 10037a8:	18c00044 	addi	r3,r3,1
 10037ac:	d8c01015 	stw	r3,64(sp)
 10037b0:	d8c00e17 	ldw	r3,56(sp)
 10037b4:	18c00104 	addi	r3,r3,4
 10037b8:	d8c00e15 	stw	r3,56(sp)
 10037bc:	d8c01017 	ldw	r3,64(sp)
 10037c0:	1880172e 	bgeu	r3,r2,1003820 <_ZNSt6locale5_ImplD2Ev+0x1b0>
 10037c4:	d8c01417 	ldw	r3,80(sp)
 10037c8:	18800317 	ldw	r2,12(r3)
 10037cc:	d8c00e17 	ldw	r3,56(sp)
 10037d0:	10c5883a 	add	r2,r2,r3
 10037d4:	10800017 	ldw	r2,0(r2)
 10037d8:	d8801215 	stw	r2,72(sp)
 10037dc:	103fef26 	beq	r2,zero,100379c <_ZNSt6locale5_ImplD2Ev+0x12c>
 10037e0:	00800084 	movi	r2,2
 10037e4:	d8800115 	stw	r2,4(sp)
 10037e8:	d8801217 	ldw	r2,72(sp)
 10037ec:	017fffc4 	movi	r5,-1
 10037f0:	11000104 	addi	r4,r2,4
 10037f4:	1033ad40 	call	1033ad4 <_ZN9__gnu_cxx18__exchange_and_addEPVii>
 10037f8:	100b883a 	mov	r5,r2
 10037fc:	00800044 	movi	r2,1
 1003800:	28bfe61e 	bne	r5,r2,100379c <_ZNSt6locale5_ImplD2Ev+0x12c>
 1003804:	d8c01217 	ldw	r3,72(sp)
 1003808:	18800017 	ldw	r2,0(r3)
 100380c:	1809883a 	mov	r4,r3
 1003810:	10c00117 	ldw	r3,4(r2)
 1003814:	d9400115 	stw	r5,4(sp)
 1003818:	183ee83a 	callr	r3
 100381c:	003fdf06 	br	100379c <_ZNSt6locale5_ImplD2Ev+0x12c>
 1003820:	d8801417 	ldw	r2,80(sp)
 1003824:	11000317 	ldw	r4,12(r2)
 1003828:	20000126 	beq	r4,zero,1003830 <_ZNSt6locale5_ImplD2Ev+0x1c0>
 100382c:	103600c0 	call	103600c <_ZdaPv>
 1003830:	d8c01417 	ldw	r3,80(sp)
 1003834:	18800417 	ldw	r2,16(r3)
 1003838:	10001126 	beq	r2,zero,1003880 <_ZNSt6locale5_ImplD2Ev+0x210>
 100383c:	d8000f15 	stw	zero,60(sp)
 1003840:	d8c01417 	ldw	r3,80(sp)
 1003844:	18800417 	ldw	r2,16(r3)
 1003848:	d8c00f17 	ldw	r3,60(sp)
 100384c:	10c5883a 	add	r2,r2,r3
 1003850:	11000017 	ldw	r4,0(r2)
 1003854:	20000126 	beq	r4,zero,100385c <_ZNSt6locale5_ImplD2Ev+0x1ec>
 1003858:	103600c0 	call	103600c <_ZdaPv>
 100385c:	d8800f17 	ldw	r2,60(sp)
 1003860:	00c00604 	movi	r3,24
 1003864:	10800104 	addi	r2,r2,4
 1003868:	d8800f15 	stw	r2,60(sp)
 100386c:	10fff41e 	bne	r2,r3,1003840 <_ZNSt6locale5_ImplD2Ev+0x1d0>
 1003870:	d8801417 	ldw	r2,80(sp)
 1003874:	11000417 	ldw	r4,16(r2)
 1003878:	20000126 	beq	r4,zero,1003880 <_ZNSt6locale5_ImplD2Ev+0x210>
 100387c:	103600c0 	call	103600c <_ZdaPv>
 1003880:	d809883a 	mov	r4,sp
 1003884:	10418f00 	call	10418f0 <_Unwind_SjLj_Unregister>
 1003888:	dfc01e17 	ldw	ra,120(sp)
 100388c:	df001d17 	ldw	fp,116(sp)
 1003890:	ddc01c17 	ldw	r23,112(sp)
 1003894:	dd801b17 	ldw	r22,108(sp)
 1003898:	dd401a17 	ldw	r21,104(sp)
 100389c:	dd001917 	ldw	r20,100(sp)
 10038a0:	dcc01817 	ldw	r19,96(sp)
 10038a4:	dc801717 	ldw	r18,92(sp)
 10038a8:	dc401617 	ldw	r17,88(sp)
 10038ac:	dc001517 	ldw	r16,84(sp)
 10038b0:	dec01f04 	addi	sp,sp,124
 10038b4:	f800283a 	ret
 10038b8:	d8c00117 	ldw	r3,4(sp)
 10038bc:	00800044 	movi	r2,1
 10038c0:	d9000217 	ldw	r4,8(sp)
 10038c4:	d9400317 	ldw	r5,12(sp)
 10038c8:	18800826 	beq	r3,r2,10038ec <_ZNSt6locale5_ImplD2Ev+0x27c>
 10038cc:	00800084 	movi	r2,2
 10038d0:	18800a26 	beq	r3,r2,10038fc <_ZNSt6locale5_ImplD2Ev+0x28c>
 10038d4:	008000c4 	movi	r2,3
 10038d8:	18800426 	beq	r3,r2,10038ec <_ZNSt6locale5_ImplD2Ev+0x27c>
 10038dc:	1035ee80 	call	1035ee8 <__cxa_begin_catch>
 10038e0:	d8000115 	stw	zero,4(sp)
 10038e4:	1035e440 	call	1035e44 <__cxa_end_catch>
 10038e8:	003fac06 	br	100379c <_ZNSt6locale5_ImplD2Ev+0x12c>
 10038ec:	00bfffc4 	movi	r2,-1
 10038f0:	28800626 	beq	r5,r2,100390c <_ZNSt6locale5_ImplD2Ev+0x29c>
 10038f4:	d8800115 	stw	r2,4(sp)
 10038f8:	1041bac0 	call	1041bac <_Unwind_SjLj_Resume>
 10038fc:	1035ee80 	call	1035ee8 <__cxa_begin_catch>
 1003900:	d8000115 	stw	zero,4(sp)
 1003904:	1035e440 	call	1035e44 <__cxa_end_catch>
 1003908:	003f8e06 	br	1003744 <_ZNSt6locale5_ImplD2Ev+0xd4>
 100390c:	00bfffc4 	movi	r2,-1
 1003910:	d8800115 	stw	r2,4(sp)
 1003914:	10365f40 	call	10365f4 <__cxa_call_unexpected>

01003918 <_ZNSt6locale5_Impl16_M_install_facetEPKNS_2idEPKNS_5facetE>:
 1003918:	deffd704 	addi	sp,sp,-164
 100391c:	008040f4 	movhi	r2,259
 1003920:	1099dd04 	addi	r2,r2,26484
 1003924:	d8800615 	stw	r2,24(sp)
 1003928:	00c04174 	movhi	r3,261
 100392c:	18dc4604 	addi	r3,r3,28952
 1003930:	00804034 	movhi	r2,256
 1003934:	108f2904 	addi	r2,r2,15524
 1003938:	d9001a15 	stw	r4,104(sp)
 100393c:	d809883a 	mov	r4,sp
 1003940:	d8800915 	stw	r2,36(sp)
 1003944:	dfc02815 	stw	ra,160(sp)
 1003948:	df002715 	stw	fp,156(sp)
 100394c:	ddc02615 	stw	r23,152(sp)
 1003950:	dd802515 	stw	r22,148(sp)
 1003954:	dd402415 	stw	r21,144(sp)
 1003958:	dd002315 	stw	r20,140(sp)
 100395c:	dcc02215 	stw	r19,136(sp)
 1003960:	dc802115 	stw	r18,132(sp)
 1003964:	dc402015 	stw	r17,128(sp)
 1003968:	dc001f15 	stw	r16,124(sp)
 100396c:	d8c00715 	stw	r3,28(sp)
 1003970:	d9801c15 	stw	r6,112(sp)
 1003974:	dec00815 	stw	sp,32(sp)
 1003978:	dec00a15 	stw	sp,40(sp)
 100397c:	d9401b15 	stw	r5,108(sp)
 1003980:	10418e00 	call	10418e0 <_Unwind_SjLj_Register>
 1003984:	d8801c17 	ldw	r2,112(sp)
 1003988:	10004826 	beq	r2,zero,1003aac <_ZNSt6locale5_Impl16_M_install_facetEPKNS_2idEPKNS_5facetE+0x194>
 100398c:	d9001b17 	ldw	r4,108(sp)
 1003990:	00ffffc4 	movi	r3,-1
 1003994:	d8c00115 	stw	r3,4(sp)
 1003998:	10020600 	call	1002060 <_ZNKSt6locale2id5_M_idEv>
 100399c:	d9001a17 	ldw	r4,104(sp)
 10039a0:	d8801515 	stw	r2,84(sp)
 10039a4:	d9401517 	ldw	r5,84(sp)
 10039a8:	20800217 	ldw	r2,8(r4)
 10039ac:	10bfffc4 	addi	r2,r2,-1
 10039b0:	11404c36 	bltu	r2,r5,1003ae4 <_ZNSt6locale5_Impl16_M_install_facetEPKNS_2idEPKNS_5facetE+0x1cc>
 10039b4:	da801c17 	ldw	r10,112(sp)
 10039b8:	00800144 	movi	r2,5
 10039bc:	d8800115 	stw	r2,4(sp)
 10039c0:	51000104 	addi	r4,r10,4
 10039c4:	01400044 	movi	r5,1
 10039c8:	1033ae80 	call	1033ae8 <_ZN9__gnu_cxx12__atomic_addEPVii>
 10039cc:	d8801a17 	ldw	r2,104(sp)
 10039d0:	d9001517 	ldw	r4,84(sp)
 10039d4:	10c00117 	ldw	r3,4(r2)
 10039d8:	2105883a 	add	r2,r4,r4
 10039dc:	1085883a 	add	r2,r2,r2
 10039e0:	10c5883a 	add	r2,r2,r3
 10039e4:	11400017 	ldw	r5,0(r2)
 10039e8:	d8801415 	stw	r2,80(sp)
 10039ec:	d9401715 	stw	r5,92(sp)
 10039f0:	28009926 	beq	r5,zero,1003c58 <_ZNSt6locale5_Impl16_M_install_facetEPKNS_2idEPKNS_5facetE+0x340>
 10039f4:	01000104 	movi	r4,4
 10039f8:	d9000115 	stw	r4,4(sp)
 10039fc:	2909883a 	add	r4,r5,r4
 1003a00:	017fffc4 	movi	r5,-1
 1003a04:	1033ad40 	call	1033ad4 <_ZN9__gnu_cxx18__exchange_and_addEPVii>
 1003a08:	00c00044 	movi	r3,1
 1003a0c:	10c09626 	beq	r2,r3,1003c68 <_ZNSt6locale5_Impl16_M_install_facetEPKNS_2idEPKNS_5facetE+0x350>
 1003a10:	d8801c17 	ldw	r2,112(sp)
 1003a14:	da801417 	ldw	r10,80(sp)
 1003a18:	50800015 	stw	r2,0(r10)
 1003a1c:	d9401a17 	ldw	r5,104(sp)
 1003a20:	28800217 	ldw	r2,8(r5)
 1003a24:	10002126 	beq	r2,zero,1003aac <_ZNSt6locale5_Impl16_M_install_facetEPKNS_2idEPKNS_5facetE+0x194>
 1003a28:	d8000f15 	stw	zero,60(sp)
 1003a2c:	d8000d15 	stw	zero,52(sp)
 1003a30:	d9801a17 	ldw	r6,104(sp)
 1003a34:	da800d17 	ldw	r10,52(sp)
 1003a38:	30800317 	ldw	r2,12(r6)
 1003a3c:	da801615 	stw	r10,88(sp)
 1003a40:	1285883a 	add	r2,r2,r10
 1003a44:	10800017 	ldw	r2,0(r2)
 1003a48:	d8800e15 	stw	r2,56(sp)
 1003a4c:	10000e26 	beq	r2,zero,1003a88 <_ZNSt6locale5_Impl16_M_install_facetEPKNS_2idEPKNS_5facetE+0x170>
 1003a50:	00800084 	movi	r2,2
 1003a54:	d8800115 	stw	r2,4(sp)
 1003a58:	d8800e17 	ldw	r2,56(sp)
 1003a5c:	017fffc4 	movi	r5,-1
 1003a60:	11000104 	addi	r4,r2,4
 1003a64:	1033ad40 	call	1033ad4 <_ZN9__gnu_cxx18__exchange_and_addEPVii>
 1003a68:	100b883a 	mov	r5,r2
 1003a6c:	00800044 	movi	r2,1
 1003a70:	28808526 	beq	r5,r2,1003c88 <_ZNSt6locale5_Impl16_M_install_facetEPKNS_2idEPKNS_5facetE+0x370>
 1003a74:	d9801a17 	ldw	r6,104(sp)
 1003a78:	da801617 	ldw	r10,88(sp)
 1003a7c:	30800317 	ldw	r2,12(r6)
 1003a80:	1285883a 	add	r2,r2,r10
 1003a84:	10000015 	stw	zero,0(r2)
 1003a88:	d8c01a17 	ldw	r3,104(sp)
 1003a8c:	d9000f17 	ldw	r4,60(sp)
 1003a90:	d9400d17 	ldw	r5,52(sp)
 1003a94:	18800217 	ldw	r2,8(r3)
 1003a98:	21000044 	addi	r4,r4,1
 1003a9c:	29400104 	addi	r5,r5,4
 1003aa0:	d9000f15 	stw	r4,60(sp)
 1003aa4:	d9400d15 	stw	r5,52(sp)
 1003aa8:	20bfe136 	bltu	r4,r2,1003a30 <_ZNSt6locale5_Impl16_M_install_facetEPKNS_2idEPKNS_5facetE+0x118>
 1003aac:	d809883a 	mov	r4,sp
 1003ab0:	10418f00 	call	10418f0 <_Unwind_SjLj_Unregister>
 1003ab4:	dfc02817 	ldw	ra,160(sp)
 1003ab8:	df002717 	ldw	fp,156(sp)
 1003abc:	ddc02617 	ldw	r23,152(sp)
 1003ac0:	dd802517 	ldw	r22,148(sp)
 1003ac4:	dd402417 	ldw	r21,144(sp)
 1003ac8:	dd002317 	ldw	r20,140(sp)
 1003acc:	dcc02217 	ldw	r19,136(sp)
 1003ad0:	dc802117 	ldw	r18,132(sp)
 1003ad4:	dc402017 	ldw	r17,128(sp)
 1003ad8:	dc001f17 	ldw	r16,124(sp)
 1003adc:	dec02904 	addi	sp,sp,164
 1003ae0:	f800283a 	ret
 1003ae4:	da801a17 	ldw	r10,104(sp)
 1003ae8:	29800104 	addi	r6,r5,4
 1003aec:	3185883a 	add	r2,r6,r6
 1003af0:	52800117 	ldw	r10,4(r10)
 1003af4:	1085883a 	add	r2,r2,r2
 1003af8:	1009883a 	mov	r4,r2
 1003afc:	d9801315 	stw	r6,76(sp)
 1003b00:	d8801915 	stw	r2,100(sp)
 1003b04:	da801215 	stw	r10,72(sp)
 1003b08:	1035d7c0 	call	1035d7c <_Znam>
 1003b0c:	d8801115 	stw	r2,68(sp)
 1003b10:	d8801a17 	ldw	r2,104(sp)
 1003b14:	d8c01117 	ldw	r3,68(sp)
 1003b18:	11000217 	ldw	r4,8(r2)
 1003b1c:	d8c01815 	stw	r3,96(sp)
 1003b20:	20000d26 	beq	r4,zero,1003b58 <_ZNSt6locale5_Impl16_M_install_facetEPKNS_2idEPKNS_5facetE+0x240>
 1003b24:	11c00117 	ldw	r7,4(r2)
 1003b28:	02400104 	movi	r9,4
 1003b2c:	000d883a 	mov	r6,zero
 1003b30:	000b883a 	mov	r5,zero
 1003b34:	02000044 	movi	r8,1
 1003b38:	3945883a 	add	r2,r7,r5
 1003b3c:	da801117 	ldw	r10,68(sp)
 1003b40:	10c00017 	ldw	r3,0(r2)
 1003b44:	320d883a 	add	r6,r6,r8
 1003b48:	5145883a 	add	r2,r10,r5
 1003b4c:	10c00015 	stw	r3,0(r2)
 1003b50:	2a4b883a 	add	r5,r5,r9
 1003b54:	313ff81e 	bne	r6,r4,1003b38 <_ZNSt6locale5_Impl16_M_install_facetEPKNS_2idEPKNS_5facetE+0x220>
 1003b58:	d8801317 	ldw	r2,76(sp)
 1003b5c:	20800b2e 	bgeu	r4,r2,1003b8c <_ZNSt6locale5_Impl16_M_install_facetEPKNS_2idEPKNS_5facetE+0x274>
 1003b60:	d8c01117 	ldw	r3,68(sp)
 1003b64:	2105883a 	add	r2,r4,r4
 1003b68:	1085883a 	add	r2,r2,r2
 1003b6c:	1885883a 	add	r2,r3,r2
 1003b70:	01400044 	movi	r5,1
 1003b74:	00c00104 	movi	r3,4
 1003b78:	d9801317 	ldw	r6,76(sp)
 1003b7c:	2149883a 	add	r4,r4,r5
 1003b80:	10000015 	stw	zero,0(r2)
 1003b84:	10c5883a 	add	r2,r2,r3
 1003b88:	21bffb36 	bltu	r4,r6,1003b78 <_ZNSt6locale5_Impl16_M_install_facetEPKNS_2idEPKNS_5facetE+0x260>
 1003b8c:	da801a17 	ldw	r10,104(sp)
 1003b90:	008001c4 	movi	r2,7
 1003b94:	d9001917 	ldw	r4,100(sp)
 1003b98:	52800317 	ldw	r10,12(r10)
 1003b9c:	d8800115 	stw	r2,4(sp)
 1003ba0:	da801015 	stw	r10,64(sp)
 1003ba4:	1035d7c0 	call	1035d7c <_Znam>
 1003ba8:	100f883a 	mov	r7,r2
 1003bac:	d8801a17 	ldw	r2,104(sp)
 1003bb0:	11000217 	ldw	r4,8(r2)
 1003bb4:	20000d26 	beq	r4,zero,1003bec <_ZNSt6locale5_Impl16_M_install_facetEPKNS_2idEPKNS_5facetE+0x2d4>
 1003bb8:	d9401a17 	ldw	r5,104(sp)
 1003bbc:	000d883a 	mov	r6,zero
 1003bc0:	02800044 	movi	r10,1
 1003bc4:	2a000317 	ldw	r8,12(r5)
 1003bc8:	02400104 	movi	r9,4
 1003bcc:	000b883a 	mov	r5,zero
 1003bd0:	2a05883a 	add	r2,r5,r8
 1003bd4:	10c00017 	ldw	r3,0(r2)
 1003bd8:	328d883a 	add	r6,r6,r10
 1003bdc:	29c5883a 	add	r2,r5,r7
 1003be0:	10c00015 	stw	r3,0(r2)
 1003be4:	2a4b883a 	add	r5,r5,r9
 1003be8:	313ff91e 	bne	r6,r4,1003bd0 <_ZNSt6locale5_Impl16_M_install_facetEPKNS_2idEPKNS_5facetE+0x2b8>
 1003bec:	d9801317 	ldw	r6,76(sp)
 1003bf0:	21800a2e 	bgeu	r4,r6,1003c1c <_ZNSt6locale5_Impl16_M_install_facetEPKNS_2idEPKNS_5facetE+0x304>
 1003bf4:	2105883a 	add	r2,r4,r4
 1003bf8:	1085883a 	add	r2,r2,r2
 1003bfc:	3885883a 	add	r2,r7,r2
 1003c00:	01400044 	movi	r5,1
 1003c04:	00c00104 	movi	r3,4
 1003c08:	da801317 	ldw	r10,76(sp)
 1003c0c:	2149883a 	add	r4,r4,r5
 1003c10:	10000015 	stw	zero,0(r2)
 1003c14:	10c5883a 	add	r2,r2,r3
 1003c18:	22bffb36 	bltu	r4,r10,1003c08 <_ZNSt6locale5_Impl16_M_install_facetEPKNS_2idEPKNS_5facetE+0x2f0>
 1003c1c:	d8c01a17 	ldw	r3,104(sp)
 1003c20:	d8801317 	ldw	r2,76(sp)
 1003c24:	d9001117 	ldw	r4,68(sp)
 1003c28:	d9401217 	ldw	r5,72(sp)
 1003c2c:	18800215 	stw	r2,8(r3)
 1003c30:	19c00315 	stw	r7,12(r3)
 1003c34:	19000115 	stw	r4,4(r3)
 1003c38:	28000226 	beq	r5,zero,1003c44 <_ZNSt6locale5_Impl16_M_install_facetEPKNS_2idEPKNS_5facetE+0x32c>
 1003c3c:	2809883a 	mov	r4,r5
 1003c40:	103600c0 	call	103600c <_ZdaPv>
 1003c44:	d9801017 	ldw	r6,64(sp)
 1003c48:	303f5a26 	beq	r6,zero,10039b4 <_ZNSt6locale5_Impl16_M_install_facetEPKNS_2idEPKNS_5facetE+0x9c>
 1003c4c:	3009883a 	mov	r4,r6
 1003c50:	103600c0 	call	103600c <_ZdaPv>
 1003c54:	003f5706 	br	10039b4 <_ZNSt6locale5_Impl16_M_install_facetEPKNS_2idEPKNS_5facetE+0x9c>
 1003c58:	d9001c17 	ldw	r4,112(sp)
 1003c5c:	d8c01417 	ldw	r3,80(sp)
 1003c60:	19000015 	stw	r4,0(r3)
 1003c64:	003f6d06 	br	1003a1c <_ZNSt6locale5_Impl16_M_install_facetEPKNS_2idEPKNS_5facetE+0x104>
 1003c68:	d9801717 	ldw	r6,92(sp)
 1003c6c:	00c000c4 	movi	r3,3
 1003c70:	30800017 	ldw	r2,0(r6)
 1003c74:	3009883a 	mov	r4,r6
 1003c78:	11400117 	ldw	r5,4(r2)
 1003c7c:	d8c00115 	stw	r3,4(sp)
 1003c80:	283ee83a 	callr	r5
 1003c84:	003f6206 	br	1003a10 <_ZNSt6locale5_Impl16_M_install_facetEPKNS_2idEPKNS_5facetE+0xf8>
 1003c88:	d8c00e17 	ldw	r3,56(sp)
 1003c8c:	18800017 	ldw	r2,0(r3)
 1003c90:	1809883a 	mov	r4,r3
 1003c94:	10c00117 	ldw	r3,4(r2)
 1003c98:	d9400115 	stw	r5,4(sp)
 1003c9c:	183ee83a 	callr	r3
 1003ca0:	003f7406 	br	1003a74 <_ZNSt6locale5_Impl16_M_install_facetEPKNS_2idEPKNS_5facetE+0x15c>
 1003ca4:	d9000117 	ldw	r4,4(sp)
 1003ca8:	d9400217 	ldw	r5,8(sp)
 1003cac:	00800044 	movi	r2,1
 1003cb0:	d9001e15 	stw	r4,120(sp)
 1003cb4:	d9401d15 	stw	r5,116(sp)
 1003cb8:	d8c00317 	ldw	r3,12(sp)
 1003cbc:	20800f26 	beq	r4,r2,1003cfc <_ZNSt6locale5_Impl16_M_install_facetEPKNS_2idEPKNS_5facetE+0x3e4>
 1003cc0:	00800084 	movi	r2,2
 1003cc4:	20802526 	beq	r4,r2,1003d5c <_ZNSt6locale5_Impl16_M_install_facetEPKNS_2idEPKNS_5facetE+0x444>
 1003cc8:	008000c4 	movi	r2,3
 1003ccc:	20800b26 	beq	r4,r2,1003cfc <_ZNSt6locale5_Impl16_M_install_facetEPKNS_2idEPKNS_5facetE+0x3e4>
 1003cd0:	00800104 	movi	r2,4
 1003cd4:	20800926 	beq	r4,r2,1003cfc <_ZNSt6locale5_Impl16_M_install_facetEPKNS_2idEPKNS_5facetE+0x3e4>
 1003cd8:	00800144 	movi	r2,5
 1003cdc:	20801926 	beq	r4,r2,1003d44 <_ZNSt6locale5_Impl16_M_install_facetEPKNS_2idEPKNS_5facetE+0x42c>
 1003ce0:	00800184 	movi	r2,6
 1003ce4:	20800a26 	beq	r4,r2,1003d10 <_ZNSt6locale5_Impl16_M_install_facetEPKNS_2idEPKNS_5facetE+0x3f8>
 1003ce8:	2809883a 	mov	r4,r5
 1003cec:	1035ee80 	call	1035ee8 <__cxa_begin_catch>
 1003cf0:	d8000115 	stw	zero,4(sp)
 1003cf4:	1035e440 	call	1035e44 <__cxa_end_catch>
 1003cf8:	003f5e06 	br	1003a74 <_ZNSt6locale5_Impl16_M_install_facetEPKNS_2idEPKNS_5facetE+0x15c>
 1003cfc:	00bfffc4 	movi	r2,-1
 1003d00:	18800c26 	beq	r3,r2,1003d34 <_ZNSt6locale5_Impl16_M_install_facetEPKNS_2idEPKNS_5facetE+0x41c>
 1003d04:	d9001d17 	ldw	r4,116(sp)
 1003d08:	d8800115 	stw	r2,4(sp)
 1003d0c:	1041bac0 	call	1041bac <_Unwind_SjLj_Resume>
 1003d10:	d9001d17 	ldw	r4,116(sp)
 1003d14:	1035ee80 	call	1035ee8 <__cxa_begin_catch>
 1003d18:	d8c01817 	ldw	r3,96(sp)
 1003d1c:	18000226 	beq	r3,zero,1003d28 <_ZNSt6locale5_Impl16_M_install_facetEPKNS_2idEPKNS_5facetE+0x410>
 1003d20:	d9001117 	ldw	r4,68(sp)
 1003d24:	103600c0 	call	103600c <_ZdaPv>
 1003d28:	d9001e17 	ldw	r4,120(sp)
 1003d2c:	d9000115 	stw	r4,4(sp)
 1003d30:	10353e40 	call	10353e4 <__cxa_rethrow>
 1003d34:	d9001d17 	ldw	r4,116(sp)
 1003d38:	00bfffc4 	movi	r2,-1
 1003d3c:	d8800115 	stw	r2,4(sp)
 1003d40:	10365f40 	call	10365f4 <__cxa_call_unexpected>
 1003d44:	d8000115 	stw	zero,4(sp)
 1003d48:	1035e440 	call	1035e44 <__cxa_end_catch>
 1003d4c:	d9001d17 	ldw	r4,116(sp)
 1003d50:	00bfffc4 	movi	r2,-1
 1003d54:	d8800115 	stw	r2,4(sp)
 1003d58:	1041bac0 	call	1041bac <_Unwind_SjLj_Resume>
 1003d5c:	d9001d17 	ldw	r4,116(sp)
 1003d60:	1035ee80 	call	1035ee8 <__cxa_begin_catch>
 1003d64:	d8000115 	stw	zero,4(sp)
 1003d68:	1035e440 	call	1035e44 <__cxa_end_catch>
 1003d6c:	003f2806 	br	1003a10 <_ZNSt6locale5_Impl16_M_install_facetEPKNS_2idEPKNS_5facetE+0xf8>

01003d70 <_ZNSt6locale5_Impl16_M_replace_facetEPKS0_PKNS_2idE>:
 1003d70:	defffc04 	addi	sp,sp,-16
 1003d74:	dc800215 	stw	r18,8(sp)
 1003d78:	2025883a 	mov	r18,r4
 1003d7c:	3009883a 	mov	r4,r6
 1003d80:	dc400115 	stw	r17,4(sp)
 1003d84:	dc000015 	stw	r16,0(sp)
 1003d88:	dfc00315 	stw	ra,12(sp)
 1003d8c:	2821883a 	mov	r16,r5
 1003d90:	3023883a 	mov	r17,r6
 1003d94:	10020600 	call	1002060 <_ZNKSt6locale2id5_M_idEv>
 1003d98:	1009883a 	mov	r4,r2
 1003d9c:	80800217 	ldw	r2,8(r16)
 1003da0:	10bfffc4 	addi	r2,r2,-1
 1003da4:	11000e36 	bltu	r2,r4,1003de0 <_ZNSt6locale5_Impl16_M_replace_facetEPKS0_PKNS_2idE+0x70>
 1003da8:	80c00117 	ldw	r3,4(r16)
 1003dac:	2105883a 	add	r2,r4,r4
 1003db0:	1085883a 	add	r2,r2,r2
 1003db4:	10c5883a 	add	r2,r2,r3
 1003db8:	11800017 	ldw	r6,0(r2)
 1003dbc:	30000826 	beq	r6,zero,1003de0 <_ZNSt6locale5_Impl16_M_replace_facetEPKS0_PKNS_2idE+0x70>
 1003dc0:	9009883a 	mov	r4,r18
 1003dc4:	880b883a 	mov	r5,r17
 1003dc8:	dfc00317 	ldw	ra,12(sp)
 1003dcc:	dc800217 	ldw	r18,8(sp)
 1003dd0:	dc400117 	ldw	r17,4(sp)
 1003dd4:	dc000017 	ldw	r16,0(sp)
 1003dd8:	dec00404 	addi	sp,sp,16
 1003ddc:	10039181 	jmpi	1003918 <_ZNSt6locale5_Impl16_M_install_facetEPKNS_2idEPKNS_5facetE>
 1003de0:	010041b4 	movhi	r4,262
 1003de4:	2120c604 	addi	r4,r4,-31976
 1003de8:	10390cc0 	call	10390cc <_ZSt21__throw_runtime_errorPKc>

01003dec <_ZNSt6locale5_Impl19_M_replace_categoryEPKS0_PKPKNS_2idE>:
 1003dec:	defffc04 	addi	sp,sp,-16
 1003df0:	dc000015 	stw	r16,0(sp)
 1003df4:	3021883a 	mov	r16,r6
 1003df8:	31800017 	ldw	r6,0(r6)
 1003dfc:	dc800215 	stw	r18,8(sp)
 1003e00:	dc400115 	stw	r17,4(sp)
 1003e04:	dfc00315 	stw	ra,12(sp)
 1003e08:	2025883a 	mov	r18,r4
 1003e0c:	2823883a 	mov	r17,r5
 1003e10:	30000626 	beq	r6,zero,1003e2c <_ZNSt6locale5_Impl19_M_replace_categoryEPKS0_PKPKNS_2idE+0x40>
 1003e14:	84000104 	addi	r16,r16,4
 1003e18:	9009883a 	mov	r4,r18
 1003e1c:	880b883a 	mov	r5,r17
 1003e20:	1003d700 	call	1003d70 <_ZNSt6locale5_Impl16_M_replace_facetEPKS0_PKNS_2idE>
 1003e24:	81800017 	ldw	r6,0(r16)
 1003e28:	303ffa1e 	bne	r6,zero,1003e14 <_ZNSt6locale5_Impl19_M_replace_categoryEPKS0_PKPKNS_2idE+0x28>
 1003e2c:	dfc00317 	ldw	ra,12(sp)
 1003e30:	dc800217 	ldw	r18,8(sp)
 1003e34:	dc400117 	ldw	r17,4(sp)
 1003e38:	dc000017 	ldw	r16,0(sp)
 1003e3c:	dec00404 	addi	sp,sp,16
 1003e40:	f800283a 	ret

01003e44 <_ZNSt6locale5_ImplC2Em>:
 1003e44:	deffe804 	addi	sp,sp,-96
 1003e48:	008040f4 	movhi	r2,259
 1003e4c:	1099dd04 	addi	r2,r2,26484
 1003e50:	00c04174 	movhi	r3,261
 1003e54:	18dc4e04 	addi	r3,r3,28984
 1003e58:	d8800615 	stw	r2,24(sp)
 1003e5c:	d9001115 	stw	r4,68(sp)
 1003e60:	00804034 	movhi	r2,256
 1003e64:	10914b04 	addi	r2,r2,17708
 1003e68:	d809883a 	mov	r4,sp
 1003e6c:	d8c00715 	stw	r3,28(sp)
 1003e70:	d8800915 	stw	r2,36(sp)
 1003e74:	d9401215 	stw	r5,72(sp)
 1003e78:	dfc01715 	stw	ra,92(sp)
 1003e7c:	df001615 	stw	fp,88(sp)
 1003e80:	ddc01515 	stw	r23,84(sp)
 1003e84:	dec00815 	stw	sp,32(sp)
 1003e88:	dec00a15 	stw	sp,40(sp)
 1003e8c:	10418e00 	call	10418e0 <_Unwind_SjLj_Register>
 1003e90:	d9401117 	ldw	r5,68(sp)
 1003e94:	d9801217 	ldw	r6,72(sp)
 1003e98:	008041b4 	movhi	r2,262
 1003e9c:	10bab204 	addi	r2,r2,-5432
 1003ea0:	00c041b4 	movhi	r3,262
 1003ea4:	18fac004 	addi	r3,r3,-5376
 1003ea8:	01000384 	movi	r4,14
 1003eac:	29800015 	stw	r6,0(r5)
 1003eb0:	29000215 	stw	r4,8(r5)
 1003eb4:	28000415 	stw	zero,16(r5)
 1003eb8:	28800115 	stw	r2,4(r5)
 1003ebc:	28c00315 	stw	r3,12(r5)
 1003ec0:	1013883a 	mov	r9,r2
 1003ec4:	1811883a 	mov	r8,r3
 1003ec8:	000d883a 	mov	r6,zero
 1003ecc:	000b883a 	mov	r5,zero
 1003ed0:	01c00044 	movi	r7,1
 1003ed4:	2a05883a 	add	r2,r5,r8
 1003ed8:	2a47883a 	add	r3,r5,r9
 1003edc:	10000015 	stw	zero,0(r2)
 1003ee0:	31cd883a 	add	r6,r6,r7
 1003ee4:	18000015 	stw	zero,0(r3)
 1003ee8:	29400104 	addi	r5,r5,4
 1003eec:	313ff936 	bltu	r6,r4,1003ed4 <_ZNSt6locale5_ImplC2Em+0x90>
 1003ef0:	d9401117 	ldw	r5,68(sp)
 1003ef4:	00c041b4 	movhi	r3,262
 1003ef8:	18faa904 	addi	r3,r3,-5468
 1003efc:	008041b4 	movhi	r2,262
 1003f00:	10baaf04 	addi	r2,r2,-5444
 1003f04:	18800015 	stw	r2,0(r3)
 1003f08:	28c00415 	stw	r3,16(r5)
 1003f0c:	00800244 	movi	r2,9
 1003f10:	d8800115 	stw	r2,4(sp)
 1003f14:	10020580 	call	1002058 <_ZNSt6locale5facet13_S_get_c_nameEv>
 1003f18:	11000003 	ldbu	r4,0(r2)
 1003f1c:	018041b4 	movhi	r6,262
 1003f20:	31baaf04 	addi	r6,r6,-5444
 1003f24:	01400104 	movi	r5,4
 1003f28:	31000005 	stb	r4,0(r6)
 1003f2c:	10c00043 	ldbu	r3,1(r2)
 1003f30:	01000604 	movi	r4,24
 1003f34:	30c00045 	stb	r3,1(r6)
 1003f38:	d8801117 	ldw	r2,68(sp)
 1003f3c:	10c00417 	ldw	r3,16(r2)
 1003f40:	28c5883a 	add	r2,r5,r3
 1003f44:	29400104 	addi	r5,r5,4
 1003f48:	10000015 	stw	zero,0(r2)
 1003f4c:	293ffc1e 	bne	r5,r4,1003f40 <_ZNSt6locale5_ImplC2Em+0xfc>
 1003f50:	00800204 	movi	r2,8
 1003f54:	d8800115 	stw	r2,4(sp)
 1003f58:	010041b4 	movhi	r4,262
 1003f5c:	213ace04 	addi	r4,r4,-5320
 1003f60:	000b883a 	mov	r5,zero
 1003f64:	000d883a 	mov	r6,zero
 1003f68:	01c00044 	movi	r7,1
 1003f6c:	10381e40 	call	10381e4 <_ZNSt5ctypeIcEC1EPKcbm>
 1003f70:	00c00244 	movi	r3,9
 1003f74:	d8c00115 	stw	r3,4(sp)
 1003f78:	018041b4 	movhi	r6,262
 1003f7c:	31bace04 	addi	r6,r6,-5320
 1003f80:	d9001117 	ldw	r4,68(sp)
 1003f84:	014041b4 	movhi	r5,262
 1003f88:	29787f04 	addi	r5,r5,-7684
 1003f8c:	10039180 	call	1003918 <_ZNSt6locale5_Impl16_M_install_facetEPKNS_2idEPKNS_5facetE>
 1003f90:	008001c4 	movi	r2,7
 1003f94:	d8800115 	stw	r2,4(sp)
 1003f98:	010041b4 	movhi	r4,262
 1003f9c:	213b5c04 	addi	r4,r4,-4752
 1003fa0:	01400044 	movi	r5,1
 1003fa4:	10378cc0 	call	10378cc <_ZNSt7codecvtIcc10_mbstate_tEC1Em>
 1003fa8:	01400244 	movi	r5,9
 1003fac:	d9400115 	stw	r5,4(sp)
 1003fb0:	018041b4 	movhi	r6,262
 1003fb4:	31bb5c04 	addi	r6,r6,-4752
 1003fb8:	d9001117 	ldw	r4,68(sp)
 1003fbc:	014041b4 	movhi	r5,262
 1003fc0:	29787e04 	addi	r5,r5,-7688
 1003fc4:	10039180 	call	1003918 <_ZNSt6locale5_Impl16_M_install_facetEPKNS_2idEPKNS_5facetE>
 1003fc8:	008041b4 	movhi	r2,262
 1003fcc:	10bb6e04 	addi	r2,r2,-4680
 1003fd0:	00c041b4 	movhi	r3,262
 1003fd4:	18e18104 	addi	r3,r3,-31228
 1003fd8:	010041b4 	movhi	r4,262
 1003fdc:	213b5904 	addi	r4,r4,-4764
 1003fe0:	10c00015 	stw	r3,0(r2)
 1003fe4:	01800044 	movi	r6,1
 1003fe8:	00c041b4 	movhi	r3,262
 1003fec:	18e23e04 	addi	r3,r3,-30472
 1003ff0:	20800215 	stw	r2,8(r4)
 1003ff4:	11800115 	stw	r6,4(r2)
 1003ff8:	10000215 	stw	zero,8(r2)
 1003ffc:	10000315 	stw	zero,12(r2)
 1004000:	10000405 	stb	zero,16(r2)
 1004004:	10000515 	stw	zero,20(r2)
 1004008:	10000615 	stw	zero,24(r2)
 100400c:	10000715 	stw	zero,28(r2)
 1004010:	10000815 	stw	zero,32(r2)
 1004014:	10000905 	stb	zero,36(r2)
 1004018:	10000945 	stb	zero,37(r2)
 100401c:	10001905 	stb	zero,100(r2)
 1004020:	21800115 	stw	r6,4(r4)
 1004024:	20c00015 	stw	r3,0(r4)
 1004028:	00800104 	movi	r2,4
 100402c:	d8800115 	stw	r2,4(sp)
 1004030:	000b883a 	mov	r5,zero
 1004034:	10345400 	call	1034540 <_ZNSt8numpunctIcE22_M_initialize_numpunctEPi>
 1004038:	00c00244 	movi	r3,9
 100403c:	d8c00115 	stw	r3,4(sp)
 1004040:	d9001117 	ldw	r4,68(sp)
 1004044:	014041b4 	movhi	r5,262
 1004048:	29785904 	addi	r5,r5,-7836
 100404c:	018041b4 	movhi	r6,262
 1004050:	31bb5904 	addi	r6,r6,-4764
 1004054:	10039180 	call	1003918 <_ZNSt6locale5_Impl16_M_install_facetEPKNS_2idEPKNS_5facetE>
 1004058:	018041b4 	movhi	r6,262
 100405c:	31b88104 	addi	r6,r6,-7676
 1004060:	01400044 	movi	r5,1
 1004064:	008041b4 	movhi	r2,262
 1004068:	10a1d004 	addi	r2,r2,-30912
 100406c:	31400115 	stw	r5,4(r6)
 1004070:	30800015 	stw	r2,0(r6)
 1004074:	d9001117 	ldw	r4,68(sp)
 1004078:	014041b4 	movhi	r5,262
 100407c:	29785a04 	addi	r5,r5,-7832
 1004080:	10039180 	call	1003918 <_ZNSt6locale5_Impl16_M_install_facetEPKNS_2idEPKNS_5facetE>
 1004084:	018041b4 	movhi	r6,262
 1004088:	31b88304 	addi	r6,r6,-7668
 100408c:	008041b4 	movhi	r2,262
 1004090:	10a1c404 	addi	r2,r2,-30960
 1004094:	30800015 	stw	r2,0(r6)
 1004098:	00800044 	movi	r2,1
 100409c:	30800115 	stw	r2,4(r6)
 10040a0:	d9001117 	ldw	r4,68(sp)
 10040a4:	014041b4 	movhi	r5,262
 10040a8:	29785b04 	addi	r5,r5,-7828
 10040ac:	10039180 	call	1003918 <_ZNSt6locale5_Impl16_M_install_facetEPKNS_2idEPKNS_5facetE>
 10040b0:	00c041b4 	movhi	r3,262
 10040b4:	18fb5604 	addi	r3,r3,-4776
 10040b8:	01400044 	movi	r5,1
 10040bc:	008041b4 	movhi	r2,262
 10040c0:	10a23704 	addi	r2,r2,-30500
 10040c4:	19400115 	stw	r5,4(r3)
 10040c8:	18800015 	stw	r2,0(r3)
 10040cc:	00c000c4 	movi	r3,3
 10040d0:	d8c00115 	stw	r3,4(sp)
 10040d4:	10021880 	call	1002188 <_ZNSt6locale5facet15_S_get_c_localeEv>
 10040d8:	018041b4 	movhi	r6,262
 10040dc:	31bb5604 	addi	r6,r6,-4776
 10040e0:	30800215 	stw	r2,8(r6)
 10040e4:	00800244 	movi	r2,9
 10040e8:	d8800115 	stw	r2,4(sp)
 10040ec:	d9001117 	ldw	r4,68(sp)
 10040f0:	014041b4 	movhi	r5,262
 10040f4:	29786004 	addi	r5,r5,-7808
 10040f8:	10039180 	call	1003918 <_ZNSt6locale5_Impl16_M_install_facetEPKNS_2idEPKNS_5facetE>
 10040fc:	008041b4 	movhi	r2,262
 1004100:	10bb9904 	addi	r2,r2,-4508
 1004104:	00c041b4 	movhi	r3,262
 1004108:	18e18904 	addi	r3,r3,-31196
 100410c:	010041b4 	movhi	r4,262
 1004110:	213b6204 	addi	r4,r4,-4728
 1004114:	01400044 	movi	r5,1
 1004118:	10c00015 	stw	r3,0(r2)
 100411c:	00c041b4 	movhi	r3,262
 1004120:	18e21504 	addi	r3,r3,-30636
 1004124:	21400115 	stw	r5,4(r4)
 1004128:	20c00015 	stw	r3,0(r4)
 100412c:	11400115 	stw	r5,4(r2)
 1004130:	20800215 	stw	r2,8(r4)
 1004134:	10000215 	stw	zero,8(r2)
 1004138:	10000315 	stw	zero,12(r2)
 100413c:	10000405 	stb	zero,16(r2)
 1004140:	10000445 	stb	zero,17(r2)
 1004144:	10000485 	stb	zero,18(r2)
 1004148:	10000515 	stw	zero,20(r2)
 100414c:	10000615 	stw	zero,24(r2)
 1004150:	10000715 	stw	zero,28(r2)
 1004154:	10000815 	stw	zero,32(r2)
 1004158:	10000915 	stw	zero,36(r2)
 100415c:	10000a15 	stw	zero,40(r2)
 1004160:	10000b15 	stw	zero,44(r2)
 1004164:	10000c15 	stw	zero,48(r2)
 1004168:	10000d15 	stw	zero,52(r2)
 100416c:	100010c5 	stb	zero,67(r2)
 1004170:	00c00084 	movi	r3,2
 1004174:	d8c00115 	stw	r3,4(sp)
 1004178:	000b883a 	mov	r5,zero
 100417c:	000d883a 	mov	r6,zero
 1004180:	10340700 	call	1034070 <_ZNSt10moneypunctIcLb0EE24_M_initialize_moneypunctEPiPKc>
 1004184:	00800244 	movi	r2,9
 1004188:	d8800115 	stw	r2,4(sp)
 100418c:	d9001117 	ldw	r4,68(sp)
 1004190:	014041b4 	movhi	r5,262
 1004194:	29785504 	addi	r5,r5,-7852
 1004198:	018041b4 	movhi	r6,262
 100419c:	31bb6204 	addi	r6,r6,-4728
 10041a0:	10039180 	call	1003918 <_ZNSt6locale5_Impl16_M_install_facetEPKNS_2idEPKNS_5facetE>
 10041a4:	008041b4 	movhi	r2,262
 10041a8:	10bb8804 	addi	r2,r2,-4576
 10041ac:	01800044 	movi	r6,1
 10041b0:	010041b4 	movhi	r4,262
 10041b4:	213b5f04 	addi	r4,r4,-4740
 10041b8:	014041b4 	movhi	r5,262
 10041bc:	29622204 	addi	r5,r5,-30584
 10041c0:	00c041b4 	movhi	r3,262
 10041c4:	18e18504 	addi	r3,r3,-31212
 10041c8:	21400015 	stw	r5,0(r4)
 10041cc:	11800115 	stw	r6,4(r2)
 10041d0:	21800115 	stw	r6,4(r4)
 10041d4:	10c00015 	stw	r3,0(r2)
 10041d8:	20800215 	stw	r2,8(r4)
 10041dc:	10000215 	stw	zero,8(r2)
 10041e0:	10000315 	stw	zero,12(r2)
 10041e4:	10000405 	stb	zero,16(r2)
 10041e8:	10000445 	stb	zero,17(r2)
 10041ec:	10000485 	stb	zero,18(r2)
 10041f0:	10000515 	stw	zero,20(r2)
 10041f4:	10000615 	stw	zero,24(r2)
 10041f8:	10000715 	stw	zero,28(r2)
 10041fc:	10000815 	stw	zero,32(r2)
 1004200:	10000915 	stw	zero,36(r2)
 1004204:	10000a15 	stw	zero,40(r2)
 1004208:	10000b15 	stw	zero,44(r2)
 100420c:	10000c15 	stw	zero,48(r2)
 1004210:	10000d15 	stw	zero,52(r2)
 1004214:	100010c5 	stb	zero,67(r2)
 1004218:	d9800115 	stw	r6,4(sp)
 100421c:	000b883a 	mov	r5,zero
 1004220:	000d883a 	mov	r6,zero
 1004224:	10341a80 	call	10341a8 <_ZNSt10moneypunctIcLb1EE24_M_initialize_moneypunctEPiPKc>
 1004228:	00800244 	movi	r2,9
 100422c:	d8800115 	stw	r2,4(sp)
 1004230:	d9001117 	ldw	r4,68(sp)
 1004234:	014041b4 	movhi	r5,262
 1004238:	29785604 	addi	r5,r5,-7848
 100423c:	018041b4 	movhi	r6,262
 1004240:	31bb5f04 	addi	r6,r6,-4740
 1004244:	10039180 	call	1003918 <_ZNSt6locale5_Impl16_M_install_facetEPKNS_2idEPKNS_5facetE>
 1004248:	018041b4 	movhi	r6,262
 100424c:	31b88504 	addi	r6,r6,-7660
 1004250:	008041b4 	movhi	r2,262
 1004254:	10a1ee04 	addi	r2,r2,-30792
 1004258:	00c00044 	movi	r3,1
 100425c:	30800015 	stw	r2,0(r6)
 1004260:	30c00115 	stw	r3,4(r6)
 1004264:	d9001117 	ldw	r4,68(sp)
 1004268:	014041b4 	movhi	r5,262
 100426c:	29785704 	addi	r5,r5,-7844
 1004270:	10039180 	call	1003918 <_ZNSt6locale5_Impl16_M_install_facetEPKNS_2idEPKNS_5facetE>
 1004274:	018041b4 	movhi	r6,262
 1004278:	31b88704 	addi	r6,r6,-7652
 100427c:	01400044 	movi	r5,1
 1004280:	008041b4 	movhi	r2,262
 1004284:	10a1e804 	addi	r2,r2,-30816
 1004288:	31400115 	stw	r5,4(r6)
 100428c:	30800015 	stw	r2,0(r6)
 1004290:	d9001117 	ldw	r4,68(sp)
 1004294:	014041b4 	movhi	r5,262
 1004298:	29785804 	addi	r5,r5,-7840
 100429c:	10039180 	call	1003918 <_ZNSt6locale5_Impl16_M_install_facetEPKNS_2idEPKNS_5facetE>
 10042a0:	014041b4 	movhi	r5,262
 10042a4:	297baa04 	addi	r5,r5,-4440
 10042a8:	008041b4 	movhi	r2,262
 10042ac:	10a23304 	addi	r2,r2,-30516
 10042b0:	01800044 	movi	r6,1
 10042b4:	28800015 	stw	r2,0(r5)
 10042b8:	29800115 	stw	r6,4(r5)
 10042bc:	28000215 	stw	zero,8(r5)
 10042c0:	28000315 	stw	zero,12(r5)
 10042c4:	28000415 	stw	zero,16(r5)
 10042c8:	28000515 	stw	zero,20(r5)
 10042cc:	28000615 	stw	zero,24(r5)
 10042d0:	28000715 	stw	zero,28(r5)
 10042d4:	28000815 	stw	zero,32(r5)
 10042d8:	28000915 	stw	zero,36(r5)
 10042dc:	28000a15 	stw	zero,40(r5)
 10042e0:	28000b15 	stw	zero,44(r5)
 10042e4:	28000c15 	stw	zero,48(r5)
 10042e8:	28000d15 	stw	zero,52(r5)
 10042ec:	28000e15 	stw	zero,56(r5)
 10042f0:	28000f15 	stw	zero,60(r5)
 10042f4:	28001015 	stw	zero,64(r5)
 10042f8:	28001115 	stw	zero,68(r5)
 10042fc:	28001215 	stw	zero,72(r5)
 1004300:	28001315 	stw	zero,76(r5)
 1004304:	28001415 	stw	zero,80(r5)
 1004308:	28001515 	stw	zero,84(r5)
 100430c:	28001615 	stw	zero,88(r5)
 1004310:	28001715 	stw	zero,92(r5)
 1004314:	28001815 	stw	zero,96(r5)
 1004318:	28001915 	stw	zero,100(r5)
 100431c:	28001a15 	stw	zero,104(r5)
 1004320:	28001b15 	stw	zero,108(r5)
 1004324:	28001c15 	stw	zero,112(r5)
 1004328:	28001d15 	stw	zero,116(r5)
 100432c:	28001e15 	stw	zero,120(r5)
 1004330:	28001f15 	stw	zero,124(r5)
 1004334:	28002015 	stw	zero,128(r5)
 1004338:	28002115 	stw	zero,132(r5)
 100433c:	00800184 	movi	r2,6
 1004340:	28002215 	stw	zero,136(r5)
 1004344:	28002315 	stw	zero,140(r5)
 1004348:	28002415 	stw	zero,144(r5)
 100434c:	28002515 	stw	zero,148(r5)
 1004350:	28002615 	stw	zero,152(r5)
 1004354:	28002715 	stw	zero,156(r5)
 1004358:	28002815 	stw	zero,160(r5)
 100435c:	28002915 	stw	zero,164(r5)
 1004360:	28002a15 	stw	zero,168(r5)
 1004364:	28002b15 	stw	zero,172(r5)
 1004368:	28002c15 	stw	zero,176(r5)
 100436c:	28002d15 	stw	zero,180(r5)
 1004370:	28002e15 	stw	zero,184(r5)
 1004374:	28002f15 	stw	zero,188(r5)
 1004378:	28003015 	stw	zero,192(r5)
 100437c:	28003105 	stb	zero,196(r5)
 1004380:	d8800115 	stw	r2,4(sp)
 1004384:	010041b4 	movhi	r4,262
 1004388:	213b6504 	addi	r4,r4,-4716
 100438c:	10111c80 	call	10111c8 <_ZNSt11__timepunctIcEC1EPSt17__timepunct_cacheIcEm>
 1004390:	00800244 	movi	r2,9
 1004394:	d8800115 	stw	r2,4(sp)
 1004398:	018041b4 	movhi	r6,262
 100439c:	31bb6504 	addi	r6,r6,-4716
 10043a0:	d9001117 	ldw	r4,68(sp)
 10043a4:	014041b4 	movhi	r5,262
 10043a8:	29785c04 	addi	r5,r5,-7824
 10043ac:	10039180 	call	1003918 <_ZNSt6locale5_Impl16_M_install_facetEPKNS_2idEPKNS_5facetE>
 10043b0:	018041b4 	movhi	r6,262
 10043b4:	31b88904 	addi	r6,r6,-7644
 10043b8:	008041b4 	movhi	r2,262
 10043bc:	10a1b004 	addi	r2,r2,-31040
 10043c0:	00c00044 	movi	r3,1
 10043c4:	30800015 	stw	r2,0(r6)
 10043c8:	30c00115 	stw	r3,4(r6)
 10043cc:	d9001117 	ldw	r4,68(sp)
 10043d0:	014041b4 	movhi	r5,262
 10043d4:	29785e04 	addi	r5,r5,-7816
 10043d8:	10039180 	call	1003918 <_ZNSt6locale5_Impl16_M_install_facetEPKNS_2idEPKNS_5facetE>
 10043dc:	018041b4 	movhi	r6,262
 10043e0:	31b88b04 	addi	r6,r6,-7636
 10043e4:	01400044 	movi	r5,1
 10043e8:	008041b4 	movhi	r2,262
 10043ec:	10a1bf04 	addi	r2,r2,-30980
 10043f0:	31400115 	stw	r5,4(r6)
 10043f4:	30800015 	stw	r2,0(r6)
 10043f8:	d9001117 	ldw	r4,68(sp)
 10043fc:	014041b4 	movhi	r5,262
 1004400:	29785d04 	addi	r5,r5,-7820
 1004404:	10039180 	call	1003918 <_ZNSt6locale5_Impl16_M_install_facetEPKNS_2idEPKNS_5facetE>
 1004408:	00800144 	movi	r2,5
 100440c:	d8800115 	stw	r2,4(sp)
 1004410:	01400044 	movi	r5,1
 1004414:	010041b4 	movhi	r4,262
 1004418:	213b6a04 	addi	r4,r4,-4696
 100441c:	1012b0c0 	call	1012b0c <_ZNSt8messagesIcEC1Em>
 1004420:	01800244 	movi	r6,9
 1004424:	d9800115 	stw	r6,4(sp)
 1004428:	d9001117 	ldw	r4,68(sp)
 100442c:	018041b4 	movhi	r6,262
 1004430:	31bb6a04 	addi	r6,r6,-4696
 1004434:	014041b4 	movhi	r5,262
 1004438:	29785f04 	addi	r5,r5,-7812
 100443c:	10039180 	call	1003918 <_ZNSt6locale5_Impl16_M_install_facetEPKNS_2idEPKNS_5facetE>
 1004440:	d8801117 	ldw	r2,68(sp)
 1004444:	010041b4 	movhi	r4,262
 1004448:	21385904 	addi	r4,r4,-7836
 100444c:	10800317 	ldw	r2,12(r2)
 1004450:	d8801015 	stw	r2,64(sp)
 1004454:	10020600 	call	1002060 <_ZNKSt6locale2id5_M_idEv>
 1004458:	d9401117 	ldw	r5,68(sp)
 100445c:	d8c01017 	ldw	r3,64(sp)
 1004460:	1085883a 	add	r2,r2,r2
 1004464:	1085883a 	add	r2,r2,r2
 1004468:	29400317 	ldw	r5,12(r5)
 100446c:	10c5883a 	add	r2,r2,r3
 1004470:	00c041b4 	movhi	r3,262
 1004474:	18fb6e04 	addi	r3,r3,-4680
 1004478:	10c00015 	stw	r3,0(r2)
 100447c:	d9400f15 	stw	r5,60(sp)
 1004480:	010041b4 	movhi	r4,262
 1004484:	21385504 	addi	r4,r4,-7852
 1004488:	10020600 	call	1002060 <_ZNKSt6locale2id5_M_idEv>
 100448c:	d9800f17 	ldw	r6,60(sp)
 1004490:	1085883a 	add	r2,r2,r2
 1004494:	1085883a 	add	r2,r2,r2
 1004498:	1185883a 	add	r2,r2,r6
 100449c:	00c041b4 	movhi	r3,262
 10044a0:	18fb9904 	addi	r3,r3,-4508
 10044a4:	10c00015 	stw	r3,0(r2)
 10044a8:	d8801117 	ldw	r2,68(sp)
 10044ac:	010041b4 	movhi	r4,262
 10044b0:	21385604 	addi	r4,r4,-7848
 10044b4:	10800317 	ldw	r2,12(r2)
 10044b8:	d8800e15 	stw	r2,56(sp)
 10044bc:	10020600 	call	1002060 <_ZNKSt6locale2id5_M_idEv>
 10044c0:	d9401117 	ldw	r5,68(sp)
 10044c4:	d8c00e17 	ldw	r3,56(sp)
 10044c8:	1085883a 	add	r2,r2,r2
 10044cc:	1085883a 	add	r2,r2,r2
 10044d0:	29400317 	ldw	r5,12(r5)
 10044d4:	10c5883a 	add	r2,r2,r3
 10044d8:	00c041b4 	movhi	r3,262
 10044dc:	18fb8804 	addi	r3,r3,-4576
 10044e0:	10c00015 	stw	r3,0(r2)
 10044e4:	d9400d15 	stw	r5,52(sp)
 10044e8:	010041b4 	movhi	r4,262
 10044ec:	21385c04 	addi	r4,r4,-7824
 10044f0:	10020600 	call	1002060 <_ZNKSt6locale2id5_M_idEv>
 10044f4:	d8c00d17 	ldw	r3,52(sp)
 10044f8:	1085883a 	add	r2,r2,r2
 10044fc:	1085883a 	add	r2,r2,r2
 1004500:	10c5883a 	add	r2,r2,r3
 1004504:	00c041b4 	movhi	r3,262
 1004508:	18fbaa04 	addi	r3,r3,-4440
 100450c:	10c00015 	stw	r3,0(r2)
 1004510:	d809883a 	mov	r4,sp
 1004514:	10418f00 	call	10418f0 <_Unwind_SjLj_Unregister>
 1004518:	dfc01717 	ldw	ra,92(sp)
 100451c:	df001617 	ldw	fp,88(sp)
 1004520:	ddc01517 	ldw	r23,84(sp)
 1004524:	dec01804 	addi	sp,sp,96
 1004528:	f800283a 	ret
 100452c:	d9400217 	ldw	r5,8(sp)
 1004530:	d9800317 	ldw	r6,12(sp)
 1004534:	d8c00117 	ldw	r3,4(sp)
 1004538:	00800044 	movi	r2,1
 100453c:	d9401415 	stw	r5,80(sp)
 1004540:	d9801315 	stw	r6,76(sp)
 1004544:	18802626 	beq	r3,r2,10045e0 <_ZNSt6locale5_ImplC2Em+0x79c>
 1004548:	00800084 	movi	r2,2
 100454c:	18801f26 	beq	r3,r2,10045cc <_ZNSt6locale5_ImplC2Em+0x788>
 1004550:	008000c4 	movi	r2,3
 1004554:	18801426 	beq	r3,r2,10045a8 <_ZNSt6locale5_ImplC2Em+0x764>
 1004558:	00800104 	movi	r2,4
 100455c:	18800c26 	beq	r3,r2,1004590 <_ZNSt6locale5_ImplC2Em+0x74c>
 1004560:	00800144 	movi	r2,5
 1004564:	18800a26 	beq	r3,r2,1004590 <_ZNSt6locale5_ImplC2Em+0x74c>
 1004568:	00800184 	movi	r2,6
 100456c:	18800826 	beq	r3,r2,1004590 <_ZNSt6locale5_ImplC2Em+0x74c>
 1004570:	008001c4 	movi	r2,7
 1004574:	18800626 	beq	r3,r2,1004590 <_ZNSt6locale5_ImplC2Em+0x74c>
 1004578:	00800204 	movi	r2,8
 100457c:	18800426 	beq	r3,r2,1004590 <_ZNSt6locale5_ImplC2Em+0x74c>
 1004580:	010041b4 	movhi	r4,262
 1004584:	213b5f04 	addi	r4,r4,-4740
 1004588:	d8000115 	stw	zero,4(sp)
 100458c:	10021680 	call	1002168 <_ZNSt6locale5facetD2Ev>
 1004590:	d9801317 	ldw	r6,76(sp)
 1004594:	00bfffc4 	movi	r2,-1
 1004598:	30800826 	beq	r6,r2,10045bc <_ZNSt6locale5_ImplC2Em+0x778>
 100459c:	d9001417 	ldw	r4,80(sp)
 10045a0:	d8800115 	stw	r2,4(sp)
 10045a4:	1041bac0 	call	1041bac <_Unwind_SjLj_Resume>
 10045a8:	010041b4 	movhi	r4,262
 10045ac:	213b5904 	addi	r4,r4,-4764
 10045b0:	d8000115 	stw	zero,4(sp)
 10045b4:	10021680 	call	1002168 <_ZNSt6locale5facetD2Ev>
 10045b8:	003ff506 	br	1004590 <_ZNSt6locale5_ImplC2Em+0x74c>
 10045bc:	d9001417 	ldw	r4,80(sp)
 10045c0:	00bfffc4 	movi	r2,-1
 10045c4:	d8800115 	stw	r2,4(sp)
 10045c8:	10365f40 	call	10365f4 <__cxa_call_unexpected>
 10045cc:	010041b4 	movhi	r4,262
 10045d0:	213b5604 	addi	r4,r4,-4776
 10045d4:	d8000115 	stw	zero,4(sp)
 10045d8:	10021680 	call	1002168 <_ZNSt6locale5facetD2Ev>
 10045dc:	003fec06 	br	1004590 <_ZNSt6locale5_ImplC2Em+0x74c>
 10045e0:	010041b4 	movhi	r4,262
 10045e4:	213b6204 	addi	r4,r4,-4728
 10045e8:	d8000115 	stw	zero,4(sp)
 10045ec:	10021680 	call	1002168 <_ZNSt6locale5facetD2Ev>
 10045f0:	003fe706 	br	1004590 <_ZNSt6locale5_ImplC2Em+0x74c>

010045f4 <_ZNSt6locale5_ImplC1Em>:
 10045f4:	deffe804 	addi	sp,sp,-96
 10045f8:	008040f4 	movhi	r2,259
 10045fc:	1099dd04 	addi	r2,r2,26484
 1004600:	00c04174 	movhi	r3,261
 1004604:	18dc5604 	addi	r3,r3,29016
 1004608:	d8800615 	stw	r2,24(sp)
 100460c:	d9001115 	stw	r4,68(sp)
 1004610:	00804034 	movhi	r2,256
 1004614:	10933704 	addi	r2,r2,19676
 1004618:	d809883a 	mov	r4,sp
 100461c:	d8c00715 	stw	r3,28(sp)
 1004620:	d8800915 	stw	r2,36(sp)
 1004624:	d9401215 	stw	r5,72(sp)
 1004628:	dfc01715 	stw	ra,92(sp)
 100462c:	df001615 	stw	fp,88(sp)
 1004630:	ddc01515 	stw	r23,84(sp)
 1004634:	dec00815 	stw	sp,32(sp)
 1004638:	dec00a15 	stw	sp,40(sp)
 100463c:	10418e00 	call	10418e0 <_Unwind_SjLj_Register>
 1004640:	d9401117 	ldw	r5,68(sp)
 1004644:	d9801217 	ldw	r6,72(sp)
 1004648:	008041b4 	movhi	r2,262
 100464c:	10bab204 	addi	r2,r2,-5432
 1004650:	00c041b4 	movhi	r3,262
 1004654:	18fac004 	addi	r3,r3,-5376
 1004658:	01000384 	movi	r4,14
 100465c:	29800015 	stw	r6,0(r5)
 1004660:	29000215 	stw	r4,8(r5)
 1004664:	28000415 	stw	zero,16(r5)
 1004668:	28800115 	stw	r2,4(r5)
 100466c:	28c00315 	stw	r3,12(r5)
 1004670:	1013883a 	mov	r9,r2
 1004674:	1811883a 	mov	r8,r3
 1004678:	000d883a 	mov	r6,zero
 100467c:	000b883a 	mov	r5,zero
 1004680:	01c00044 	movi	r7,1
 1004684:	2a05883a 	add	r2,r5,r8
 1004688:	2a47883a 	add	r3,r5,r9
 100468c:	10000015 	stw	zero,0(r2)
 1004690:	31cd883a 	add	r6,r6,r7
 1004694:	18000015 	stw	zero,0(r3)
 1004698:	29400104 	addi	r5,r5,4
 100469c:	313ff936 	bltu	r6,r4,1004684 <_ZNSt6locale5_ImplC1Em+0x90>
 10046a0:	d9401117 	ldw	r5,68(sp)
 10046a4:	00c041b4 	movhi	r3,262
 10046a8:	18faa904 	addi	r3,r3,-5468
 10046ac:	008041b4 	movhi	r2,262
 10046b0:	10baaf04 	addi	r2,r2,-5444
 10046b4:	18800015 	stw	r2,0(r3)
 10046b8:	28c00415 	stw	r3,16(r5)
 10046bc:	00800244 	movi	r2,9
 10046c0:	d8800115 	stw	r2,4(sp)
 10046c4:	10020580 	call	1002058 <_ZNSt6locale5facet13_S_get_c_nameEv>
 10046c8:	11000003 	ldbu	r4,0(r2)
 10046cc:	018041b4 	movhi	r6,262
 10046d0:	31baaf04 	addi	r6,r6,-5444
 10046d4:	01400104 	movi	r5,4
 10046d8:	31000005 	stb	r4,0(r6)
 10046dc:	10c00043 	ldbu	r3,1(r2)
 10046e0:	01000604 	movi	r4,24
 10046e4:	30c00045 	stb	r3,1(r6)
 10046e8:	d8801117 	ldw	r2,68(sp)
 10046ec:	10c00417 	ldw	r3,16(r2)
 10046f0:	28c5883a 	add	r2,r5,r3
 10046f4:	29400104 	addi	r5,r5,4
 10046f8:	10000015 	stw	zero,0(r2)
 10046fc:	293ffc1e 	bne	r5,r4,10046f0 <_ZNSt6locale5_ImplC1Em+0xfc>
 1004700:	00800204 	movi	r2,8
 1004704:	d8800115 	stw	r2,4(sp)
 1004708:	010041b4 	movhi	r4,262
 100470c:	213ace04 	addi	r4,r4,-5320
 1004710:	000b883a 	mov	r5,zero
 1004714:	000d883a 	mov	r6,zero
 1004718:	01c00044 	movi	r7,1
 100471c:	10381e40 	call	10381e4 <_ZNSt5ctypeIcEC1EPKcbm>
 1004720:	00c00244 	movi	r3,9
 1004724:	d8c00115 	stw	r3,4(sp)
 1004728:	018041b4 	movhi	r6,262
 100472c:	31bace04 	addi	r6,r6,-5320
 1004730:	d9001117 	ldw	r4,68(sp)
 1004734:	014041b4 	movhi	r5,262
 1004738:	29787f04 	addi	r5,r5,-7684
 100473c:	10039180 	call	1003918 <_ZNSt6locale5_Impl16_M_install_facetEPKNS_2idEPKNS_5facetE>
 1004740:	008001c4 	movi	r2,7
 1004744:	d8800115 	stw	r2,4(sp)
 1004748:	010041b4 	movhi	r4,262
 100474c:	213b5c04 	addi	r4,r4,-4752
 1004750:	01400044 	movi	r5,1
 1004754:	10378cc0 	call	10378cc <_ZNSt7codecvtIcc10_mbstate_tEC1Em>
 1004758:	01400244 	movi	r5,9
 100475c:	d9400115 	stw	r5,4(sp)
 1004760:	018041b4 	movhi	r6,262
 1004764:	31bb5c04 	addi	r6,r6,-4752
 1004768:	d9001117 	ldw	r4,68(sp)
 100476c:	014041b4 	movhi	r5,262
 1004770:	29787e04 	addi	r5,r5,-7688
 1004774:	10039180 	call	1003918 <_ZNSt6locale5_Impl16_M_install_facetEPKNS_2idEPKNS_5facetE>
 1004778:	008041b4 	movhi	r2,262
 100477c:	10bb6e04 	addi	r2,r2,-4680
 1004780:	00c041b4 	movhi	r3,262
 1004784:	18e18104 	addi	r3,r3,-31228
 1004788:	010041b4 	movhi	r4,262
 100478c:	213b5904 	addi	r4,r4,-4764
 1004790:	10c00015 	stw	r3,0(r2)
 1004794:	01800044 	movi	r6,1
 1004798:	00c041b4 	movhi	r3,262
 100479c:	18e23e04 	addi	r3,r3,-30472
 10047a0:	20800215 	stw	r2,8(r4)
 10047a4:	11800115 	stw	r6,4(r2)
 10047a8:	10000215 	stw	zero,8(r2)
 10047ac:	10000315 	stw	zero,12(r2)
 10047b0:	10000405 	stb	zero,16(r2)
 10047b4:	10000515 	stw	zero,20(r2)
 10047b8:	10000615 	stw	zero,24(r2)
 10047bc:	10000715 	stw	zero,28(r2)
 10047c0:	10000815 	stw	zero,32(r2)
 10047c4:	10000905 	stb	zero,36(r2)
 10047c8:	10000945 	stb	zero,37(r2)
 10047cc:	10001905 	stb	zero,100(r2)
 10047d0:	21800115 	stw	r6,4(r4)
 10047d4:	20c00015 	stw	r3,0(r4)
 10047d8:	00800104 	movi	r2,4
 10047dc:	d8800115 	stw	r2,4(sp)
 10047e0:	000b883a 	mov	r5,zero
 10047e4:	10345400 	call	1034540 <_ZNSt8numpunctIcE22_M_initialize_numpunctEPi>
 10047e8:	00c00244 	movi	r3,9
 10047ec:	d8c00115 	stw	r3,4(sp)
 10047f0:	d9001117 	ldw	r4,68(sp)
 10047f4:	014041b4 	movhi	r5,262
 10047f8:	29785904 	addi	r5,r5,-7836
 10047fc:	018041b4 	movhi	r6,262
 1004800:	31bb5904 	addi	r6,r6,-4764
 1004804:	10039180 	call	1003918 <_ZNSt6locale5_Impl16_M_install_facetEPKNS_2idEPKNS_5facetE>
 1004808:	018041b4 	movhi	r6,262
 100480c:	31b88104 	addi	r6,r6,-7676
 1004810:	01400044 	movi	r5,1
 1004814:	008041b4 	movhi	r2,262
 1004818:	10a1d004 	addi	r2,r2,-30912
 100481c:	31400115 	stw	r5,4(r6)
 1004820:	30800015 	stw	r2,0(r6)
 1004824:	d9001117 	ldw	r4,68(sp)
 1004828:	014041b4 	movhi	r5,262
 100482c:	29785a04 	addi	r5,r5,-7832
 1004830:	10039180 	call	1003918 <_ZNSt6locale5_Impl16_M_install_facetEPKNS_2idEPKNS_5facetE>
 1004834:	018041b4 	movhi	r6,262
 1004838:	31b88304 	addi	r6,r6,-7668
 100483c:	008041b4 	movhi	r2,262
 1004840:	10a1c404 	addi	r2,r2,-30960
 1004844:	30800015 	stw	r2,0(r6)
 1004848:	00800044 	movi	r2,1
 100484c:	30800115 	stw	r2,4(r6)
 1004850:	d9001117 	ldw	r4,68(sp)
 1004854:	014041b4 	movhi	r5,262
 1004858:	29785b04 	addi	r5,r5,-7828
 100485c:	10039180 	call	1003918 <_ZNSt6locale5_Impl16_M_install_facetEPKNS_2idEPKNS_5facetE>
 1004860:	00c041b4 	movhi	r3,262
 1004864:	18fb5604 	addi	r3,r3,-4776
 1004868:	01400044 	movi	r5,1
 100486c:	008041b4 	movhi	r2,262
 1004870:	10a23704 	addi	r2,r2,-30500
 1004874:	19400115 	stw	r5,4(r3)
 1004878:	18800015 	stw	r2,0(r3)
 100487c:	00c000c4 	movi	r3,3
 1004880:	d8c00115 	stw	r3,4(sp)
 1004884:	10021880 	call	1002188 <_ZNSt6locale5facet15_S_get_c_localeEv>
 1004888:	018041b4 	movhi	r6,262
 100488c:	31bb5604 	addi	r6,r6,-4776
 1004890:	30800215 	stw	r2,8(r6)
 1004894:	00800244 	movi	r2,9
 1004898:	d8800115 	stw	r2,4(sp)
 100489c:	d9001117 	ldw	r4,68(sp)
 10048a0:	014041b4 	movhi	r5,262
 10048a4:	29786004 	addi	r5,r5,-7808
 10048a8:	10039180 	call	1003918 <_ZNSt6locale5_Impl16_M_install_facetEPKNS_2idEPKNS_5facetE>
 10048ac:	008041b4 	movhi	r2,262
 10048b0:	10bb9904 	addi	r2,r2,-4508
 10048b4:	00c041b4 	movhi	r3,262
 10048b8:	18e18904 	addi	r3,r3,-31196
 10048bc:	010041b4 	movhi	r4,262
 10048c0:	213b6204 	addi	r4,r4,-4728
 10048c4:	01400044 	movi	r5,1
 10048c8:	10c00015 	stw	r3,0(r2)
 10048cc:	00c041b4 	movhi	r3,262
 10048d0:	18e21504 	addi	r3,r3,-30636
 10048d4:	21400115 	stw	r5,4(r4)
 10048d8:	20c00015 	stw	r3,0(r4)
 10048dc:	11400115 	stw	r5,4(r2)
 10048e0:	20800215 	stw	r2,8(r4)
 10048e4:	10000215 	stw	zero,8(r2)
 10048e8:	10000315 	stw	zero,12(r2)
 10048ec:	10000405 	stb	zero,16(r2)
 10048f0:	10000445 	stb	zero,17(r2)
 10048f4:	10000485 	stb	zero,18(r2)
 10048f8:	10000515 	stw	zero,20(r2)
 10048fc:	10000615 	stw	zero,24(r2)
 1004900:	10000715 	stw	zero,28(r2)
 1004904:	10000815 	stw	zero,32(r2)
 1004908:	10000915 	stw	zero,36(r2)
 100490c:	10000a15 	stw	zero,40(r2)
 1004910:	10000b15 	stw	zero,44(r2)
 1004914:	10000c15 	stw	zero,48(r2)
 1004918:	10000d15 	stw	zero,52(r2)
 100491c:	100010c5 	stb	zero,67(r2)
 1004920:	00c00084 	movi	r3,2
 1004924:	d8c00115 	stw	r3,4(sp)
 1004928:	000b883a 	mov	r5,zero
 100492c:	000d883a 	mov	r6,zero
 1004930:	10340700 	call	1034070 <_ZNSt10moneypunctIcLb0EE24_M_initialize_moneypunctEPiPKc>
 1004934:	00800244 	movi	r2,9
 1004938:	d8800115 	stw	r2,4(sp)
 100493c:	d9001117 	ldw	r4,68(sp)
 1004940:	014041b4 	movhi	r5,262
 1004944:	29785504 	addi	r5,r5,-7852
 1004948:	018041b4 	movhi	r6,262
 100494c:	31bb6204 	addi	r6,r6,-4728
 1004950:	10039180 	call	1003918 <_ZNSt6locale5_Impl16_M_install_facetEPKNS_2idEPKNS_5facetE>
 1004954:	008041b4 	movhi	r2,262
 1004958:	10bb8804 	addi	r2,r2,-4576
 100495c:	01800044 	movi	r6,1
 1004960:	010041b4 	movhi	r4,262
 1004964:	213b5f04 	addi	r4,r4,-4740
 1004968:	014041b4 	movhi	r5,262
 100496c:	29622204 	addi	r5,r5,-30584
 1004970:	00c041b4 	movhi	r3,262
 1004974:	18e18504 	addi	r3,r3,-31212
 1004978:	21400015 	stw	r5,0(r4)
 100497c:	11800115 	stw	r6,4(r2)
 1004980:	21800115 	stw	r6,4(r4)
 1004984:	10c00015 	stw	r3,0(r2)
 1004988:	20800215 	stw	r2,8(r4)
 100498c:	10000215 	stw	zero,8(r2)
 1004990:	10000315 	stw	zero,12(r2)
 1004994:	10000405 	stb	zero,16(r2)
 1004998:	10000445 	stb	zero,17(r2)
 100499c:	10000485 	stb	zero,18(r2)
 10049a0:	10000515 	stw	zero,20(r2)
 10049a4:	10000615 	stw	zero,24(r2)
 10049a8:	10000715 	stw	zero,28(r2)
 10049ac:	10000815 	stw	zero,32(r2)
 10049b0:	10000915 	stw	zero,36(r2)
 10049b4:	10000a15 	stw	zero,40(r2)
 10049b8:	10000b15 	stw	zero,44(r2)
 10049bc:	10000c15 	stw	zero,48(r2)
 10049c0:	10000d15 	stw	zero,52(r2)
 10049c4:	100010c5 	stb	zero,67(r2)
 10049c8:	d9800115 	stw	r6,4(sp)
 10049cc:	000b883a 	mov	r5,zero
 10049d0:	000d883a 	mov	r6,zero
 10049d4:	10341a80 	call	10341a8 <_ZNSt10moneypunctIcLb1EE24_M_initialize_moneypunctEPiPKc>
 10049d8:	00800244 	movi	r2,9
 10049dc:	d8800115 	stw	r2,4(sp)
 10049e0:	d9001117 	ldw	r4,68(sp)
 10049e4:	014041b4 	movhi	r5,262
 10049e8:	29785604 	addi	r5,r5,-7848
 10049ec:	018041b4 	movhi	r6,262
 10049f0:	31bb5f04 	addi	r6,r6,-4740
 10049f4:	10039180 	call	1003918 <_ZNSt6locale5_Impl16_M_install_facetEPKNS_2idEPKNS_5facetE>
 10049f8:	018041b4 	movhi	r6,262
 10049fc:	31b88504 	addi	r6,r6,-7660
 1004a00:	008041b4 	movhi	r2,262
 1004a04:	10a1ee04 	addi	r2,r2,-30792
 1004a08:	00c00044 	movi	r3,1
 1004a0c:	30800015 	stw	r2,0(r6)
 1004a10:	30c00115 	stw	r3,4(r6)
 1004a14:	d9001117 	ldw	r4,68(sp)
 1004a18:	014041b4 	movhi	r5,262
 1004a1c:	29785704 	addi	r5,r5,-7844
 1004a20:	10039180 	call	1003918 <_ZNSt6locale5_Impl16_M_install_facetEPKNS_2idEPKNS_5facetE>
 1004a24:	018041b4 	movhi	r6,262
 1004a28:	31b88704 	addi	r6,r6,-7652
 1004a2c:	01400044 	movi	r5,1
 1004a30:	008041b4 	movhi	r2,262
 1004a34:	10a1e804 	addi	r2,r2,-30816
 1004a38:	31400115 	stw	r5,4(r6)
 1004a3c:	30800015 	stw	r2,0(r6)
 1004a40:	d9001117 	ldw	r4,68(sp)
 1004a44:	014041b4 	movhi	r5,262
 1004a48:	29785804 	addi	r5,r5,-7840
 1004a4c:	10039180 	call	1003918 <_ZNSt6locale5_Impl16_M_install_facetEPKNS_2idEPKNS_5facetE>
 1004a50:	014041b4 	movhi	r5,262
 1004a54:	297baa04 	addi	r5,r5,-4440
 1004a58:	008041b4 	movhi	r2,262
 1004a5c:	10a23304 	addi	r2,r2,-30516
 1004a60:	01800044 	movi	r6,1
 1004a64:	28800015 	stw	r2,0(r5)
 1004a68:	29800115 	stw	r6,4(r5)
 1004a6c:	28000215 	stw	zero,8(r5)
 1004a70:	28000315 	stw	zero,12(r5)
 1004a74:	28000415 	stw	zero,16(r5)
 1004a78:	28000515 	stw	zero,20(r5)
 1004a7c:	28000615 	stw	zero,24(r5)
 1004a80:	28000715 	stw	zero,28(r5)
 1004a84:	28000815 	stw	zero,32(r5)
 1004a88:	28000915 	stw	zero,36(r5)
 1004a8c:	28000a15 	stw	zero,40(r5)
 1004a90:	28000b15 	stw	zero,44(r5)
 1004a94:	28000c15 	stw	zero,48(r5)
 1004a98:	28000d15 	stw	zero,52(r5)
 1004a9c:	28000e15 	stw	zero,56(r5)
 1004aa0:	28000f15 	stw	zero,60(r5)
 1004aa4:	28001015 	stw	zero,64(r5)
 1004aa8:	28001115 	stw	zero,68(r5)
 1004aac:	28001215 	stw	zero,72(r5)
 1004ab0:	28001315 	stw	zero,76(r5)
 1004ab4:	28001415 	stw	zero,80(r5)
 1004ab8:	28001515 	stw	zero,84(r5)
 1004abc:	28001615 	stw	zero,88(r5)
 1004ac0:	28001715 	stw	zero,92(r5)
 1004ac4:	28001815 	stw	zero,96(r5)
 1004ac8:	28001915 	stw	zero,100(r5)
 1004acc:	28001a15 	stw	zero,104(r5)
 1004ad0:	28001b15 	stw	zero,108(r5)
 1004ad4:	28001c15 	stw	zero,112(r5)
 1004ad8:	28001d15 	stw	zero,116(r5)
 1004adc:	28001e15 	stw	zero,120(r5)
 1004ae0:	28001f15 	stw	zero,124(r5)
 1004ae4:	28002015 	stw	zero,128(r5)
 1004ae8:	28002115 	stw	zero,132(r5)
 1004aec:	00800184 	movi	r2,6
 1004af0:	28002215 	stw	zero,136(r5)
 1004af4:	28002315 	stw	zero,140(r5)
 1004af8:	28002415 	stw	zero,144(r5)
 1004afc:	28002515 	stw	zero,148(r5)
 1004b00:	28002615 	stw	zero,152(r5)
 1004b04:	28002715 	stw	zero,156(r5)
 1004b08:	28002815 	stw	zero,160(r5)
 1004b0c:	28002915 	stw	zero,164(r5)
 1004b10:	28002a15 	stw	zero,168(r5)
 1004b14:	28002b15 	stw	zero,172(r5)
 1004b18:	28002c15 	stw	zero,176(r5)
 1004b1c:	28002d15 	stw	zero,180(r5)
 1004b20:	28002e15 	stw	zero,184(r5)
 1004b24:	28002f15 	stw	zero,188(r5)
 1004b28:	28003015 	stw	zero,192(r5)
 1004b2c:	28003105 	stb	zero,196(r5)
 1004b30:	d8800115 	stw	r2,4(sp)
 1004b34:	010041b4 	movhi	r4,262
 1004b38:	213b6504 	addi	r4,r4,-4716
 1004b3c:	10111c80 	call	10111c8 <_ZNSt11__timepunctIcEC1EPSt17__timepunct_cacheIcEm>
 1004b40:	00800244 	movi	r2,9
 1004b44:	d8800115 	stw	r2,4(sp)
 1004b48:	018041b4 	movhi	r6,262
 1004b4c:	31bb6504 	addi	r6,r6,-4716
 1004b50:	d9001117 	ldw	r4,68(sp)
 1004b54:	014041b4 	movhi	r5,262
 1004b58:	29785c04 	addi	r5,r5,-7824
 1004b5c:	10039180 	call	1003918 <_ZNSt6locale5_Impl16_M_install_facetEPKNS_2idEPKNS_5facetE>
 1004b60:	018041b4 	movhi	r6,262
 1004b64:	31b88904 	addi	r6,r6,-7644
 1004b68:	008041b4 	movhi	r2,262
 1004b6c:	10a1b004 	addi	r2,r2,-31040
 1004b70:	00c00044 	movi	r3,1
 1004b74:	30800015 	stw	r2,0(r6)
 1004b78:	30c00115 	stw	r3,4(r6)
 1004b7c:	d9001117 	ldw	r4,68(sp)
 1004b80:	014041b4 	movhi	r5,262
 1004b84:	29785e04 	addi	r5,r5,-7816
 1004b88:	10039180 	call	1003918 <_ZNSt6locale5_Impl16_M_install_facetEPKNS_2idEPKNS_5facetE>
 1004b8c:	018041b4 	movhi	r6,262
 1004b90:	31b88b04 	addi	r6,r6,-7636
 1004b94:	01400044 	movi	r5,1
 1004b98:	008041b4 	movhi	r2,262
 1004b9c:	10a1bf04 	addi	r2,r2,-30980
 1004ba0:	31400115 	stw	r5,4(r6)
 1004ba4:	30800015 	stw	r2,0(r6)
 1004ba8:	d9001117 	ldw	r4,68(sp)
 1004bac:	014041b4 	movhi	r5,262
 1004bb0:	29785d04 	addi	r5,r5,-7820
 1004bb4:	10039180 	call	1003918 <_ZNSt6locale5_Impl16_M_install_facetEPKNS_2idEPKNS_5facetE>
 1004bb8:	00800144 	movi	r2,5
 1004bbc:	d8800115 	stw	r2,4(sp)
 1004bc0:	01400044 	movi	r5,1
 1004bc4:	010041b4 	movhi	r4,262
 1004bc8:	213b6a04 	addi	r4,r4,-4696
 1004bcc:	1012b0c0 	call	1012b0c <_ZNSt8messagesIcEC1Em>
 1004bd0:	01800244 	movi	r6,9
 1004bd4:	d9800115 	stw	r6,4(sp)
 1004bd8:	d9001117 	ldw	r4,68(sp)
 1004bdc:	018041b4 	movhi	r6,262
 1004be0:	31bb6a04 	addi	r6,r6,-4696
 1004be4:	014041b4 	movhi	r5,262
 1004be8:	29785f04 	addi	r5,r5,-7812
 1004bec:	10039180 	call	1003918 <_ZNSt6locale5_Impl16_M_install_facetEPKNS_2idEPKNS_5facetE>
 1004bf0:	d8801117 	ldw	r2,68(sp)
 1004bf4:	010041b4 	movhi	r4,262
 1004bf8:	21385904 	addi	r4,r4,-7836
 1004bfc:	10800317 	ldw	r2,12(r2)
 1004c00:	d8801015 	stw	r2,64(sp)
 1004c04:	10020600 	call	1002060 <_ZNKSt6locale2id5_M_idEv>
 1004c08:	d9401117 	ldw	r5,68(sp)
 1004c0c:	d8c01017 	ldw	r3,64(sp)
 1004c10:	1085883a 	add	r2,r2,r2
 1004c14:	1085883a 	add	r2,r2,r2
 1004c18:	29400317 	ldw	r5,12(r5)
 1004c1c:	10c5883a 	add	r2,r2,r3
 1004c20:	00c041b4 	movhi	r3,262
 1004c24:	18fb6e04 	addi	r3,r3,-4680
 1004c28:	10c00015 	stw	r3,0(r2)
 1004c2c:	d9400f15 	stw	r5,60(sp)
 1004c30:	010041b4 	movhi	r4,262
 1004c34:	21385504 	addi	r4,r4,-7852
 1004c38:	10020600 	call	1002060 <_ZNKSt6locale2id5_M_idEv>
 1004c3c:	d9800f17 	ldw	r6,60(sp)
 1004c40:	1085883a 	add	r2,r2,r2
 1004c44:	1085883a 	add	r2,r2,r2
 1004c48:	1185883a 	add	r2,r2,r6
 1004c4c:	00c041b4 	movhi	r3,262
 1004c50:	18fb9904 	addi	r3,r3,-4508
 1004c54:	10c00015 	stw	r3,0(r2)
 1004c58:	d8801117 	ldw	r2,68(sp)
 1004c5c:	010041b4 	movhi	r4,262
 1004c60:	21385604 	addi	r4,r4,-7848
 1004c64:	10800317 	ldw	r2,12(r2)
 1004c68:	d8800e15 	stw	r2,56(sp)
 1004c6c:	10020600 	call	1002060 <_ZNKSt6locale2id5_M_idEv>
 1004c70:	d9401117 	ldw	r5,68(sp)
 1004c74:	d8c00e17 	ldw	r3,56(sp)
 1004c78:	1085883a 	add	r2,r2,r2
 1004c7c:	1085883a 	add	r2,r2,r2
 1004c80:	29400317 	ldw	r5,12(r5)
 1004c84:	10c5883a 	add	r2,r2,r3
 1004c88:	00c041b4 	movhi	r3,262
 1004c8c:	18fb8804 	addi	r3,r3,-4576
 1004c90:	10c00015 	stw	r3,0(r2)
 1004c94:	d9400d15 	stw	r5,52(sp)
 1004c98:	010041b4 	movhi	r4,262
 1004c9c:	21385c04 	addi	r4,r4,-7824
 1004ca0:	10020600 	call	1002060 <_ZNKSt6locale2id5_M_idEv>
 1004ca4:	d8c00d17 	ldw	r3,52(sp)
 1004ca8:	1085883a 	add	r2,r2,r2
 1004cac:	1085883a 	add	r2,r2,r2
 1004cb0:	10c5883a 	add	r2,r2,r3
 1004cb4:	00c041b4 	movhi	r3,262
 1004cb8:	18fbaa04 	addi	r3,r3,-4440
 1004cbc:	10c00015 	stw	r3,0(r2)
 1004cc0:	d809883a 	mov	r4,sp
 1004cc4:	10418f00 	call	10418f0 <_Unwind_SjLj_Unregister>
 1004cc8:	dfc01717 	ldw	ra,92(sp)
 1004ccc:	df001617 	ldw	fp,88(sp)
 1004cd0:	ddc01517 	ldw	r23,84(sp)
 1004cd4:	dec01804 	addi	sp,sp,96
 1004cd8:	f800283a 	ret
 1004cdc:	d9400217 	ldw	r5,8(sp)
 1004ce0:	d9800317 	ldw	r6,12(sp)
 1004ce4:	d8c00117 	ldw	r3,4(sp)
 1004ce8:	00800044 	movi	r2,1
 1004cec:	d9401415 	stw	r5,80(sp)
 1004cf0:	d9801315 	stw	r6,76(sp)
 1004cf4:	18802626 	beq	r3,r2,1004d90 <_ZNSt6locale5_ImplC1Em+0x79c>
 1004cf8:	00800084 	movi	r2,2
 1004cfc:	18801f26 	beq	r3,r2,1004d7c <_ZNSt6locale5_ImplC1Em+0x788>
 1004d00:	008000c4 	movi	r2,3
 1004d04:	18801426 	beq	r3,r2,1004d58 <_ZNSt6locale5_ImplC1Em+0x764>
 1004d08:	00800104 	movi	r2,4
 1004d0c:	18800c26 	beq	r3,r2,1004d40 <_ZNSt6locale5_ImplC1Em+0x74c>
 1004d10:	00800144 	movi	r2,5
 1004d14:	18800a26 	beq	r3,r2,1004d40 <_ZNSt6locale5_ImplC1Em+0x74c>
 1004d18:	00800184 	movi	r2,6
 1004d1c:	18800826 	beq	r3,r2,1004d40 <_ZNSt6locale5_ImplC1Em+0x74c>
 1004d20:	008001c4 	movi	r2,7
 1004d24:	18800626 	beq	r3,r2,1004d40 <_ZNSt6locale5_ImplC1Em+0x74c>
 1004d28:	00800204 	movi	r2,8
 1004d2c:	18800426 	beq	r3,r2,1004d40 <_ZNSt6locale5_ImplC1Em+0x74c>
 1004d30:	010041b4 	movhi	r4,262
 1004d34:	213b5f04 	addi	r4,r4,-4740
 1004d38:	d8000115 	stw	zero,4(sp)
 1004d3c:	10021680 	call	1002168 <_ZNSt6locale5facetD2Ev>
 1004d40:	d9801317 	ldw	r6,76(sp)
 1004d44:	00bfffc4 	movi	r2,-1
 1004d48:	30800826 	beq	r6,r2,1004d6c <_ZNSt6locale5_ImplC1Em+0x778>
 1004d4c:	d9001417 	ldw	r4,80(sp)
 1004d50:	d8800115 	stw	r2,4(sp)
 1004d54:	1041bac0 	call	1041bac <_Unwind_SjLj_Resume>
 1004d58:	010041b4 	movhi	r4,262
 1004d5c:	213b5904 	addi	r4,r4,-4764
 1004d60:	d8000115 	stw	zero,4(sp)
 1004d64:	10021680 	call	1002168 <_ZNSt6locale5facetD2Ev>
 1004d68:	003ff506 	br	1004d40 <_ZNSt6locale5_ImplC1Em+0x74c>
 1004d6c:	d9001417 	ldw	r4,80(sp)
 1004d70:	00bfffc4 	movi	r2,-1
 1004d74:	d8800115 	stw	r2,4(sp)
 1004d78:	10365f40 	call	10365f4 <__cxa_call_unexpected>
 1004d7c:	010041b4 	movhi	r4,262
 1004d80:	213b5604 	addi	r4,r4,-4776
 1004d84:	d8000115 	stw	zero,4(sp)
 1004d88:	10021680 	call	1002168 <_ZNSt6locale5facetD2Ev>
 1004d8c:	003fec06 	br	1004d40 <_ZNSt6locale5_ImplC1Em+0x74c>
 1004d90:	010041b4 	movhi	r4,262
 1004d94:	213b6204 	addi	r4,r4,-4728
 1004d98:	d8000115 	stw	zero,4(sp)
 1004d9c:	10021680 	call	1002168 <_ZNSt6locale5facetD2Ev>
 1004da0:	003fe706 	br	1004d40 <_ZNSt6locale5_ImplC1Em+0x74c>

01004da4 <_ZNSt6locale18_S_initialize_onceEv>:
 1004da4:	defffe04 	addi	sp,sp,-8
 1004da8:	dc000015 	stw	r16,0(sp)
 1004dac:	040041b4 	movhi	r16,262
 1004db0:	843aa404 	addi	r16,r16,-5488
 1004db4:	8009883a 	mov	r4,r16
 1004db8:	01400084 	movi	r5,2
 1004dbc:	dfc00115 	stw	ra,4(sp)
 1004dc0:	10045f40 	call	10045f4 <_ZNSt6locale5_ImplC1Em>
 1004dc4:	008041b4 	movhi	r2,262
 1004dc8:	10b85104 	addi	r2,r2,-7868
 1004dcc:	00c041b4 	movhi	r3,262
 1004dd0:	18f85204 	addi	r3,r3,-7864
 1004dd4:	800b883a 	mov	r5,r16
 1004dd8:	010041b4 	movhi	r4,262
 1004ddc:	21388004 	addi	r4,r4,-7680
 1004de0:	14000015 	stw	r16,0(r2)
 1004de4:	1c000015 	stw	r16,0(r3)
 1004de8:	dfc00117 	ldw	ra,4(sp)
 1004dec:	dc000017 	ldw	r16,0(sp)
 1004df0:	dec00204 	addi	sp,sp,8
 1004df4:	10020501 	jmpi	1002050 <_ZNSt6localeC1EPNS_5_ImplE>

01004df8 <_ZNSt6locale13_S_initializeEv>:
 1004df8:	008041b4 	movhi	r2,262
 1004dfc:	10b85104 	addi	r2,r2,-7868
 1004e00:	10c00017 	ldw	r3,0(r2)
 1004e04:	18000126 	beq	r3,zero,1004e0c <_ZNSt6locale13_S_initializeEv+0x14>
 1004e08:	f800283a 	ret
 1004e0c:	1004da41 	jmpi	1004da4 <_ZNSt6locale18_S_initialize_onceEv>

01004e10 <_ZNSt6locale7classicEv>:
 1004e10:	deffff04 	addi	sp,sp,-4
 1004e14:	dfc00015 	stw	ra,0(sp)
 1004e18:	1004df80 	call	1004df8 <_ZNSt6locale13_S_initializeEv>
 1004e1c:	008041b4 	movhi	r2,262
 1004e20:	10b88004 	addi	r2,r2,-7680
 1004e24:	dfc00017 	ldw	ra,0(sp)
 1004e28:	dec00104 	addi	sp,sp,4
 1004e2c:	f800283a 	ret

01004e30 <_ZNSt6locale6globalERKS_>:
 1004e30:	deffe704 	addi	sp,sp,-100
 1004e34:	008040f4 	movhi	r2,259
 1004e38:	1099dd04 	addi	r2,r2,26484
 1004e3c:	00c04174 	movhi	r3,261
 1004e40:	18dc5e04 	addi	r3,r3,29048
 1004e44:	d8800815 	stw	r2,32(sp)
 1004e48:	d9001315 	stw	r4,76(sp)
 1004e4c:	00804034 	movhi	r2,256
 1004e50:	1093dd04 	addi	r2,r2,20340
 1004e54:	d9000204 	addi	r4,sp,8
 1004e58:	d8c00915 	stw	r3,36(sp)
 1004e5c:	d8800b15 	stw	r2,44(sp)
 1004e60:	d9401415 	stw	r5,80(sp)
 1004e64:	dfc01815 	stw	ra,96(sp)
 1004e68:	df001715 	stw	fp,92(sp)
 1004e6c:	ddc01615 	stw	r23,88(sp)
 1004e70:	dec00a15 	stw	sp,40(sp)
 1004e74:	dec00c15 	stw	sp,48(sp)
 1004e78:	10418e00 	call	10418e0 <_Unwind_SjLj_Register>
 1004e7c:	1004df80 	call	1004df8 <_ZNSt6locale13_S_initializeEv>
 1004e80:	008041b4 	movhi	r2,262
 1004e84:	10b85204 	addi	r2,r2,-7864
 1004e88:	10800017 	ldw	r2,0(r2)
 1004e8c:	00c000c4 	movi	r3,3
 1004e90:	d8c00315 	stw	r3,12(sp)
 1004e94:	d8801215 	stw	r2,72(sp)
 1004e98:	d8801417 	ldw	r2,80(sp)
 1004e9c:	01400044 	movi	r5,1
 1004ea0:	11000017 	ldw	r4,0(r2)
 1004ea4:	1033ae80 	call	1033ae8 <_ZN9__gnu_cxx12__atomic_addEPVii>
 1004ea8:	d8c01417 	ldw	r3,80(sp)
 1004eac:	01000144 	movi	r4,5
 1004eb0:	d9401417 	ldw	r5,80(sp)
 1004eb4:	18800017 	ldw	r2,0(r3)
 1004eb8:	00c041b4 	movhi	r3,262
 1004ebc:	18f85204 	addi	r3,r3,-7864
 1004ec0:	18800015 	stw	r2,0(r3)
 1004ec4:	d8800104 	addi	r2,sp,4
 1004ec8:	d9000315 	stw	r4,12(sp)
 1004ecc:	d8801515 	stw	r2,84(sp)
 1004ed0:	1009883a 	mov	r4,r2
 1004ed4:	10024280 	call	1002428 <_ZNKSt6locale4nameEv>
 1004ed8:	00c00104 	movi	r3,4
 1004edc:	d8c00315 	stw	r3,12(sp)
 1004ee0:	d9001517 	ldw	r4,84(sp)
 1004ee4:	014041b4 	movhi	r5,262
 1004ee8:	2960d704 	addi	r5,r5,-31908
 1004eec:	10309640 	call	1030964 <_ZNKSs7compareEPKc>
 1004ef0:	1000111e 	bne	r2,zero,1004f38 <_ZNSt6locale6globalERKS_+0x108>
 1004ef4:	d8800117 	ldw	r2,4(sp)
 1004ef8:	00c041b4 	movhi	r3,262
 1004efc:	18f8a004 	addi	r3,r3,-7552
 1004f00:	10bffd04 	addi	r2,r2,-12
 1004f04:	d8800f15 	stw	r2,60(sp)
 1004f08:	10c00f1e 	bne	r2,r3,1004f48 <_ZNSt6locale6globalERKS_+0x118>
 1004f0c:	d9401217 	ldw	r5,72(sp)
 1004f10:	d9001317 	ldw	r4,76(sp)
 1004f14:	10020500 	call	1002050 <_ZNSt6localeC1EPNS_5_ImplE>
 1004f18:	d9000204 	addi	r4,sp,8
 1004f1c:	10418f00 	call	10418f0 <_Unwind_SjLj_Unregister>
 1004f20:	d8801317 	ldw	r2,76(sp)
 1004f24:	dfc01817 	ldw	ra,96(sp)
 1004f28:	df001717 	ldw	fp,92(sp)
 1004f2c:	ddc01617 	ldw	r23,88(sp)
 1004f30:	dec01904 	addi	sp,sp,100
 1004f34:	f800283a 	ret
 1004f38:	d9400117 	ldw	r5,4(sp)
 1004f3c:	0009883a 	mov	r4,zero
 1004f40:	1043be00 	call	1043be0 <setlocale>
 1004f44:	003feb06 	br	1004ef4 <_ZNSt6locale6globalERKS_+0xc4>
 1004f48:	d8c00f17 	ldw	r3,60(sp)
 1004f4c:	00800044 	movi	r2,1
 1004f50:	d8800315 	stw	r2,12(sp)
 1004f54:	19000204 	addi	r4,r3,8
 1004f58:	017fffc4 	movi	r5,-1
 1004f5c:	1033ad40 	call	1033ad4 <_ZN9__gnu_cxx18__exchange_and_addEPVii>
 1004f60:	00bfea16 	blt	zero,r2,1004f0c <_ZNSt6locale6globalERKS_+0xdc>
 1004f64:	d9000f17 	ldw	r4,60(sp)
 1004f68:	d80b883a 	mov	r5,sp
 1004f6c:	10305640 	call	1030564 <_ZNSs4_Rep10_M_destroyERKSaIcE>
 1004f70:	003fe606 	br	1004f0c <_ZNSt6locale6globalERKS_+0xdc>
 1004f74:	d8c00317 	ldw	r3,12(sp)
 1004f78:	00800044 	movi	r2,1
 1004f7c:	d9000417 	ldw	r4,16(sp)
 1004f80:	d9400517 	ldw	r5,20(sp)
 1004f84:	18800426 	beq	r3,r2,1004f98 <_ZNSt6locale6globalERKS_+0x168>
 1004f88:	00800084 	movi	r2,2
 1004f8c:	18800e26 	beq	r3,r2,1004fc8 <_ZNSt6locale6globalERKS_+0x198>
 1004f90:	008000c4 	movi	r2,3
 1004f94:	18800326 	beq	r3,r2,1004fa4 <_ZNSt6locale6globalERKS_+0x174>
 1004f98:	00bfffc4 	movi	r2,-1
 1004f9c:	d8800315 	stw	r2,12(sp)
 1004fa0:	1041bac0 	call	1041bac <_Unwind_SjLj_Resume>
 1004fa4:	d8800117 	ldw	r2,4(sp)
 1004fa8:	00c041b4 	movhi	r3,262
 1004fac:	18f8a004 	addi	r3,r3,-7552
 1004fb0:	d9001115 	stw	r4,68(sp)
 1004fb4:	10bffd04 	addi	r2,r2,-12
 1004fb8:	d8801015 	stw	r2,64(sp)
 1004fbc:	10c0071e 	bne	r2,r3,1004fdc <_ZNSt6locale6globalERKS_+0x1ac>
 1004fc0:	d9001117 	ldw	r4,68(sp)
 1004fc4:	003ff406 	br	1004f98 <_ZNSt6locale6globalERKS_+0x168>
 1004fc8:	00bfffc4 	movi	r2,-1
 1004fcc:	28bff31e 	bne	r5,r2,1004f9c <_ZNSt6locale6globalERKS_+0x16c>
 1004fd0:	00bfffc4 	movi	r2,-1
 1004fd4:	d8800315 	stw	r2,12(sp)
 1004fd8:	10365f40 	call	10365f4 <__cxa_call_unexpected>
 1004fdc:	00800084 	movi	r2,2
 1004fe0:	d8800315 	stw	r2,12(sp)
 1004fe4:	d8801017 	ldw	r2,64(sp)
 1004fe8:	017fffc4 	movi	r5,-1
 1004fec:	11000204 	addi	r4,r2,8
 1004ff0:	1033ad40 	call	1033ad4 <_ZN9__gnu_cxx18__exchange_and_addEPVii>
 1004ff4:	00bff216 	blt	zero,r2,1004fc0 <_ZNSt6locale6globalERKS_+0x190>
 1004ff8:	d9001017 	ldw	r4,64(sp)
 1004ffc:	d9400044 	addi	r5,sp,1
 1005000:	10305640 	call	1030564 <_ZNSs4_Rep10_M_destroyERKSaIcE>
 1005004:	003fee06 	br	1004fc0 <_ZNSt6locale6globalERKS_+0x190>

01005008 <_ZNSt6localeC1Ev>:
 1005008:	deffef04 	addi	sp,sp,-68
 100500c:	008040f4 	movhi	r2,259
 1005010:	1099dd04 	addi	r2,r2,26484
 1005014:	00c04174 	movhi	r3,261
 1005018:	18dc6404 	addi	r3,r3,29072
 100501c:	d8800615 	stw	r2,24(sp)
 1005020:	d9000d15 	stw	r4,52(sp)
 1005024:	00804034 	movhi	r2,256
 1005028:	10942904 	addi	r2,r2,20644
 100502c:	d809883a 	mov	r4,sp
 1005030:	dfc01015 	stw	ra,64(sp)
 1005034:	d8c00715 	stw	r3,28(sp)
 1005038:	d8800915 	stw	r2,36(sp)
 100503c:	df000f15 	stw	fp,60(sp)
 1005040:	ddc00e15 	stw	r23,56(sp)
 1005044:	dec00815 	stw	sp,32(sp)
 1005048:	dec00a15 	stw	sp,40(sp)
 100504c:	10418e00 	call	10418e0 <_Unwind_SjLj_Register>
 1005050:	d8800d17 	ldw	r2,52(sp)
 1005054:	10000015 	stw	zero,0(r2)
 1005058:	1004df80 	call	1004df8 <_ZNSt6locale13_S_initializeEv>
 100505c:	01400044 	movi	r5,1
 1005060:	d9400115 	stw	r5,4(sp)
 1005064:	008041b4 	movhi	r2,262
 1005068:	10b85204 	addi	r2,r2,-7864
 100506c:	11000017 	ldw	r4,0(r2)
 1005070:	1033ae80 	call	1033ae8 <_ZN9__gnu_cxx12__atomic_addEPVii>
 1005074:	008041b4 	movhi	r2,262
 1005078:	10b85204 	addi	r2,r2,-7864
 100507c:	10c00017 	ldw	r3,0(r2)
 1005080:	d8800d17 	ldw	r2,52(sp)
 1005084:	d809883a 	mov	r4,sp
 1005088:	10c00015 	stw	r3,0(r2)
 100508c:	10418f00 	call	10418f0 <_Unwind_SjLj_Unregister>
 1005090:	dfc01017 	ldw	ra,64(sp)
 1005094:	df000f17 	ldw	fp,60(sp)
 1005098:	ddc00e17 	ldw	r23,56(sp)
 100509c:	dec01104 	addi	sp,sp,68
 10050a0:	f800283a 	ret
 10050a4:	d8800317 	ldw	r2,12(sp)
 10050a8:	00ffffc4 	movi	r3,-1
 10050ac:	d9000217 	ldw	r4,8(sp)
 10050b0:	10c00226 	beq	r2,r3,10050bc <_ZNSt6localeC1Ev+0xb4>
 10050b4:	d8c00115 	stw	r3,4(sp)
 10050b8:	1041bac0 	call	1041bac <_Unwind_SjLj_Resume>
 10050bc:	00bfffc4 	movi	r2,-1
 10050c0:	d8800115 	stw	r2,4(sp)
 10050c4:	10365f40 	call	10365f4 <__cxa_call_unexpected>

010050c8 <_ZNSt6localeC2Ev>:
 10050c8:	deffef04 	addi	sp,sp,-68
 10050cc:	008040f4 	movhi	r2,259
 10050d0:	1099dd04 	addi	r2,r2,26484
 10050d4:	00c04174 	movhi	r3,261
 10050d8:	18dc6804 	addi	r3,r3,29088
 10050dc:	d8800615 	stw	r2,24(sp)
 10050e0:	d9000d15 	stw	r4,52(sp)
 10050e4:	00804034 	movhi	r2,256
 10050e8:	10945904 	addi	r2,r2,20836
 10050ec:	d809883a 	mov	r4,sp
 10050f0:	dfc01015 	stw	ra,64(sp)
 10050f4:	d8c00715 	stw	r3,28(sp)
 10050f8:	d8800915 	stw	r2,36(sp)
 10050fc:	df000f15 	stw	fp,60(sp)
 1005100:	ddc00e15 	stw	r23,56(sp)
 1005104:	dec00815 	stw	sp,32(sp)
 1005108:	dec00a15 	stw	sp,40(sp)
 100510c:	10418e00 	call	10418e0 <_Unwind_SjLj_Register>
 1005110:	d8800d17 	ldw	r2,52(sp)
 1005114:	10000015 	stw	zero,0(r2)
 1005118:	1004df80 	call	1004df8 <_ZNSt6locale13_S_initializeEv>
 100511c:	01400044 	movi	r5,1
 1005120:	d9400115 	stw	r5,4(sp)
 1005124:	008041b4 	movhi	r2,262
 1005128:	10b85204 	addi	r2,r2,-7864
 100512c:	11000017 	ldw	r4,0(r2)
 1005130:	1033ae80 	call	1033ae8 <_ZN9__gnu_cxx12__atomic_addEPVii>
 1005134:	008041b4 	movhi	r2,262
 1005138:	10b85204 	addi	r2,r2,-7864
 100513c:	10c00017 	ldw	r3,0(r2)
 1005140:	d8800d17 	ldw	r2,52(sp)
 1005144:	d809883a 	mov	r4,sp
 1005148:	10c00015 	stw	r3,0(r2)
 100514c:	10418f00 	call	10418f0 <_Unwind_SjLj_Unregister>
 1005150:	dfc01017 	ldw	ra,64(sp)
 1005154:	df000f17 	ldw	fp,60(sp)
 1005158:	ddc00e17 	ldw	r23,56(sp)
 100515c:	dec01104 	addi	sp,sp,68
 1005160:	f800283a 	ret
 1005164:	d8800317 	ldw	r2,12(sp)
 1005168:	00ffffc4 	movi	r3,-1
 100516c:	d9000217 	ldw	r4,8(sp)
 1005170:	10c00226 	beq	r2,r3,100517c <_ZNSt6localeC2Ev+0xb4>
 1005174:	d8c00115 	stw	r3,4(sp)
 1005178:	1041bac0 	call	1041bac <_Unwind_SjLj_Resume>
 100517c:	00bfffc4 	movi	r2,-1
 1005180:	d8800115 	stw	r2,4(sp)
 1005184:	10365f40 	call	10365f4 <__cxa_call_unexpected>

01005188 <_ZN9__gnu_cxx4ropeIcSaIcEE8_S_fetchEPNS_13_Rope_RopeRepIcS1_EEm>:
 1005188:	20800417 	ldw	r2,16(r4)
 100518c:	defffe04 	addi	sp,sp,-8
 1005190:	dfc00115 	stw	ra,4(sp)
 1005194:	10000526 	beq	r2,zero,10051ac <_ZN9__gnu_cxx4ropeIcSaIcEE8_S_fetchEPNS_13_Rope_RopeRepIcS1_EEm+0x24>
 1005198:	1145883a 	add	r2,r2,r5
 100519c:	10800007 	ldb	r2,0(r2)
 10051a0:	dfc00117 	ldw	ra,4(sp)
 10051a4:	dec00204 	addi	sp,sp,8
 10051a8:	f800283a 	ret
 10051ac:	20c00303 	ldbu	r3,12(r4)
 10051b0:	00800044 	movi	r2,1
 10051b4:	18800e26 	beq	r3,r2,10051f0 <_ZN9__gnu_cxx4ropeIcSaIcEE8_S_fetchEPNS_13_Rope_RopeRepIcS1_EEm+0x68>
 10051b8:	10c00316 	blt	r2,r3,10051c8 <_ZN9__gnu_cxx4ropeIcSaIcEE8_S_fetchEPNS_13_Rope_RopeRepIcS1_EEm+0x40>
 10051bc:	183ffc1e 	bne	r3,zero,10051b0 <_ZN9__gnu_cxx4ropeIcSaIcEE8_S_fetchEPNS_13_Rope_RopeRepIcS1_EEm+0x28>
 10051c0:	20800617 	ldw	r2,24(r4)
 10051c4:	003ff406 	br	1005198 <_ZN9__gnu_cxx4ropeIcSaIcEE8_S_fetchEPNS_13_Rope_RopeRepIcS1_EEm+0x10>
 10051c8:	008000c4 	movi	r2,3
 10051cc:	10fff816 	blt	r2,r3,10051b0 <_ZN9__gnu_cxx4ropeIcSaIcEE8_S_fetchEPNS_13_Rope_RopeRepIcS1_EEm+0x28>
 10051d0:	21000617 	ldw	r4,24(r4)
 10051d4:	01800044 	movi	r6,1
 10051d8:	d80f883a 	mov	r7,sp
 10051dc:	20c00017 	ldw	r3,0(r4)
 10051e0:	18800217 	ldw	r2,8(r3)
 10051e4:	103ee83a 	callr	r2
 10051e8:	d8800007 	ldb	r2,0(sp)
 10051ec:	003fec06 	br	10051a0 <_ZN9__gnu_cxx4ropeIcSaIcEE8_S_fetchEPNS_13_Rope_RopeRepIcS1_EEm+0x18>
 10051f0:	20c00617 	ldw	r3,24(r4)
 10051f4:	18800017 	ldw	r2,0(r3)
 10051f8:	28800436 	bltu	r5,r2,100520c <_ZN9__gnu_cxx4ropeIcSaIcEE8_S_fetchEPNS_13_Rope_RopeRepIcS1_EEm+0x84>
 10051fc:	21000717 	ldw	r4,28(r4)
 1005200:	288bc83a 	sub	r5,r5,r2
 1005204:	20c00303 	ldbu	r3,12(r4)
 1005208:	003fe906 	br	10051b0 <_ZN9__gnu_cxx4ropeIcSaIcEE8_S_fetchEPNS_13_Rope_RopeRepIcS1_EEm+0x28>
 100520c:	1809883a 	mov	r4,r3
 1005210:	18c00303 	ldbu	r3,12(r3)
 1005214:	003fe606 	br	10051b0 <_ZN9__gnu_cxx4ropeIcSaIcEE8_S_fetchEPNS_13_Rope_RopeRepIcS1_EEm+0x28>

01005218 <_ZN9__gnu_cxx13stdio_filebufIcSt11char_traitsIcEE4fileEv>:
 1005218:	21000904 	addi	r4,r4,36
 100521c:	1034bc81 	jmpi	1034bc8 <_ZNSt12__basic_fileIcE4fileEv>

01005220 <_ZN9__gnu_cxx13stdio_filebufIcSt11char_traitsIcEE2fdEv>:
 1005220:	21000904 	addi	r4,r4,36
 1005224:	1034d881 	jmpi	1034d88 <_ZNSt12__basic_fileIcE2fdEv>

01005228 <_ZN9__gnu_cxx13stdio_filebufIcSt11char_traitsIcEEC1Ev>:
 1005228:	defffe04 	addi	sp,sp,-8
 100522c:	dc000015 	stw	r16,0(sp)
 1005230:	dfc00115 	stw	ra,4(sp)
 1005234:	2021883a 	mov	r16,r4
 1005238:	103bb800 	call	103bb80 <_ZNSt13basic_filebufIcSt11char_traitsIcEEC2Ev>
 100523c:	008041b4 	movhi	r2,262
 1005240:	10a11f04 	addi	r2,r2,-31620
 1005244:	80800015 	stw	r2,0(r16)
 1005248:	dfc00117 	ldw	ra,4(sp)
 100524c:	dc000017 	ldw	r16,0(sp)
 1005250:	dec00204 	addi	sp,sp,8
 1005254:	f800283a 	ret

01005258 <_ZN9__gnu_cxx13stdio_filebufIcSt11char_traitsIcEEC2Ev>:
 1005258:	defffe04 	addi	sp,sp,-8
 100525c:	dc000015 	stw	r16,0(sp)
 1005260:	dfc00115 	stw	ra,4(sp)
 1005264:	2021883a 	mov	r16,r4
 1005268:	103bb800 	call	103bb80 <_ZNSt13basic_filebufIcSt11char_traitsIcEEC2Ev>
 100526c:	008041b4 	movhi	r2,262
 1005270:	10a11f04 	addi	r2,r2,-31620
 1005274:	80800015 	stw	r2,0(r16)
 1005278:	dfc00117 	ldw	ra,4(sp)
 100527c:	dc000017 	ldw	r16,0(sp)
 1005280:	dec00204 	addi	sp,sp,8
 1005284:	f800283a 	ret

01005288 <_ZN9__gnu_cxx13stdio_filebufIcSt11char_traitsIcEEC1EP7__sFILESt13_Ios_Openmodem>:
 1005288:	deffe804 	addi	sp,sp,-96
 100528c:	008040f4 	movhi	r2,259
 1005290:	1099dd04 	addi	r2,r2,26484
 1005294:	00c04174 	movhi	r3,261
 1005298:	18dc6c04 	addi	r3,r3,29104
 100529c:	d8800615 	stw	r2,24(sp)
 10052a0:	d9000f15 	stw	r4,60(sp)
 10052a4:	00804034 	movhi	r2,256
 10052a8:	1094ee04 	addi	r2,r2,21432
 10052ac:	d809883a 	mov	r4,sp
 10052b0:	d8c00715 	stw	r3,28(sp)
 10052b4:	d9401015 	stw	r5,64(sp)
 10052b8:	d9801115 	stw	r6,68(sp)
 10052bc:	dfc01715 	stw	ra,92(sp)
 10052c0:	d8800915 	stw	r2,36(sp)
 10052c4:	d9c01215 	stw	r7,72(sp)
 10052c8:	df001615 	stw	fp,88(sp)
 10052cc:	ddc01515 	stw	r23,84(sp)
 10052d0:	dec00815 	stw	sp,32(sp)
 10052d4:	dec00a15 	stw	sp,40(sp)
 10052d8:	10418e00 	call	10418e0 <_Unwind_SjLj_Register>
 10052dc:	d9000f17 	ldw	r4,60(sp)
 10052e0:	00bfffc4 	movi	r2,-1
 10052e4:	d8800115 	stw	r2,4(sp)
 10052e8:	103bb800 	call	103bb80 <_ZNSt13basic_filebufIcSt11char_traitsIcEEC2Ev>
 10052ec:	d8c00f17 	ldw	r3,60(sp)
 10052f0:	008041b4 	movhi	r2,262
 10052f4:	10a11f04 	addi	r2,r2,-31620
 10052f8:	d9401017 	ldw	r5,64(sp)
 10052fc:	18800015 	stw	r2,0(r3)
 1005300:	18c00904 	addi	r3,r3,36
 1005304:	008000c4 	movi	r2,3
 1005308:	d8800115 	stw	r2,4(sp)
 100530c:	d8c01315 	stw	r3,76(sp)
 1005310:	1809883a 	mov	r4,r3
 1005314:	d9801117 	ldw	r6,68(sp)
 1005318:	1034bd80 	call	1034bd8 <_ZNSt12__basic_fileIcE8sys_openEP7__sFILESt13_Ios_Openmode>
 100531c:	00800084 	movi	r2,2
 1005320:	d8800115 	stw	r2,4(sp)
 1005324:	d9001317 	ldw	r4,76(sp)
 1005328:	1034bbc0 	call	1034bbc <_ZNKSt12__basic_fileIcE7is_openEv>
 100532c:	10803fcc 	andi	r2,r2,255
 1005330:	1000071e 	bne	r2,zero,1005350 <_ZN9__gnu_cxx13stdio_filebufIcSt11char_traitsIcEEC1EP7__sFILESt13_Ios_Openmodem+0xc8>
 1005334:	d809883a 	mov	r4,sp
 1005338:	10418f00 	call	10418f0 <_Unwind_SjLj_Unregister>
 100533c:	dfc01717 	ldw	ra,92(sp)
 1005340:	df001617 	ldw	fp,88(sp)
 1005344:	ddc01517 	ldw	r23,84(sp)
 1005348:	dec01804 	addi	sp,sp,96
 100534c:	f800283a 	ret
 1005350:	d8800f17 	ldw	r2,60(sp)
 1005354:	d8c01117 	ldw	r3,68(sp)
 1005358:	d9000f17 	ldw	r4,60(sp)
 100535c:	10c00b15 	stw	r3,44(r2)
 1005360:	d8c01217 	ldw	r3,72(sp)
 1005364:	10c01315 	stw	r3,76(r2)
 1005368:	008000c4 	movi	r2,3
 100536c:	d8800115 	stw	r2,4(sp)
 1005370:	103b2f80 	call	103b2f8 <_ZNSt13basic_filebufIcSt11char_traitsIcEE27_M_allocate_internal_bufferEv>
 1005374:	d8c00f17 	ldw	r3,60(sp)
 1005378:	d809883a 	mov	r4,sp
 100537c:	18801217 	ldw	r2,72(r3)
 1005380:	18000615 	stw	zero,24(r3)
 1005384:	18001445 	stb	zero,81(r3)
 1005388:	18800315 	stw	r2,12(r3)
 100538c:	18001485 	stb	zero,82(r3)
 1005390:	18800115 	stw	r2,4(r3)
 1005394:	18800215 	stw	r2,8(r3)
 1005398:	18000515 	stw	zero,20(r3)
 100539c:	18000415 	stw	zero,16(r3)
 10053a0:	10418f00 	call	10418f0 <_Unwind_SjLj_Unregister>
 10053a4:	dfc01717 	ldw	ra,92(sp)
 10053a8:	df001617 	ldw	fp,88(sp)
 10053ac:	ddc01517 	ldw	r23,84(sp)
 10053b0:	dec01804 	addi	sp,sp,96
 10053b4:	f800283a 	ret
 10053b8:	d8800217 	ldw	r2,8(sp)
 10053bc:	d9000117 	ldw	r4,4(sp)
 10053c0:	d8c00317 	ldw	r3,12(sp)
 10053c4:	d8801415 	stw	r2,80(sp)
 10053c8:	00800044 	movi	r2,1
 10053cc:	20800c26 	beq	r4,r2,1005400 <_ZN9__gnu_cxx13stdio_filebufIcSt11char_traitsIcEEC1EP7__sFILESt13_Ios_Openmodem+0x178>
 10053d0:	00800084 	movi	r2,2
 10053d4:	20801026 	beq	r4,r2,1005418 <_ZN9__gnu_cxx13stdio_filebufIcSt11char_traitsIcEEC1EP7__sFILESt13_Ios_Openmodem+0x190>
 10053d8:	d8c00d17 	ldw	r3,52(sp)
 10053dc:	008041b4 	movhi	r2,262
 10053e0:	10a40d04 	addi	r2,r2,-28620
 10053e4:	18800015 	stw	r2,0(r3)
 10053e8:	19000704 	addi	r4,r3,28
 10053ec:	10033ac0 	call	10033ac <_ZNSt6localeD1Ev>
 10053f0:	00bfffc4 	movi	r2,-1
 10053f4:	d9001417 	ldw	r4,80(sp)
 10053f8:	d8800115 	stw	r2,4(sp)
 10053fc:	1041bac0 	call	1041bac <_Unwind_SjLj_Resume>
 1005400:	00bfffc4 	movi	r2,-1
 1005404:	18bffb1e 	bne	r3,r2,10053f4 <_ZN9__gnu_cxx13stdio_filebufIcSt11char_traitsIcEEC1EP7__sFILESt13_Ios_Openmodem+0x16c>
 1005408:	d9001417 	ldw	r4,80(sp)
 100540c:	00bfffc4 	movi	r2,-1
 1005410:	d8800115 	stw	r2,4(sp)
 1005414:	10365f40 	call	10365f4 <__cxa_call_unexpected>
 1005418:	d8800f17 	ldw	r2,60(sp)
 100541c:	d8800d15 	stw	r2,52(sp)
 1005420:	d8c00d17 	ldw	r3,52(sp)
 1005424:	008041b4 	movhi	r2,262
 1005428:	10a71804 	addi	r2,r2,-25504
 100542c:	1809883a 	mov	r4,r3
 1005430:	18800015 	stw	r2,0(r3)
 1005434:	103c8500 	call	103c850 <_ZNSt13basic_filebufIcSt11char_traitsIcEE5closeEv>
 1005438:	00c00044 	movi	r3,1
 100543c:	d8c00115 	stw	r3,4(sp)
 1005440:	d8801417 	ldw	r2,80(sp)
 1005444:	d8c00d17 	ldw	r3,52(sp)
 1005448:	d8800e15 	stw	r2,56(sp)
 100544c:	19000904 	addi	r4,r3,36
 1005450:	1034d800 	call	1034d80 <_ZNSt12__basic_fileIcED1Ev>
 1005454:	d8c00d17 	ldw	r3,52(sp)
 1005458:	008041b4 	movhi	r2,262
 100545c:	10a40d04 	addi	r2,r2,-28620
 1005460:	18800015 	stw	r2,0(r3)
 1005464:	19000704 	addi	r4,r3,28
 1005468:	10033ac0 	call	10033ac <_ZNSt6localeD1Ev>
 100546c:	d9000e17 	ldw	r4,56(sp)
 1005470:	00bfffc4 	movi	r2,-1
 1005474:	d8800115 	stw	r2,4(sp)
 1005478:	1041bac0 	call	1041bac <_Unwind_SjLj_Resume>

0100547c <_ZN9__gnu_cxx13stdio_filebufIcSt11char_traitsIcEEC2EiSt13_Ios_Openmodem>:
 100547c:	deffe804 	addi	sp,sp,-96
 1005480:	008040f4 	movhi	r2,259
 1005484:	1099dd04 	addi	r2,r2,26484
 1005488:	00c04174 	movhi	r3,261
 100548c:	18dc7104 	addi	r3,r3,29124
 1005490:	d8800615 	stw	r2,24(sp)
 1005494:	d9000f15 	stw	r4,60(sp)
 1005498:	00804034 	movhi	r2,256
 100549c:	10956b04 	addi	r2,r2,21932
 10054a0:	d809883a 	mov	r4,sp
 10054a4:	d8c00715 	stw	r3,28(sp)
 10054a8:	d9401015 	stw	r5,64(sp)
 10054ac:	d9801115 	stw	r6,68(sp)
 10054b0:	dfc01715 	stw	ra,92(sp)
 10054b4:	d8800915 	stw	r2,36(sp)
 10054b8:	d9c01215 	stw	r7,72(sp)
 10054bc:	df001615 	stw	fp,88(sp)
 10054c0:	ddc01515 	stw	r23,84(sp)
 10054c4:	dec00815 	stw	sp,32(sp)
 10054c8:	dec00a15 	stw	sp,40(sp)
 10054cc:	10418e00 	call	10418e0 <_Unwind_SjLj_Register>
 10054d0:	d9000f17 	ldw	r4,60(sp)
 10054d4:	00bfffc4 	movi	r2,-1
 10054d8:	d8800115 	stw	r2,4(sp)
 10054dc:	103bb800 	call	103bb80 <_ZNSt13basic_filebufIcSt11char_traitsIcEEC2Ev>
 10054e0:	d8c00f17 	ldw	r3,60(sp)
 10054e4:	008041b4 	movhi	r2,262
 10054e8:	10a11f04 	addi	r2,r2,-31620
 10054ec:	d9401017 	ldw	r5,64(sp)
 10054f0:	18800015 	stw	r2,0(r3)
 10054f4:	18c00904 	addi	r3,r3,36
 10054f8:	008000c4 	movi	r2,3
 10054fc:	d8800115 	stw	r2,4(sp)
 1005500:	d8c01315 	stw	r3,76(sp)
 1005504:	1809883a 	mov	r4,r3
 1005508:	d9801117 	ldw	r6,68(sp)
 100550c:	10350700 	call	1035070 <_ZNSt12__basic_fileIcE8sys_openEiSt13_Ios_Openmode>
 1005510:	00800084 	movi	r2,2
 1005514:	d8800115 	stw	r2,4(sp)
 1005518:	d9001317 	ldw	r4,76(sp)
 100551c:	1034bbc0 	call	1034bbc <_ZNKSt12__basic_fileIcE7is_openEv>
 1005520:	10803fcc 	andi	r2,r2,255
 1005524:	1000071e 	bne	r2,zero,1005544 <_ZN9__gnu_cxx13stdio_filebufIcSt11char_traitsIcEEC2EiSt13_Ios_Openmodem+0xc8>
 1005528:	d809883a 	mov	r4,sp
 100552c:	10418f00 	call	10418f0 <_Unwind_SjLj_Unregister>
 1005530:	dfc01717 	ldw	ra,92(sp)
 1005534:	df001617 	ldw	fp,88(sp)
 1005538:	ddc01517 	ldw	r23,84(sp)
 100553c:	dec01804 	addi	sp,sp,96
 1005540:	f800283a 	ret
 1005544:	d8800f17 	ldw	r2,60(sp)
 1005548:	d8c01117 	ldw	r3,68(sp)
 100554c:	d9000f17 	ldw	r4,60(sp)
 1005550:	10c00b15 	stw	r3,44(r2)
 1005554:	d8c01217 	ldw	r3,72(sp)
 1005558:	10c01315 	stw	r3,76(r2)
 100555c:	008000c4 	movi	r2,3
 1005560:	d8800115 	stw	r2,4(sp)
 1005564:	103b2f80 	call	103b2f8 <_ZNSt13basic_filebufIcSt11char_traitsIcEE27_M_allocate_internal_bufferEv>
 1005568:	d8c00f17 	ldw	r3,60(sp)
 100556c:	d809883a 	mov	r4,sp
 1005570:	18801217 	ldw	r2,72(r3)
 1005574:	18000615 	stw	zero,24(r3)
 1005578:	18001445 	stb	zero,81(r3)
 100557c:	18800315 	stw	r2,12(r3)
 1005580:	18001485 	stb	zero,82(r3)
 1005584:	18800115 	stw	r2,4(r3)
 1005588:	18800215 	stw	r2,8(r3)
 100558c:	18000515 	stw	zero,20(r3)
 1005590:	18000415 	stw	zero,16(r3)
 1005594:	10418f00 	call	10418f0 <_Unwind_SjLj_Unregister>
 1005598:	dfc01717 	ldw	ra,92(sp)
 100559c:	df001617 	ldw	fp,88(sp)
 10055a0:	ddc01517 	ldw	r23,84(sp)
 10055a4:	dec01804 	addi	sp,sp,96
 10055a8:	f800283a 	ret
 10055ac:	d8800217 	ldw	r2,8(sp)
 10055b0:	d9000117 	ldw	r4,4(sp)
 10055b4:	d8c00317 	ldw	r3,12(sp)
 10055b8:	d8801415 	stw	r2,80(sp)
 10055bc:	00800044 	movi	r2,1
 10055c0:	20800c26 	beq	r4,r2,10055f4 <_ZN9__gnu_cxx13stdio_filebufIcSt11char_traitsIcEEC2EiSt13_Ios_Openmodem+0x178>
 10055c4:	00800084 	movi	r2,2
 10055c8:	20801026 	beq	r4,r2,100560c <_ZN9__gnu_cxx13stdio_filebufIcSt11char_traitsIcEEC2EiSt13_Ios_Openmodem+0x190>
 10055cc:	d8c00d17 	ldw	r3,52(sp)
 10055d0:	008041b4 	movhi	r2,262
 10055d4:	10a40d04 	addi	r2,r2,-28620
 10055d8:	18800015 	stw	r2,0(r3)
 10055dc:	19000704 	addi	r4,r3,28
 10055e0:	10033ac0 	call	10033ac <_ZNSt6localeD1Ev>
 10055e4:	00bfffc4 	movi	r2,-1
 10055e8:	d9001417 	ldw	r4,80(sp)
 10055ec:	d8800115 	stw	r2,4(sp)
 10055f0:	1041bac0 	call	1041bac <_Unwind_SjLj_Resume>
 10055f4:	00bfffc4 	movi	r2,-1
 10055f8:	18bffb1e 	bne	r3,r2,10055e8 <_ZN9__gnu_cxx13stdio_filebufIcSt11char_traitsIcEEC2EiSt13_Ios_Openmodem+0x16c>
 10055fc:	d9001417 	ldw	r4,80(sp)
 1005600:	00bfffc4 	movi	r2,-1
 1005604:	d8800115 	stw	r2,4(sp)
 1005608:	10365f40 	call	10365f4 <__cxa_call_unexpected>
 100560c:	d8800f17 	ldw	r2,60(sp)
 1005610:	d8800d15 	stw	r2,52(sp)
 1005614:	d8c00d17 	ldw	r3,52(sp)
 1005618:	008041b4 	movhi	r2,262
 100561c:	10a71804 	addi	r2,r2,-25504
 1005620:	1809883a 	mov	r4,r3
 1005624:	18800015 	stw	r2,0(r3)
 1005628:	103c8500 	call	103c850 <_ZNSt13basic_filebufIcSt11char_traitsIcEE5closeEv>
 100562c:	00c00044 	movi	r3,1
 1005630:	d8c00115 	stw	r3,4(sp)
 1005634:	d8801417 	ldw	r2,80(sp)
 1005638:	d8c00d17 	ldw	r3,52(sp)
 100563c:	d8800e15 	stw	r2,56(sp)
 1005640:	19000904 	addi	r4,r3,36
 1005644:	1034d800 	call	1034d80 <_ZNSt12__basic_fileIcED1Ev>
 1005648:	d8c00d17 	ldw	r3,52(sp)
 100564c:	008041b4 	movhi	r2,262
 1005650:	10a40d04 	addi	r2,r2,-28620
 1005654:	18800015 	stw	r2,0(r3)
 1005658:	19000704 	addi	r4,r3,28
 100565c:	10033ac0 	call	10033ac <_ZNSt6localeD1Ev>
 1005660:	d9000e17 	ldw	r4,56(sp)
 1005664:	00bfffc4 	movi	r2,-1
 1005668:	d8800115 	stw	r2,4(sp)
 100566c:	1041bac0 	call	1041bac <_Unwind_SjLj_Resume>

01005670 <_ZN9__gnu_cxx13stdio_filebufIcSt11char_traitsIcEEC2EP7__sFILESt13_Ios_Openmodem>:
 1005670:	deffe804 	addi	sp,sp,-96
 1005674:	008040f4 	movhi	r2,259
 1005678:	1099dd04 	addi	r2,r2,26484
 100567c:	00c04174 	movhi	r3,261
 1005680:	18dc7604 	addi	r3,r3,29144
 1005684:	d8800615 	stw	r2,24(sp)
 1005688:	d9000f15 	stw	r4,60(sp)
 100568c:	00804034 	movhi	r2,256
 1005690:	1095e804 	addi	r2,r2,22432
 1005694:	d809883a 	mov	r4,sp
 1005698:	d8c00715 	stw	r3,28(sp)
 100569c:	d9401015 	stw	r5,64(sp)
 10056a0:	d9801115 	stw	r6,68(sp)
 10056a4:	dfc01715 	stw	ra,92(sp)
 10056a8:	d8800915 	stw	r2,36(sp)
 10056ac:	d9c01215 	stw	r7,72(sp)
 10056b0:	df001615 	stw	fp,88(sp)
 10056b4:	ddc01515 	stw	r23,84(sp)
 10056b8:	dec00815 	stw	sp,32(sp)
 10056bc:	dec00a15 	stw	sp,40(sp)
 10056c0:	10418e00 	call	10418e0 <_Unwind_SjLj_Register>
 10056c4:	d9000f17 	ldw	r4,60(sp)
 10056c8:	00bfffc4 	movi	r2,-1
 10056cc:	d8800115 	stw	r2,4(sp)
 10056d0:	103bb800 	call	103bb80 <_ZNSt13basic_filebufIcSt11char_traitsIcEEC2Ev>
 10056d4:	d8c00f17 	ldw	r3,60(sp)
 10056d8:	008041b4 	movhi	r2,262
 10056dc:	10a11f04 	addi	r2,r2,-31620
 10056e0:	d9401017 	ldw	r5,64(sp)
 10056e4:	18800015 	stw	r2,0(r3)
 10056e8:	18c00904 	addi	r3,r3,36
 10056ec:	008000c4 	movi	r2,3
 10056f0:	d8800115 	stw	r2,4(sp)
 10056f4:	d8c01315 	stw	r3,76(sp)
 10056f8:	1809883a 	mov	r4,r3
 10056fc:	d9801117 	ldw	r6,68(sp)
 1005700:	1034bd80 	call	1034bd8 <_ZNSt12__basic_fileIcE8sys_openEP7__sFILESt13_Ios_Openmode>
 1005704:	00800084 	movi	r2,2
 1005708:	d8800115 	stw	r2,4(sp)
 100570c:	d9001317 	ldw	r4,76(sp)
 1005710:	1034bbc0 	call	1034bbc <_ZNKSt12__basic_fileIcE7is_openEv>
 1005714:	10803fcc 	andi	r2,r2,255
 1005718:	1000071e 	bne	r2,zero,1005738 <_ZN9__gnu_cxx13stdio_filebufIcSt11char_traitsIcEEC2EP7__sFILESt13_Ios_Openmodem+0xc8>
 100571c:	d809883a 	mov	r4,sp
 1005720:	10418f00 	call	10418f0 <_Unwind_SjLj_Unregister>
 1005724:	dfc01717 	ldw	ra,92(sp)
 1005728:	df001617 	ldw	fp,88(sp)
 100572c:	ddc01517 	ldw	r23,84(sp)
 1005730:	dec01804 	addi	sp,sp,96
 1005734:	f800283a 	ret
 1005738:	d8800f17 	ldw	r2,60(sp)
 100573c:	d8c01117 	ldw	r3,68(sp)
 1005740:	d9000f17 	ldw	r4,60(sp)
 1005744:	10c00b15 	stw	r3,44(r2)
 1005748:	d8c01217 	ldw	r3,72(sp)
 100574c:	10c01315 	stw	r3,76(r2)
 1005750:	008000c4 	movi	r2,3
 1005754:	d8800115 	stw	r2,4(sp)
 1005758:	103b2f80 	call	103b2f8 <_ZNSt13basic_filebufIcSt11char_traitsIcEE27_M_allocate_internal_bufferEv>
 100575c:	d8c00f17 	ldw	r3,60(sp)
 1005760:	d809883a 	mov	r4,sp
 1005764:	18801217 	ldw	r2,72(r3)
 1005768:	18000615 	stw	zero,24(r3)
 100576c:	18001445 	stb	zero,81(r3)
 1005770:	18800315 	stw	r2,12(r3)
 1005774:	18001485 	stb	zero,82(r3)
 1005778:	18800115 	stw	r2,4(r3)
 100577c:	18800215 	stw	r2,8(r3)
 1005780:	18000515 	stw	zero,20(r3)
 1005784:	18000415 	stw	zero,16(r3)
 1005788:	10418f00 	call	10418f0 <_Unwind_SjLj_Unregister>
 100578c:	dfc01717 	ldw	ra,92(sp)
 1005790:	df001617 	ldw	fp,88(sp)
 1005794:	ddc01517 	ldw	r23,84(sp)
 1005798:	dec01804 	addi	sp,sp,96
 100579c:	f800283a 	ret
 10057a0:	d8800217 	ldw	r2,8(sp)
 10057a4:	d9000117 	ldw	r4,4(sp)
 10057a8:	d8c00317 	ldw	r3,12(sp)
 10057ac:	d8801415 	stw	r2,80(sp)
 10057b0:	00800044 	movi	r2,1
 10057b4:	20800c26 	beq	r4,r2,10057e8 <_ZN9__gnu_cxx13stdio_filebufIcSt11char_traitsIcEEC2EP7__sFILESt13_Ios_Openmodem+0x178>
 10057b8:	00800084 	movi	r2,2
 10057bc:	20801026 	beq	r4,r2,1005800 <_ZN9__gnu_cxx13stdio_filebufIcSt11char_traitsIcEEC2EP7__sFILESt13_Ios_Openmodem+0x190>
 10057c0:	d8c00d17 	ldw	r3,52(sp)
 10057c4:	008041b4 	movhi	r2,262
 10057c8:	10a40d04 	addi	r2,r2,-28620
 10057cc:	18800015 	stw	r2,0(r3)
 10057d0:	19000704 	addi	r4,r3,28
 10057d4:	10033ac0 	call	10033ac <_ZNSt6localeD1Ev>
 10057d8:	00bfffc4 	movi	r2,-1
 10057dc:	d9001417 	ldw	r4,80(sp)
 10057e0:	d8800115 	stw	r2,4(sp)
 10057e4:	1041bac0 	call	1041bac <_Unwind_SjLj_Resume>
 10057e8:	00bfffc4 	movi	r2,-1
 10057ec:	18bffb1e 	bne	r3,r2,10057dc <_ZN9__gnu_cxx13stdio_filebufIcSt11char_traitsIcEEC2EP7__sFILESt13_Ios_Openmodem+0x16c>
 10057f0:	d9001417 	ldw	r4,80(sp)
 10057f4:	00bfffc4 	movi	r2,-1
 10057f8:	d8800115 	stw	r2,4(sp)
 10057fc:	10365f40 	call	10365f4 <__cxa_call_unexpected>
 1005800:	d8800f17 	ldw	r2,60(sp)
 1005804:	d8800d15 	stw	r2,52(sp)
 1005808:	d8c00d17 	ldw	r3,52(sp)
 100580c:	008041b4 	movhi	r2,262
 1005810:	10a71804 	addi	r2,r2,-25504
 1005814:	1809883a 	mov	r4,r3
 1005818:	18800015 	stw	r2,0(r3)
 100581c:	103c8500 	call	103c850 <_ZNSt13basic_filebufIcSt11char_traitsIcEE5closeEv>
 1005820:	00c00044 	movi	r3,1
 1005824:	d8c00115 	stw	r3,4(sp)
 1005828:	d8801417 	ldw	r2,80(sp)
 100582c:	d8c00d17 	ldw	r3,52(sp)
 1005830:	d8800e15 	stw	r2,56(sp)
 1005834:	19000904 	addi	r4,r3,36
 1005838:	1034d800 	call	1034d80 <_ZNSt12__basic_fileIcED1Ev>
 100583c:	d8c00d17 	ldw	r3,52(sp)
 1005840:	008041b4 	movhi	r2,262
 1005844:	10a40d04 	addi	r2,r2,-28620
 1005848:	18800015 	stw	r2,0(r3)
 100584c:	19000704 	addi	r4,r3,28
 1005850:	10033ac0 	call	10033ac <_ZNSt6localeD1Ev>
 1005854:	d9000e17 	ldw	r4,56(sp)
 1005858:	00bfffc4 	movi	r2,-1
 100585c:	d8800115 	stw	r2,4(sp)
 1005860:	1041bac0 	call	1041bac <_Unwind_SjLj_Resume>

01005864 <_ZN9__gnu_cxx13stdio_filebufIcSt11char_traitsIcEEC1EiSt13_Ios_Openmodem>:
 1005864:	deffe804 	addi	sp,sp,-96
 1005868:	008040f4 	movhi	r2,259
 100586c:	1099dd04 	addi	r2,r2,26484
 1005870:	00c04174 	movhi	r3,261
 1005874:	18dc7b04 	addi	r3,r3,29164
 1005878:	d8800615 	stw	r2,24(sp)
 100587c:	d9000f15 	stw	r4,60(sp)
 1005880:	00804034 	movhi	r2,256
 1005884:	10966504 	addi	r2,r2,22932
 1005888:	d809883a 	mov	r4,sp
 100588c:	d8c00715 	stw	r3,28(sp)
 1005890:	d9401015 	stw	r5,64(sp)
 1005894:	d9801115 	stw	r6,68(sp)
 1005898:	dfc01715 	stw	ra,92(sp)
 100589c:	d8800915 	stw	r2,36(sp)
 10058a0:	d9c01215 	stw	r7,72(sp)
 10058a4:	df001615 	stw	fp,88(sp)
 10058a8:	ddc01515 	stw	r23,84(sp)
 10058ac:	dec00815 	stw	sp,32(sp)
 10058b0:	dec00a15 	stw	sp,40(sp)
 10058b4:	10418e00 	call	10418e0 <_Unwind_SjLj_Register>
 10058b8:	d9000f17 	ldw	r4,60(sp)
 10058bc:	00bfffc4 	movi	r2,-1
 10058c0:	d8800115 	stw	r2,4(sp)
 10058c4:	103bb800 	call	103bb80 <_ZNSt13basic_filebufIcSt11char_traitsIcEEC2Ev>
 10058c8:	d8c00f17 	ldw	r3,60(sp)
 10058cc:	008041b4 	movhi	r2,262
 10058d0:	10a11f04 	addi	r2,r2,-31620
 10058d4:	d9401017 	ldw	r5,64(sp)
 10058d8:	18800015 	stw	r2,0(r3)
 10058dc:	18c00904 	addi	r3,r3,36
 10058e0:	008000c4 	movi	r2,3
 10058e4:	d8800115 	stw	r2,4(sp)
 10058e8:	d8c01315 	stw	r3,76(sp)
 10058ec:	1809883a 	mov	r4,r3
 10058f0:	d9801117 	ldw	r6,68(sp)
 10058f4:	10350700 	call	1035070 <_ZNSt12__basic_fileIcE8sys_openEiSt13_Ios_Openmode>
 10058f8:	00800084 	movi	r2,2
 10058fc:	d8800115 	stw	r2,4(sp)
 1005900:	d9001317 	ldw	r4,76(sp)
 1005904:	1034bbc0 	call	1034bbc <_ZNKSt12__basic_fileIcE7is_openEv>
 1005908:	10803fcc 	andi	r2,r2,255
 100590c:	1000071e 	bne	r2,zero,100592c <_ZN9__gnu_cxx13stdio_filebufIcSt11char_traitsIcEEC1EiSt13_Ios_Openmodem+0xc8>
 1005910:	d809883a 	mov	r4,sp
 1005914:	10418f00 	call	10418f0 <_Unwind_SjLj_Unregister>
 1005918:	dfc01717 	ldw	ra,92(sp)
 100591c:	df001617 	ldw	fp,88(sp)
 1005920:	ddc01517 	ldw	r23,84(sp)
 1005924:	dec01804 	addi	sp,sp,96
 1005928:	f800283a 	ret
 100592c:	d8800f17 	ldw	r2,60(sp)
 1005930:	d8c01117 	ldw	r3,68(sp)
 1005934:	d9000f17 	ldw	r4,60(sp)
 1005938:	10c00b15 	stw	r3,44(r2)
 100593c:	d8c01217 	ldw	r3,72(sp)
 1005940:	10c01315 	stw	r3,76(r2)
 1005944:	008000c4 	movi	r2,3
 1005948:	d8800115 	stw	r2,4(sp)
 100594c:	103b2f80 	call	103b2f8 <_ZNSt13basic_filebufIcSt11char_traitsIcEE27_M_allocate_internal_bufferEv>
 1005950:	d8c00f17 	ldw	r3,60(sp)
 1005954:	d809883a 	mov	r4,sp
 1005958:	18801217 	ldw	r2,72(r3)
 100595c:	18000615 	stw	zero,24(r3)
 1005960:	18001445 	stb	zero,81(r3)
 1005964:	18800315 	stw	r2,12(r3)
 1005968:	18001485 	stb	zero,82(r3)
 100596c:	18800115 	stw	r2,4(r3)
 1005970:	18800215 	stw	r2,8(r3)
 1005974:	18000515 	stw	zero,20(r3)
 1005978:	18000415 	stw	zero,16(r3)
 100597c:	10418f00 	call	10418f0 <_Unwind_SjLj_Unregister>
 1005980:	dfc01717 	ldw	ra,92(sp)
 1005984:	df001617 	ldw	fp,88(sp)
 1005988:	ddc01517 	ldw	r23,84(sp)
 100598c:	dec01804 	addi	sp,sp,96
 1005990:	f800283a 	ret
 1005994:	d8800217 	ldw	r2,8(sp)
 1005998:	d9000117 	ldw	r4,4(sp)
 100599c:	d8c00317 	ldw	r3,12(sp)
 10059a0:	d8801415 	stw	r2,80(sp)
 10059a4:	00800044 	movi	r2,1
 10059a8:	20800c26 	beq	r4,r2,10059dc <_ZN9__gnu_cxx13stdio_filebufIcSt11char_traitsIcEEC1EiSt13_Ios_Openmodem+0x178>
 10059ac:	00800084 	movi	r2,2
 10059b0:	20801026 	beq	r4,r2,10059f4 <_ZN9__gnu_cxx13stdio_filebufIcSt11char_traitsIcEEC1EiSt13_Ios_Openmodem+0x190>
 10059b4:	d8c00d17 	ldw	r3,52(sp)
 10059b8:	008041b4 	movhi	r2,262
 10059bc:	10a40d04 	addi	r2,r2,-28620
 10059c0:	18800015 	stw	r2,0(r3)
 10059c4:	19000704 	addi	r4,r3,28
 10059c8:	10033ac0 	call	10033ac <_ZNSt6localeD1Ev>
 10059cc:	00bfffc4 	movi	r2,-1
 10059d0:	d9001417 	ldw	r4,80(sp)
 10059d4:	d8800115 	stw	r2,4(sp)
 10059d8:	1041bac0 	call	1041bac <_Unwind_SjLj_Resume>
 10059dc:	00bfffc4 	movi	r2,-1
 10059e0:	18bffb1e 	bne	r3,r2,10059d0 <_ZN9__gnu_cxx13stdio_filebufIcSt11char_traitsIcEEC1EiSt13_Ios_Openmodem+0x16c>
 10059e4:	d9001417 	ldw	r4,80(sp)
 10059e8:	00bfffc4 	movi	r2,-1
 10059ec:	d8800115 	stw	r2,4(sp)
 10059f0:	10365f40 	call	10365f4 <__cxa_call_unexpected>
 10059f4:	d8800f17 	ldw	r2,60(sp)
 10059f8:	d8800d15 	stw	r2,52(sp)
 10059fc:	d8c00d17 	ldw	r3,52(sp)
 1005a00:	008041b4 	movhi	r2,262
 1005a04:	10a71804 	addi	r2,r2,-25504
 1005a08:	1809883a 	mov	r4,r3
 1005a0c:	18800015 	stw	r2,0(r3)
 1005a10:	103c8500 	call	103c850 <_ZNSt13basic_filebufIcSt11char_traitsIcEE5closeEv>
 1005a14:	00c00044 	movi	r3,1
 1005a18:	d8c00115 	stw	r3,4(sp)
 1005a1c:	d8801417 	ldw	r2,80(sp)
 1005a20:	d8c00d17 	ldw	r3,52(sp)
 1005a24:	d8800e15 	stw	r2,56(sp)
 1005a28:	19000904 	addi	r4,r3,36
 1005a2c:	1034d800 	call	1034d80 <_ZNSt12__basic_fileIcED1Ev>
 1005a30:	d8c00d17 	ldw	r3,52(sp)
 1005a34:	008041b4 	movhi	r2,262
 1005a38:	10a40d04 	addi	r2,r2,-28620
 1005a3c:	18800015 	stw	r2,0(r3)
 1005a40:	19000704 	addi	r4,r3,28
 1005a44:	10033ac0 	call	10033ac <_ZNSt6localeD1Ev>
 1005a48:	d9000e17 	ldw	r4,56(sp)
 1005a4c:	00bfffc4 	movi	r2,-1
 1005a50:	d8800115 	stw	r2,4(sp)
 1005a54:	1041bac0 	call	1041bac <_Unwind_SjLj_Resume>

01005a58 <_ZN9__gnu_cxx13stdio_filebufIcSt11char_traitsIcEED0Ev>:
 1005a58:	deffed04 	addi	sp,sp,-76
 1005a5c:	008040f4 	movhi	r2,259
 1005a60:	1099dd04 	addi	r2,r2,26484
 1005a64:	00c04174 	movhi	r3,261
 1005a68:	18dc7f44 	addi	r3,r3,29181
 1005a6c:	d8800615 	stw	r2,24(sp)
 1005a70:	d9000e15 	stw	r4,56(sp)
 1005a74:	00804034 	movhi	r2,256
 1005a78:	1096c304 	addi	r2,r2,23308
 1005a7c:	d809883a 	mov	r4,sp
 1005a80:	dfc01215 	stw	ra,72(sp)
 1005a84:	d8c00715 	stw	r3,28(sp)
 1005a88:	d8800915 	stw	r2,36(sp)
 1005a8c:	df001115 	stw	fp,68(sp)
 1005a90:	ddc01015 	stw	r23,64(sp)
 1005a94:	dec00815 	stw	sp,32(sp)
 1005a98:	dec00a15 	stw	sp,40(sp)
 1005a9c:	10418e00 	call	10418e0 <_Unwind_SjLj_Register>
 1005aa0:	d8c00e17 	ldw	r3,56(sp)
 1005aa4:	008041b4 	movhi	r2,262
 1005aa8:	10a71804 	addi	r2,r2,-25504
 1005aac:	1809883a 	mov	r4,r3
 1005ab0:	18800015 	stw	r2,0(r3)
 1005ab4:	103c8500 	call	103c850 <_ZNSt13basic_filebufIcSt11char_traitsIcEE5closeEv>
 1005ab8:	d8800e17 	ldw	r2,56(sp)
 1005abc:	00c00044 	movi	r3,1
 1005ac0:	d8c00115 	stw	r3,4(sp)
 1005ac4:	d8800d15 	stw	r2,52(sp)
 1005ac8:	11000904 	addi	r4,r2,36
 1005acc:	1034d800 	call	1034d80 <_ZNSt12__basic_fileIcED1Ev>
 1005ad0:	d8c00d17 	ldw	r3,52(sp)
 1005ad4:	008041b4 	movhi	r2,262
 1005ad8:	10a40d04 	addi	r2,r2,-28620
 1005adc:	19000704 	addi	r4,r3,28
 1005ae0:	18800015 	stw	r2,0(r3)
 1005ae4:	10033ac0 	call	10033ac <_ZNSt6localeD1Ev>
 1005ae8:	d9000e17 	ldw	r4,56(sp)
 1005aec:	10360000 	call	1036000 <_ZdlPv>
 1005af0:	d809883a 	mov	r4,sp
 1005af4:	10418f00 	call	10418f0 <_Unwind_SjLj_Unregister>
 1005af8:	dfc01217 	ldw	ra,72(sp)
 1005afc:	df001117 	ldw	fp,68(sp)
 1005b00:	ddc01017 	ldw	r23,64(sp)
 1005b04:	dec01304 	addi	sp,sp,76
 1005b08:	f800283a 	ret
 1005b0c:	d8c00217 	ldw	r3,8(sp)
 1005b10:	008041b4 	movhi	r2,262
 1005b14:	10a40d04 	addi	r2,r2,-28620
 1005b18:	d8c00f15 	stw	r3,60(sp)
 1005b1c:	d8c00d17 	ldw	r3,52(sp)
 1005b20:	18800015 	stw	r2,0(r3)
 1005b24:	19000704 	addi	r4,r3,28
 1005b28:	10033ac0 	call	10033ac <_ZNSt6localeD1Ev>
 1005b2c:	d9000f17 	ldw	r4,60(sp)
 1005b30:	00bfffc4 	movi	r2,-1
 1005b34:	d8800115 	stw	r2,4(sp)
 1005b38:	1041bac0 	call	1041bac <_Unwind_SjLj_Resume>

01005b3c <_ZN9__gnu_cxx13stdio_filebufIcSt11char_traitsIcEED1Ev>:
 1005b3c:	deffed04 	addi	sp,sp,-76
 1005b40:	008040f4 	movhi	r2,259
 1005b44:	1099dd04 	addi	r2,r2,26484
 1005b48:	00c04174 	movhi	r3,261
 1005b4c:	18dc80c4 	addi	r3,r3,29187
 1005b50:	d8800615 	stw	r2,24(sp)
 1005b54:	d9000e15 	stw	r4,56(sp)
 1005b58:	00804034 	movhi	r2,256
 1005b5c:	1096fa04 	addi	r2,r2,23528
 1005b60:	d809883a 	mov	r4,sp
 1005b64:	dfc01215 	stw	ra,72(sp)
 1005b68:	d8c00715 	stw	r3,28(sp)
 1005b6c:	d8800915 	stw	r2,36(sp)
 1005b70:	df001115 	stw	fp,68(sp)
 1005b74:	ddc01015 	stw	r23,64(sp)
 1005b78:	dec00815 	stw	sp,32(sp)
 1005b7c:	dec00a15 	stw	sp,40(sp)
 1005b80:	10418e00 	call	10418e0 <_Unwind_SjLj_Register>
 1005b84:	d8c00e17 	ldw	r3,56(sp)
 1005b88:	008041b4 	movhi	r2,262
 1005b8c:	10a71804 	addi	r2,r2,-25504
 1005b90:	1809883a 	mov	r4,r3
 1005b94:	18800015 	stw	r2,0(r3)
 1005b98:	d8c00d15 	stw	r3,52(sp)
 1005b9c:	103c8500 	call	103c850 <_ZNSt13basic_filebufIcSt11char_traitsIcEE5closeEv>
 1005ba0:	d8800d17 	ldw	r2,52(sp)
 1005ba4:	00c00044 	movi	r3,1
 1005ba8:	d8c00115 	stw	r3,4(sp)
 1005bac:	11000904 	addi	r4,r2,36
 1005bb0:	1034d800 	call	1034d80 <_ZNSt12__basic_fileIcED1Ev>
 1005bb4:	d8c00d17 	ldw	r3,52(sp)
 1005bb8:	008041b4 	movhi	r2,262
 1005bbc:	10a40d04 	addi	r2,r2,-28620
 1005bc0:	19000704 	addi	r4,r3,28
 1005bc4:	18800015 	stw	r2,0(r3)
 1005bc8:	10033ac0 	call	10033ac <_ZNSt6localeD1Ev>
 1005bcc:	d809883a 	mov	r4,sp
 1005bd0:	10418f00 	call	10418f0 <_Unwind_SjLj_Unregister>
 1005bd4:	dfc01217 	ldw	ra,72(sp)
 1005bd8:	df001117 	ldw	fp,68(sp)
 1005bdc:	ddc01017 	ldw	r23,64(sp)
 1005be0:	dec01304 	addi	sp,sp,76
 1005be4:	f800283a 	ret
 1005be8:	d8c00217 	ldw	r3,8(sp)
 1005bec:	008041b4 	movhi	r2,262
 1005bf0:	10a40d04 	addi	r2,r2,-28620
 1005bf4:	d8c00f15 	stw	r3,60(sp)
 1005bf8:	d8c00d17 	ldw	r3,52(sp)
 1005bfc:	18800015 	stw	r2,0(r3)
 1005c00:	19000704 	addi	r4,r3,28
 1005c04:	10033ac0 	call	10033ac <_ZNSt6localeD1Ev>
 1005c08:	d9000f17 	ldw	r4,60(sp)
 1005c0c:	00bfffc4 	movi	r2,-1
 1005c10:	d8800115 	stw	r2,4(sp)
 1005c14:	1041bac0 	call	1041bac <_Unwind_SjLj_Resume>

01005c18 <_ZN9__gnu_cxx13stdio_filebufIcSt11char_traitsIcEED2Ev>:
 1005c18:	deffed04 	addi	sp,sp,-76
 1005c1c:	008040f4 	movhi	r2,259
 1005c20:	1099dd04 	addi	r2,r2,26484
 1005c24:	00c04174 	movhi	r3,261
 1005c28:	18dc8244 	addi	r3,r3,29193
 1005c2c:	d8800615 	stw	r2,24(sp)
 1005c30:	d9000e15 	stw	r4,56(sp)
 1005c34:	00804034 	movhi	r2,256
 1005c38:	10973104 	addi	r2,r2,23748
 1005c3c:	d809883a 	mov	r4,sp
 1005c40:	dfc01215 	stw	ra,72(sp)
 1005c44:	d8c00715 	stw	r3,28(sp)
 1005c48:	d8800915 	stw	r2,36(sp)
 1005c4c:	df001115 	stw	fp,68(sp)
 1005c50:	ddc01015 	stw	r23,64(sp)
 1005c54:	dec00815 	stw	sp,32(sp)
 1005c58:	dec00a15 	stw	sp,40(sp)
 1005c5c:	10418e00 	call	10418e0 <_Unwind_SjLj_Register>
 1005c60:	d8c00e17 	ldw	r3,56(sp)
 1005c64:	008041b4 	movhi	r2,262
 1005c68:	10a71804 	addi	r2,r2,-25504
 1005c6c:	1809883a 	mov	r4,r3
 1005c70:	18800015 	stw	r2,0(r3)
 1005c74:	d8c00d15 	stw	r3,52(sp)
 1005c78:	103c8500 	call	103c850 <_ZNSt13basic_filebufIcSt11char_traitsIcEE5closeEv>
 1005c7c:	d8800d17 	ldw	r2,52(sp)
 1005c80:	00c00044 	movi	r3,1
 1005c84:	d8c00115 	stw	r3,4(sp)
 1005c88:	11000904 	addi	r4,r2,36
 1005c8c:	1034d800 	call	1034d80 <_ZNSt12__basic_fileIcED1Ev>
 1005c90:	d8c00d17 	ldw	r3,52(sp)
 1005c94:	008041b4 	movhi	r2,262
 1005c98:	10a40d04 	addi	r2,r2,-28620
 1005c9c:	19000704 	addi	r4,r3,28
 1005ca0:	18800015 	stw	r2,0(r3)
 1005ca4:	10033ac0 	call	10033ac <_ZNSt6localeD1Ev>
 1005ca8:	d809883a 	mov	r4,sp
 1005cac:	10418f00 	call	10418f0 <_Unwind_SjLj_Unregister>
 1005cb0:	dfc01217 	ldw	ra,72(sp)
 1005cb4:	df001117 	ldw	fp,68(sp)
 1005cb8:	ddc01017 	ldw	r23,64(sp)
 1005cbc:	dec01304 	addi	sp,sp,76
 1005cc0:	f800283a 	ret
 1005cc4:	d8c00217 	ldw	r3,8(sp)
 1005cc8:	008041b4 	movhi	r2,262
 1005ccc:	10a40d04 	addi	r2,r2,-28620
 1005cd0:	d8c00f15 	stw	r3,60(sp)
 1005cd4:	d8c00d17 	ldw	r3,52(sp)
 1005cd8:	18800015 	stw	r2,0(r3)
 1005cdc:	19000704 	addi	r4,r3,28
 1005ce0:	10033ac0 	call	10033ac <_ZNSt6localeD1Ev>
 1005ce4:	d9000f17 	ldw	r4,60(sp)
 1005ce8:	00bfffc4 	movi	r2,-1
 1005cec:	d8800115 	stw	r2,4(sp)
 1005cf0:	1041bac0 	call	1041bac <_Unwind_SjLj_Resume>

01005cf4 <_ZNKSt9basic_iosIcSt11char_traitsIcEE7rdstateEv>:
 1005cf4:	20800517 	ldw	r2,20(r4)
 1005cf8:	f800283a 	ret

01005cfc <_ZNKSt9basic_iosIcSt11char_traitsIcEE4failEv>:
 1005cfc:	20800517 	ldw	r2,20(r4)
 1005d00:	1080014c 	andi	r2,r2,5
 1005d04:	1004c03a 	cmpne	r2,r2,zero
 1005d08:	f800283a 	ret

01005d0c <_ZNKSt9basic_iosIcSt11char_traitsIcEE10exceptionsEv>:
 1005d0c:	20800417 	ldw	r2,16(r4)
 1005d10:	f800283a 	ret

01005d14 <_ZNKSt9basic_iosIcSt11char_traitsIcEE3tieEv>:
 1005d14:	20801c17 	ldw	r2,112(r4)
 1005d18:	f800283a 	ret

01005d1c <_ZNSt9basic_iosIcSt11char_traitsIcEE3tieEPSo>:
 1005d1c:	20801c17 	ldw	r2,112(r4)
 1005d20:	21401c15 	stw	r5,112(r4)
 1005d24:	f800283a 	ret

01005d28 <_ZNKSt9basic_iosIcSt11char_traitsIcEE5rdbufEv>:
 1005d28:	20801e17 	ldw	r2,120(r4)
 1005d2c:	f800283a 	ret

01005d30 <_ZNSt9basic_iosIcSt11char_traitsIcEE15_M_cache_localeERKSt6locale>:
 1005d30:	defffd04 	addi	sp,sp,-12
 1005d34:	dc400115 	stw	r17,4(sp)
 1005d38:	2023883a 	mov	r17,r4
 1005d3c:	2809883a 	mov	r4,r5
 1005d40:	dc000015 	stw	r16,0(sp)
 1005d44:	dfc00215 	stw	ra,8(sp)
 1005d48:	2821883a 	mov	r16,r5
 1005d4c:	100ed1c0 	call	100ed1c <_ZSt9has_facetISt5ctypeIcEEbRKSt6locale>
 1005d50:	10803fcc 	andi	r2,r2,255
 1005d54:	8009883a 	mov	r4,r16
 1005d58:	10001526 	beq	r2,zero,1005db0 <_ZNSt9basic_iosIcSt11char_traitsIcEE15_M_cache_localeERKSt6locale+0x80>
 1005d5c:	10381100 	call	1038110 <_ZSt9use_facetISt5ctypeIcEERKT_RKSt6locale>
 1005d60:	88801f15 	stw	r2,124(r17)
 1005d64:	8009883a 	mov	r4,r16
 1005d68:	100e94c0 	call	100e94c <_ZSt9has_facetISt7num_putIcSt19ostreambuf_iteratorIcSt11char_traitsIcEEEEbRKSt6locale>
 1005d6c:	10803fcc 	andi	r2,r2,255
 1005d70:	8009883a 	mov	r4,r16
 1005d74:	10001226 	beq	r2,zero,1005dc0 <_ZNSt9basic_iosIcSt11char_traitsIcEE15_M_cache_localeERKSt6locale+0x90>
 1005d78:	100f1280 	call	100f128 <_ZSt9use_facetISt7num_putIcSt19ostreambuf_iteratorIcSt11char_traitsIcEEEERKT_RKSt6locale>
 1005d7c:	88802015 	stw	r2,128(r17)
 1005d80:	8009883a 	mov	r4,r16
 1005d84:	100e8580 	call	100e858 <_ZSt9has_facetISt7num_getIcSt19istreambuf_iteratorIcSt11char_traitsIcEEEEbRKSt6locale>
 1005d88:	10803fcc 	andi	r2,r2,255
 1005d8c:	10000a26 	beq	r2,zero,1005db8 <_ZNSt9basic_iosIcSt11char_traitsIcEE15_M_cache_localeERKSt6locale+0x88>
 1005d90:	8009883a 	mov	r4,r16
 1005d94:	100f0d00 	call	100f0d0 <_ZSt9use_facetISt7num_getIcSt19istreambuf_iteratorIcSt11char_traitsIcEEEERKT_RKSt6locale>
 1005d98:	88802115 	stw	r2,132(r17)
 1005d9c:	dfc00217 	ldw	ra,8(sp)
 1005da0:	dc400117 	ldw	r17,4(sp)
 1005da4:	dc000017 	ldw	r16,0(sp)
 1005da8:	dec00304 	addi	sp,sp,12
 1005dac:	f800283a 	ret
 1005db0:	88001f15 	stw	zero,124(r17)
 1005db4:	003feb06 	br	1005d64 <_ZNSt9basic_iosIcSt11char_traitsIcEE15_M_cache_localeERKSt6locale+0x34>
 1005db8:	88002115 	stw	zero,132(r17)
 1005dbc:	003ff706 	br	1005d9c <_ZNSt9basic_iosIcSt11char_traitsIcEE15_M_cache_localeERKSt6locale+0x6c>
 1005dc0:	88002015 	stw	zero,128(r17)
 1005dc4:	003fee06 	br	1005d80 <_ZNSt9basic_iosIcSt11char_traitsIcEE15_M_cache_localeERKSt6locale+0x50>

01005dc8 <_ZNSt9basic_iosIcSt11char_traitsIcEE4initEPSt15basic_streambufIcS1_E>:
 1005dc8:	defffd04 	addi	sp,sp,-12
 1005dcc:	dfc00215 	stw	ra,8(sp)
 1005dd0:	dc800115 	stw	r18,4(sp)
 1005dd4:	dc000015 	stw	r16,0(sp)
 1005dd8:	2825883a 	mov	r18,r5
 1005ddc:	2021883a 	mov	r16,r4
 1005de0:	103a5240 	call	103a524 <_ZNSt8ios_base7_M_initEv>
 1005de4:	81401b04 	addi	r5,r16,108
 1005de8:	8009883a 	mov	r4,r16
 1005dec:	1005d300 	call	1005d30 <_ZNSt9basic_iosIcSt11char_traitsIcEE15_M_cache_localeERKSt6locale>
 1005df0:	9005003a 	cmpeq	r2,r18,zero
 1005df4:	80800515 	stw	r2,20(r16)
 1005df8:	80001d05 	stb	zero,116(r16)
 1005dfc:	80001d45 	stb	zero,117(r16)
 1005e00:	80001c15 	stw	zero,112(r16)
 1005e04:	80000415 	stw	zero,16(r16)
 1005e08:	84801e15 	stw	r18,120(r16)
 1005e0c:	dfc00217 	ldw	ra,8(sp)
 1005e10:	dc800117 	ldw	r18,4(sp)
 1005e14:	dc000017 	ldw	r16,0(sp)
 1005e18:	dec00304 	addi	sp,sp,12
 1005e1c:	f800283a 	ret

01005e20 <_ZNSt9basic_iosIcSt11char_traitsIcEEC1Ev>:
 1005e20:	defffe04 	addi	sp,sp,-8
 1005e24:	dc000015 	stw	r16,0(sp)
 1005e28:	dfc00115 	stw	ra,4(sp)
 1005e2c:	2021883a 	mov	r16,r4
 1005e30:	1039c7c0 	call	1039c7c <_ZNSt8ios_baseC2Ev>
 1005e34:	008041b4 	movhi	r2,262
 1005e38:	10a14404 	addi	r2,r2,-31472
 1005e3c:	80800015 	stw	r2,0(r16)
 1005e40:	80002115 	stw	zero,132(r16)
 1005e44:	80001c15 	stw	zero,112(r16)
 1005e48:	80001d05 	stb	zero,116(r16)
 1005e4c:	80001d45 	stb	zero,117(r16)
 1005e50:	80001e15 	stw	zero,120(r16)
 1005e54:	80001f15 	stw	zero,124(r16)
 1005e58:	80002015 	stw	zero,128(r16)
 1005e5c:	dfc00117 	ldw	ra,4(sp)
 1005e60:	dc000017 	ldw	r16,0(sp)
 1005e64:	dec00204 	addi	sp,sp,8
 1005e68:	f800283a 	ret

01005e6c <_ZNSt9basic_iosIcSt11char_traitsIcEEC2Ev>:
 1005e6c:	defffe04 	addi	sp,sp,-8
 1005e70:	dc000015 	stw	r16,0(sp)
 1005e74:	dfc00115 	stw	ra,4(sp)
 1005e78:	2021883a 	mov	r16,r4
 1005e7c:	1039c7c0 	call	1039c7c <_ZNSt8ios_baseC2Ev>
 1005e80:	008041b4 	movhi	r2,262
 1005e84:	10a14404 	addi	r2,r2,-31472
 1005e88:	80800015 	stw	r2,0(r16)
 1005e8c:	80002115 	stw	zero,132(r16)
 1005e90:	80001c15 	stw	zero,112(r16)
 1005e94:	80001d05 	stb	zero,116(r16)
 1005e98:	80001d45 	stb	zero,117(r16)
 1005e9c:	80001e15 	stw	zero,120(r16)
 1005ea0:	80001f15 	stw	zero,124(r16)
 1005ea4:	80002015 	stw	zero,128(r16)
 1005ea8:	dfc00117 	ldw	ra,4(sp)
 1005eac:	dc000017 	ldw	r16,0(sp)
 1005eb0:	dec00204 	addi	sp,sp,8
 1005eb4:	f800283a 	ret

01005eb8 <_ZNKSt9basic_iosIcSt11char_traitsIcEE6narrowEcc>:
 1005eb8:	21001f17 	ldw	r4,124(r4)
 1005ebc:	defffd04 	addi	sp,sp,-12
 1005ec0:	dfc00215 	stw	ra,8(sp)
 1005ec4:	dc400115 	stw	r17,4(sp)
 1005ec8:	dc000015 	stw	r16,0(sp)
 1005ecc:	20001f26 	beq	r4,zero,1005f4c <_ZNKSt9basic_iosIcSt11char_traitsIcEE6narrowEcc+0x94>
 1005ed0:	28803fcc 	andi	r2,r5,255
 1005ed4:	1105883a 	add	r2,r2,r4
 1005ed8:	14404704 	addi	r17,r2,284
 1005edc:	88800047 	ldb	r2,1(r17)
 1005ee0:	10000526 	beq	r2,zero,1005ef8 <_ZNKSt9basic_iosIcSt11char_traitsIcEE6narrowEcc+0x40>
 1005ee4:	dfc00217 	ldw	ra,8(sp)
 1005ee8:	dc400117 	ldw	r17,4(sp)
 1005eec:	dc000017 	ldw	r16,0(sp)
 1005ef0:	dec00304 	addi	sp,sp,12
 1005ef4:	f800283a 	ret
 1005ef8:	20800017 	ldw	r2,0(r4)
 1005efc:	34003fcc 	andi	r16,r6,255
 1005f00:	8400201c 	xori	r16,r16,128
 1005f04:	10c00817 	ldw	r3,32(r2)
 1005f08:	29403fcc 	andi	r5,r5,255
 1005f0c:	843fe004 	addi	r16,r16,-128
 1005f10:	2940201c 	xori	r5,r5,128
 1005f14:	297fe004 	addi	r5,r5,-128
 1005f18:	800d883a 	mov	r6,r16
 1005f1c:	183ee83a 	callr	r3
 1005f20:	1007883a 	mov	r3,r2
 1005f24:	18803fcc 	andi	r2,r3,255
 1005f28:	1080201c 	xori	r2,r2,128
 1005f2c:	10bfe004 	addi	r2,r2,-128
 1005f30:	80bfec26 	beq	r16,r2,1005ee4 <_ZNKSt9basic_iosIcSt11char_traitsIcEE6narrowEcc+0x2c>
 1005f34:	88c00045 	stb	r3,1(r17)
 1005f38:	dfc00217 	ldw	ra,8(sp)
 1005f3c:	dc400117 	ldw	r17,4(sp)
 1005f40:	dc000017 	ldw	r16,0(sp)
 1005f44:	dec00304 	addi	sp,sp,12
 1005f48:	f800283a 	ret
 1005f4c:	10385c80 	call	10385c8 <_ZSt16__throw_bad_castv>

01005f50 <_ZNSt9basic_iosIcSt11char_traitsIcEED0Ev>:
 1005f50:	defffe04 	addi	sp,sp,-8
 1005f54:	008041b4 	movhi	r2,262
 1005f58:	10a14404 	addi	r2,r2,-31472
 1005f5c:	dc400015 	stw	r17,0(sp)
 1005f60:	20800015 	stw	r2,0(r4)
 1005f64:	2023883a 	mov	r17,r4
 1005f68:	dfc00115 	stw	ra,4(sp)
 1005f6c:	1039b9c0 	call	1039b9c <_ZNSt8ios_baseD2Ev>
 1005f70:	8809883a 	mov	r4,r17
 1005f74:	dfc00117 	ldw	ra,4(sp)
 1005f78:	dc400017 	ldw	r17,0(sp)
 1005f7c:	dec00204 	addi	sp,sp,8
 1005f80:	10360001 	jmpi	1036000 <_ZdlPv>

01005f84 <_ZNSt9basic_iosIcSt11char_traitsIcEED1Ev>:
 1005f84:	008041b4 	movhi	r2,262
 1005f88:	10a14404 	addi	r2,r2,-31472
 1005f8c:	20800015 	stw	r2,0(r4)
 1005f90:	1039b9c1 	jmpi	1039b9c <_ZNSt8ios_baseD2Ev>

01005f94 <_ZNSt9basic_iosIcSt11char_traitsIcEED2Ev>:
 1005f94:	008041b4 	movhi	r2,262
 1005f98:	10a14404 	addi	r2,r2,-31472
 1005f9c:	20800015 	stw	r2,0(r4)
 1005fa0:	1039b9c1 	jmpi	1039b9c <_ZNSt8ios_baseD2Ev>

01005fa4 <_ZNSt9basic_iosIcSt11char_traitsIcEEC1EPSt15basic_streambufIcS1_E>:
 1005fa4:	deffed04 	addi	sp,sp,-76
 1005fa8:	008040f4 	movhi	r2,259
 1005fac:	1099dd04 	addi	r2,r2,26484
 1005fb0:	00c04174 	movhi	r3,261
 1005fb4:	18dc8404 	addi	r3,r3,29200
 1005fb8:	d8800615 	stw	r2,24(sp)
 1005fbc:	d9000d15 	stw	r4,52(sp)
 1005fc0:	00804034 	movhi	r2,256
 1005fc4:	10981704 	addi	r2,r2,24668
 1005fc8:	d809883a 	mov	r4,sp
 1005fcc:	d8c00715 	stw	r3,28(sp)
 1005fd0:	d9400e15 	stw	r5,56(sp)
 1005fd4:	dfc01215 	stw	ra,72(sp)
 1005fd8:	d8800915 	stw	r2,36(sp)
 1005fdc:	df001115 	stw	fp,68(sp)
 1005fe0:	ddc01015 	stw	r23,64(sp)
 1005fe4:	dec00815 	stw	sp,32(sp)
 1005fe8:	dec00a15 	stw	sp,40(sp)
 1005fec:	10418e00 	call	10418e0 <_Unwind_SjLj_Register>
 1005ff0:	d9000d17 	ldw	r4,52(sp)
 1005ff4:	00bfffc4 	movi	r2,-1
 1005ff8:	d8800115 	stw	r2,4(sp)
 1005ffc:	1039c7c0 	call	1039c7c <_ZNSt8ios_baseC2Ev>
 1006000:	d8c00d17 	ldw	r3,52(sp)
 1006004:	008041b4 	movhi	r2,262
 1006008:	10a14404 	addi	r2,r2,-31472
 100600c:	18001d05 	stb	zero,116(r3)
 1006010:	18800015 	stw	r2,0(r3)
 1006014:	18001c15 	stw	zero,112(r3)
 1006018:	18001d45 	stb	zero,117(r3)
 100601c:	18001e15 	stw	zero,120(r3)
 1006020:	18001f15 	stw	zero,124(r3)
 1006024:	18002015 	stw	zero,128(r3)
 1006028:	18002115 	stw	zero,132(r3)
 100602c:	00800044 	movi	r2,1
 1006030:	d8800115 	stw	r2,4(sp)
 1006034:	d9400e17 	ldw	r5,56(sp)
 1006038:	d9000d17 	ldw	r4,52(sp)
 100603c:	1005dc80 	call	1005dc8 <_ZNSt9basic_iosIcSt11char_traitsIcEE4initEPSt15basic_streambufIcS1_E>
 1006040:	d809883a 	mov	r4,sp
 1006044:	10418f00 	call	10418f0 <_Unwind_SjLj_Unregister>
 1006048:	dfc01217 	ldw	ra,72(sp)
 100604c:	df001117 	ldw	fp,68(sp)
 1006050:	ddc01017 	ldw	r23,64(sp)
 1006054:	dec01304 	addi	sp,sp,76
 1006058:	f800283a 	ret
 100605c:	d8800217 	ldw	r2,8(sp)
 1006060:	d9000d17 	ldw	r4,52(sp)
 1006064:	d8000115 	stw	zero,4(sp)
 1006068:	d8800f15 	stw	r2,60(sp)
 100606c:	1039b9c0 	call	1039b9c <_ZNSt8ios_baseD2Ev>
 1006070:	d9000f17 	ldw	r4,60(sp)
 1006074:	00bfffc4 	movi	r2,-1
 1006078:	d8800115 	stw	r2,4(sp)
 100607c:	1041bac0 	call	1041bac <_Unwind_SjLj_Resume>

01006080 <_ZNSt9basic_iosIcSt11char_traitsIcEEC2EPSt15basic_streambufIcS1_E>:
 1006080:	deffed04 	addi	sp,sp,-76
 1006084:	008040f4 	movhi	r2,259
 1006088:	1099dd04 	addi	r2,r2,26484
 100608c:	00c04174 	movhi	r3,261
 1006090:	18dc8584 	addi	r3,r3,29206
 1006094:	d8800615 	stw	r2,24(sp)
 1006098:	d9000d15 	stw	r4,52(sp)
 100609c:	00804034 	movhi	r2,256
 10060a0:	10984e04 	addi	r2,r2,24888
 10060a4:	d809883a 	mov	r4,sp
 10060a8:	d8c00715 	stw	r3,28(sp)
 10060ac:	d9400e15 	stw	r5,56(sp)
 10060b0:	dfc01215 	stw	ra,72(sp)
 10060b4:	d8800915 	stw	r2,36(sp)
 10060b8:	df001115 	stw	fp,68(sp)
 10060bc:	ddc01015 	stw	r23,64(sp)
 10060c0:	dec00815 	stw	sp,32(sp)
 10060c4:	dec00a15 	stw	sp,40(sp)
 10060c8:	10418e00 	call	10418e0 <_Unwind_SjLj_Register>
 10060cc:	d9000d17 	ldw	r4,52(sp)
 10060d0:	00bfffc4 	movi	r2,-1
 10060d4:	d8800115 	stw	r2,4(sp)
 10060d8:	1039c7c0 	call	1039c7c <_ZNSt8ios_baseC2Ev>
 10060dc:	d8c00d17 	ldw	r3,52(sp)
 10060e0:	008041b4 	movhi	r2,262
 10060e4:	10a14404 	addi	r2,r2,-31472
 10060e8:	18001d05 	stb	zero,116(r3)
 10060ec:	18800015 	stw	r2,0(r3)
 10060f0:	18001c15 	stw	zero,112(r3)
 10060f4:	18001d45 	stb	zero,117(r3)
 10060f8:	18001e15 	stw	zero,120(r3)
 10060fc:	18001f15 	stw	zero,124(r3)
 1006100:	18002015 	stw	zero,128(r3)
 1006104:	18002115 	stw	zero,132(r3)
 1006108:	00800044 	movi	r2,1
 100610c:	d8800115 	stw	r2,4(sp)
 1006110:	d9400e17 	ldw	r5,56(sp)
 1006114:	d9000d17 	ldw	r4,52(sp)
 1006118:	1005dc80 	call	1005dc8 <_ZNSt9basic_iosIcSt11char_traitsIcEE4initEPSt15basic_streambufIcS1_E>
 100611c:	d809883a 	mov	r4,sp
 1006120:	10418f00 	call	10418f0 <_Unwind_SjLj_Unregister>
 1006124:	dfc01217 	ldw	ra,72(sp)
 1006128:	df001117 	ldw	fp,68(sp)
 100612c:	ddc01017 	ldw	r23,64(sp)
 1006130:	dec01304 	addi	sp,sp,76
 1006134:	f800283a 	ret
 1006138:	d8800217 	ldw	r2,8(sp)
 100613c:	d9000d17 	ldw	r4,52(sp)
 1006140:	d8000115 	stw	zero,4(sp)
 1006144:	d8800f15 	stw	r2,60(sp)
 1006148:	1039b9c0 	call	1039b9c <_ZNSt8ios_baseD2Ev>
 100614c:	d9000f17 	ldw	r4,60(sp)
 1006150:	00bfffc4 	movi	r2,-1
 1006154:	d8800115 	stw	r2,4(sp)
 1006158:	1041bac0 	call	1041bac <_Unwind_SjLj_Resume>

0100615c <_ZNKSt9basic_iosIcSt11char_traitsIcEE4goodEv>:
 100615c:	20800517 	ldw	r2,20(r4)
 1006160:	1005003a 	cmpeq	r2,r2,zero
 1006164:	f800283a 	ret

01006168 <_ZNKSt9basic_iosIcSt11char_traitsIcEE3badEv>:
 1006168:	20800517 	ldw	r2,20(r4)
 100616c:	1080004c 	andi	r2,r2,1
 1006170:	f800283a 	ret

01006174 <_ZNKSt9basic_iosIcSt11char_traitsIcEE3eofEv>:
 1006174:	20800517 	ldw	r2,20(r4)
 1006178:	1004d07a 	srli	r2,r2,1
 100617c:	1080004c 	andi	r2,r2,1
 1006180:	f800283a 	ret

01006184 <_ZNSt9basic_iosIcSt11char_traitsIcEE11_M_setstateESt12_Ios_Iostate>:
 1006184:	20800517 	ldw	r2,20(r4)
 1006188:	20c00417 	ldw	r3,16(r4)
 100618c:	deffff04 	addi	sp,sp,-4
 1006190:	1144b03a 	or	r2,r2,r5
 1006194:	28c6703a 	and	r3,r5,r3
 1006198:	dfc00015 	stw	ra,0(sp)
 100619c:	20800515 	stw	r2,20(r4)
 10061a0:	1800031e 	bne	r3,zero,10061b0 <_ZNSt9basic_iosIcSt11char_traitsIcEE11_M_setstateESt12_Ios_Iostate+0x2c>
 10061a4:	dfc00017 	ldw	ra,0(sp)
 10061a8:	dec00104 	addi	sp,sp,4
 10061ac:	f800283a 	ret
 10061b0:	10353e40 	call	10353e4 <__cxa_rethrow>

010061b4 <_ZNSt9basic_iosIcSt11char_traitsIcEE5clearESt12_Ios_Iostate>:
 10061b4:	20801e17 	ldw	r2,120(r4)
 10061b8:	deffff04 	addi	sp,sp,-4
 10061bc:	dfc00015 	stw	ra,0(sp)
 10061c0:	10000826 	beq	r2,zero,10061e4 <_ZNSt9basic_iosIcSt11char_traitsIcEE5clearESt12_Ios_Iostate+0x30>
 10061c4:	21400515 	stw	r5,20(r4)
 10061c8:	20c00517 	ldw	r3,20(r4)
 10061cc:	20800417 	ldw	r2,16(r4)
 10061d0:	10c4703a 	and	r2,r2,r3
 10061d4:	1000061e 	bne	r2,zero,10061f0 <_ZNSt9basic_iosIcSt11char_traitsIcEE5clearESt12_Ios_Iostate+0x3c>
 10061d8:	dfc00017 	ldw	ra,0(sp)
 10061dc:	dec00104 	addi	sp,sp,4
 10061e0:	f800283a 	ret
 10061e4:	28800054 	ori	r2,r5,1
 10061e8:	20800515 	stw	r2,20(r4)
 10061ec:	003ff606 	br	10061c8 <_ZNSt9basic_iosIcSt11char_traitsIcEE5clearESt12_Ios_Iostate+0x14>
 10061f0:	010041b4 	movhi	r4,262
 10061f4:	21213d04 	addi	r4,r4,-31500
 10061f8:	10386640 	call	1038664 <_ZSt19__throw_ios_failurePKc>

010061fc <_ZNSt9basic_iosIcSt11char_traitsIcEE5rdbufEPSt15basic_streambufIcS1_E>:
 10061fc:	defffe04 	addi	sp,sp,-8
 1006200:	dc400015 	stw	r17,0(sp)
 1006204:	24401e17 	ldw	r17,120(r4)
 1006208:	21401e15 	stw	r5,120(r4)
 100620c:	000b883a 	mov	r5,zero
 1006210:	dfc00115 	stw	ra,4(sp)
 1006214:	10061b40 	call	10061b4 <_ZNSt9basic_iosIcSt11char_traitsIcEE5clearESt12_Ios_Iostate>
 1006218:	8805883a 	mov	r2,r17
 100621c:	dfc00117 	ldw	ra,4(sp)
 1006220:	dc400017 	ldw	r17,0(sp)
 1006224:	dec00204 	addi	sp,sp,8
 1006228:	f800283a 	ret

0100622c <_ZNSt9basic_iosIcSt11char_traitsIcEE10exceptionsESt12_Ios_Iostate>:
 100622c:	21400415 	stw	r5,16(r4)
 1006230:	21400517 	ldw	r5,20(r4)
 1006234:	10061b41 	jmpi	10061b4 <_ZNSt9basic_iosIcSt11char_traitsIcEE5clearESt12_Ios_Iostate>

01006238 <_ZNSt9basic_iosIcSt11char_traitsIcEE8setstateESt12_Ios_Iostate>:
 1006238:	20800517 	ldw	r2,20(r4)
 100623c:	288ab03a 	or	r5,r5,r2
 1006240:	10061b41 	jmpi	10061b4 <_ZNSt9basic_iosIcSt11char_traitsIcEE5clearESt12_Ios_Iostate>

01006244 <_ZNKSt9basic_iosIcSt11char_traitsIcEEntEv>:
 1006244:	20800517 	ldw	r2,20(r4)
 1006248:	1080014c 	andi	r2,r2,5
 100624c:	1004c03a 	cmpne	r2,r2,zero
 1006250:	f800283a 	ret

01006254 <_ZNKSt9basic_iosIcSt11char_traitsIcEEcvPvEv>:
 1006254:	20800517 	ldw	r2,20(r4)
 1006258:	0007883a 	mov	r3,zero
 100625c:	1080014c 	andi	r2,r2,5
 1006260:	1000011e 	bne	r2,zero,1006268 <_ZNKSt9basic_iosIcSt11char_traitsIcEEcvPvEv+0x14>
 1006264:	2007883a 	mov	r3,r4
 1006268:	1805883a 	mov	r2,r3
 100626c:	f800283a 	ret

01006270 <_ZNSt9basic_iosIcSt11char_traitsIcEE5imbueERKSt6locale>:
 1006270:	deffe704 	addi	sp,sp,-100
 1006274:	008040f4 	movhi	r2,259
 1006278:	1099dd04 	addi	r2,r2,26484
 100627c:	00c04174 	movhi	r3,261
 1006280:	18dc8704 	addi	r3,r3,29212
 1006284:	d8800815 	stw	r2,32(sp)
 1006288:	d9001115 	stw	r4,68(sp)
 100628c:	00804034 	movhi	r2,256
 1006290:	1098df04 	addi	r2,r2,25468
 1006294:	d9000204 	addi	r4,sp,8
 1006298:	d8c00915 	stw	r3,36(sp)
 100629c:	d9801315 	stw	r6,76(sp)
 10062a0:	dfc01815 	stw	ra,96(sp)
 10062a4:	d8800b15 	stw	r2,44(sp)
 10062a8:	d9401215 	stw	r5,72(sp)
 10062ac:	df001715 	stw	fp,92(sp)
 10062b0:	ddc01615 	stw	r23,88(sp)
 10062b4:	dec00a15 	stw	sp,40(sp)
 10062b8:	dec00c15 	stw	sp,48(sp)
 10062bc:	10418e00 	call	10418e0 <_Unwind_SjLj_Register>
 10062c0:	d8801217 	ldw	r2,72(sp)
 10062c4:	d9001117 	ldw	r4,68(sp)
 10062c8:	11401b04 	addi	r5,r2,108
 10062cc:	10021b80 	call	10021b8 <_ZNSt6localeC1ERKS_>
 10062d0:	d8c01117 	ldw	r3,68(sp)
 10062d4:	00800084 	movi	r2,2
 10062d8:	d8800315 	stw	r2,12(sp)
 10062dc:	d8c00f15 	stw	r3,60(sp)
 10062e0:	d9000104 	addi	r4,sp,4
 10062e4:	d9401217 	ldw	r5,72(sp)
 10062e8:	d9801317 	ldw	r6,76(sp)
 10062ec:	103a4bc0 	call	103a4bc <_ZNSt8ios_base5imbueERKSt6locale>
 10062f0:	d9000104 	addi	r4,sp,4
 10062f4:	10033ac0 	call	10033ac <_ZNSt6localeD1Ev>
 10062f8:	d9001217 	ldw	r4,72(sp)
 10062fc:	d9401317 	ldw	r5,76(sp)
 1006300:	1005d300 	call	1005d30 <_ZNSt9basic_iosIcSt11char_traitsIcEE15_M_cache_localeERKSt6locale>
 1006304:	d8801217 	ldw	r2,72(sp)
 1006308:	10801e17 	ldw	r2,120(r2)
 100630c:	d8801015 	stw	r2,64(sp)
 1006310:	10001226 	beq	r2,zero,100635c <_ZNSt9basic_iosIcSt11char_traitsIcEE5imbueERKSt6locale+0xec>
 1006314:	10c00704 	addi	r3,r2,28
 1006318:	180b883a 	mov	r5,r3
 100631c:	d809883a 	mov	r4,sp
 1006320:	d8c01415 	stw	r3,80(sp)
 1006324:	10021b80 	call	10021b8 <_ZNSt6localeC1ERKS_>
 1006328:	d8c01017 	ldw	r3,64(sp)
 100632c:	d9401317 	ldw	r5,76(sp)
 1006330:	18800017 	ldw	r2,0(r3)
 1006334:	1809883a 	mov	r4,r3
 1006338:	00c00044 	movi	r3,1
 100633c:	11800217 	ldw	r6,8(r2)
 1006340:	d8c00315 	stw	r3,12(sp)
 1006344:	303ee83a 	callr	r6
 1006348:	d9001417 	ldw	r4,80(sp)
 100634c:	d9401317 	ldw	r5,76(sp)
 1006350:	10035740 	call	1003574 <_ZNSt6localeaSERKS_>
 1006354:	d809883a 	mov	r4,sp
 1006358:	10033ac0 	call	10033ac <_ZNSt6localeD1Ev>
 100635c:	d9000204 	addi	r4,sp,8
 1006360:	10418f00 	call	10418f0 <_Unwind_SjLj_Unregister>
 1006364:	d8801117 	ldw	r2,68(sp)
 1006368:	dfc01817 	ldw	ra,96(sp)
 100636c:	df001717 	ldw	fp,92(sp)
 1006370:	ddc01617 	ldw	r23,88(sp)
 1006374:	dec01904 	addi	sp,sp,100
 1006378:	f800283a 	ret
 100637c:	d8800417 	ldw	r2,16(sp)
 1006380:	d8c00317 	ldw	r3,12(sp)
 1006384:	d8801515 	stw	r2,84(sp)
 1006388:	00800044 	movi	r2,1
 100638c:	18800226 	beq	r3,r2,1006398 <_ZNSt9basic_iosIcSt11char_traitsIcEE5imbueERKSt6locale+0x128>
 1006390:	d809883a 	mov	r4,sp
 1006394:	10033ac0 	call	10033ac <_ZNSt6localeD1Ev>
 1006398:	d9000f17 	ldw	r4,60(sp)
 100639c:	10033ac0 	call	10033ac <_ZNSt6localeD1Ev>
 10063a0:	d9001517 	ldw	r4,84(sp)
 10063a4:	00bfffc4 	movi	r2,-1
 10063a8:	d8800315 	stw	r2,12(sp)
 10063ac:	1041bac0 	call	1041bac <_Unwind_SjLj_Resume>

010063b0 <_ZNKSt9basic_iosIcSt11char_traitsIcEE5widenEc>:
 10063b0:	deffbc04 	addi	sp,sp,-272
 10063b4:	dc004015 	stw	r16,256(sp)
 10063b8:	24001f17 	ldw	r16,124(r4)
 10063bc:	dfc04315 	stw	ra,268(sp)
 10063c0:	dc804215 	stw	r18,264(sp)
 10063c4:	dc404115 	stw	r17,260(sp)
 10063c8:	80003326 	beq	r16,zero,1006498 <_ZNKSt9basic_iosIcSt11char_traitsIcEE5widenEc+0xe8>
 10063cc:	80800707 	ldb	r2,28(r16)
 10063d0:	2825883a 	mov	r18,r5
 10063d4:	1000271e 	bne	r2,zero,1006474 <_ZNKSt9basic_iosIcSt11char_traitsIcEE5widenEc+0xc4>
 10063d8:	0007883a 	mov	r3,zero
 10063dc:	01004004 	movi	r4,256
 10063e0:	d8c5883a 	add	r2,sp,r3
 10063e4:	10c00005 	stb	r3,0(r2)
 10063e8:	18c00044 	addi	r3,r3,1
 10063ec:	193ffc1e 	bne	r3,r4,10063e0 <_ZNKSt9basic_iosIcSt11char_traitsIcEE5widenEc+0x30>
 10063f0:	80800017 	ldw	r2,0(r16)
 10063f4:	84400744 	addi	r17,r16,29
 10063f8:	8009883a 	mov	r4,r16
 10063fc:	12000717 	ldw	r8,28(r2)
 1006400:	d80b883a 	mov	r5,sp
 1006404:	d9804004 	addi	r6,sp,256
 1006408:	880f883a 	mov	r7,r17
 100640c:	403ee83a 	callr	r8
 1006410:	00c00044 	movi	r3,1
 1006414:	80c00705 	stb	r3,28(r16)
 1006418:	880b883a 	mov	r5,r17
 100641c:	d809883a 	mov	r4,sp
 1006420:	01804004 	movi	r6,256
 1006424:	10445dc0 	call	10445dc <memcmp>
 1006428:	10000226 	beq	r2,zero,1006434 <_ZNKSt9basic_iosIcSt11char_traitsIcEE5widenEc+0x84>
 100642c:	00800084 	movi	r2,2
 1006430:	80800705 	stb	r2,28(r16)
 1006434:	80800017 	ldw	r2,0(r16)
 1006438:	91403fcc 	andi	r5,r18,255
 100643c:	2940201c 	xori	r5,r5,128
 1006440:	10c00617 	ldw	r3,24(r2)
 1006444:	8009883a 	mov	r4,r16
 1006448:	297fe004 	addi	r5,r5,-128
 100644c:	183ee83a 	callr	r3
 1006450:	10803fcc 	andi	r2,r2,255
 1006454:	1080201c 	xori	r2,r2,128
 1006458:	10bfe004 	addi	r2,r2,-128
 100645c:	dfc04317 	ldw	ra,268(sp)
 1006460:	dc804217 	ldw	r18,264(sp)
 1006464:	dc404117 	ldw	r17,260(sp)
 1006468:	dc004017 	ldw	r16,256(sp)
 100646c:	dec04404 	addi	sp,sp,272
 1006470:	f800283a 	ret
 1006474:	28803fcc 	andi	r2,r5,255
 1006478:	1405883a 	add	r2,r2,r16
 100647c:	10800747 	ldb	r2,29(r2)
 1006480:	dfc04317 	ldw	ra,268(sp)
 1006484:	dc804217 	ldw	r18,264(sp)
 1006488:	dc404117 	ldw	r17,260(sp)
 100648c:	dc004017 	ldw	r16,256(sp)
 1006490:	dec04404 	addi	sp,sp,272
 1006494:	f800283a 	ret
 1006498:	10385c80 	call	10385c8 <_ZSt16__throw_bad_castv>

0100649c <_ZNKSt9basic_iosIcSt11char_traitsIcEE4fillEv>:
 100649c:	20801d43 	ldbu	r2,117(r4)
 10064a0:	defffe04 	addi	sp,sp,-8
 10064a4:	dc000015 	stw	r16,0(sp)
 10064a8:	dfc00115 	stw	ra,4(sp)
 10064ac:	2021883a 	mov	r16,r4
 10064b0:	01400804 	movi	r5,32
 10064b4:	1000041e 	bne	r2,zero,10064c8 <_ZNKSt9basic_iosIcSt11char_traitsIcEE4fillEv+0x2c>
 10064b8:	10063b00 	call	10063b0 <_ZNKSt9basic_iosIcSt11char_traitsIcEE5widenEc>
 10064bc:	00c00044 	movi	r3,1
 10064c0:	80c01d45 	stb	r3,117(r16)
 10064c4:	80801d05 	stb	r2,116(r16)
 10064c8:	80801d07 	ldb	r2,116(r16)
 10064cc:	dfc00117 	ldw	ra,4(sp)
 10064d0:	dc000017 	ldw	r16,0(sp)
 10064d4:	dec00204 	addi	sp,sp,8
 10064d8:	f800283a 	ret

010064dc <_ZNSt9basic_iosIcSt11char_traitsIcEE4fillEc>:
 10064dc:	20801d43 	ldbu	r2,117(r4)
 10064e0:	defffd04 	addi	sp,sp,-12
 10064e4:	dc400115 	stw	r17,4(sp)
 10064e8:	dc000015 	stw	r16,0(sp)
 10064ec:	2823883a 	mov	r17,r5
 10064f0:	dfc00215 	stw	ra,8(sp)
 10064f4:	2021883a 	mov	r16,r4
 10064f8:	01400804 	movi	r5,32
 10064fc:	1000041e 	bne	r2,zero,1006510 <_ZNSt9basic_iosIcSt11char_traitsIcEE4fillEc+0x34>
 1006500:	10063b00 	call	10063b0 <_ZNKSt9basic_iosIcSt11char_traitsIcEE5widenEc>
 1006504:	00c00044 	movi	r3,1
 1006508:	80c01d45 	stb	r3,117(r16)
 100650c:	80801d05 	stb	r2,116(r16)
 1006510:	80801d03 	ldbu	r2,116(r16)
 1006514:	84401d05 	stb	r17,116(r16)
 1006518:	10803fcc 	andi	r2,r2,255
 100651c:	1080201c 	xori	r2,r2,128
 1006520:	10bfe004 	addi	r2,r2,-128
 1006524:	dfc00217 	ldw	ra,8(sp)
 1006528:	dc400117 	ldw	r17,4(sp)
 100652c:	dc000017 	ldw	r16,0(sp)
 1006530:	dec00304 	addi	sp,sp,12
 1006534:	f800283a 	ret

01006538 <_ZNSt9basic_iosIcSt11char_traitsIcEE7copyfmtERKS2_>:
 1006538:	defff904 	addi	sp,sp,-28
 100653c:	dc800315 	stw	r18,12(sp)
 1006540:	dc000115 	stw	r16,4(sp)
 1006544:	dfc00615 	stw	ra,24(sp)
 1006548:	dd000515 	stw	r20,20(sp)
 100654c:	dcc00415 	stw	r19,16(sp)
 1006550:	dc400215 	stw	r17,8(sp)
 1006554:	2021883a 	mov	r16,r4
 1006558:	2825883a 	mov	r18,r5
 100655c:	21404826 	beq	r4,r5,1006680 <_ZNSt9basic_iosIcSt11char_traitsIcEE7copyfmtERKS2_+0x148>
 1006560:	29001917 	ldw	r4,100(r5)
 1006564:	00800204 	movi	r2,8
 1006568:	11004e16 	blt	r2,r4,10066a4 <_ZNSt9basic_iosIcSt11char_traitsIcEE7copyfmtERKS2_+0x16c>
 100656c:	85000904 	addi	r20,r16,36
 1006570:	a027883a 	mov	r19,r20
 1006574:	94400617 	ldw	r17,24(r18)
 1006578:	88000326 	beq	r17,zero,1006588 <_ZNSt9basic_iosIcSt11char_traitsIcEE7copyfmtERKS2_+0x50>
 100657c:	89000304 	addi	r4,r17,12
 1006580:	01400044 	movi	r5,1
 1006584:	1033ae80 	call	1033ae8 <_ZN9__gnu_cxx12__atomic_addEPVii>
 1006588:	8009883a 	mov	r4,r16
 100658c:	000b883a 	mov	r5,zero
 1006590:	10397bc0 	call	10397bc <_ZNSt8ios_base17_M_call_callbacksENS_5eventE>
 1006594:	81001a17 	ldw	r4,104(r16)
 1006598:	24c00326 	beq	r4,r19,10065a8 <_ZNSt9basic_iosIcSt11char_traitsIcEE7copyfmtERKS2_+0x70>
 100659c:	20000126 	beq	r4,zero,10065a4 <_ZNSt9basic_iosIcSt11char_traitsIcEE7copyfmtERKS2_+0x6c>
 10065a0:	103600c0 	call	103600c <_ZdaPv>
 10065a4:	80001a15 	stw	zero,104(r16)
 10065a8:	8009883a 	mov	r4,r16
 10065ac:	10397580 	call	1039758 <_ZNSt8ios_base20_M_dispose_callbacksEv>
 10065b0:	92001917 	ldw	r8,100(r18)
 10065b4:	84400615 	stw	r17,24(r16)
 10065b8:	02000d0e 	bge	zero,r8,10065f0 <_ZNSt9basic_iosIcSt11char_traitsIcEE7copyfmtERKS2_+0xb8>
 10065bc:	92401a17 	ldw	r9,104(r18)
 10065c0:	a00b883a 	mov	r5,r20
 10065c4:	000f883a 	mov	r7,zero
 10065c8:	000d883a 	mov	r6,zero
 10065cc:	3245883a 	add	r2,r6,r9
 10065d0:	10c00117 	ldw	r3,4(r2)
 10065d4:	11000017 	ldw	r4,0(r2)
 10065d8:	39c00044 	addi	r7,r7,1
 10065dc:	28c00115 	stw	r3,4(r5)
 10065e0:	29000015 	stw	r4,0(r5)
 10065e4:	31800204 	addi	r6,r6,8
 10065e8:	29400204 	addi	r5,r5,8
 10065ec:	3a3ff716 	blt	r7,r8,10065cc <_ZNSt9basic_iosIcSt11char_traitsIcEE7copyfmtERKS2_+0x94>
 10065f0:	90800317 	ldw	r2,12(r18)
 10065f4:	90c00217 	ldw	r3,8(r18)
 10065f8:	91000117 	ldw	r4,4(r18)
 10065fc:	91401c17 	ldw	r5,112(r18)
 1006600:	91801d43 	ldbu	r6,117(r18)
 1006604:	85001a15 	stw	r20,104(r16)
 1006608:	82001915 	stw	r8,100(r16)
 100660c:	80800315 	stw	r2,12(r16)
 1006610:	80c00215 	stw	r3,8(r16)
 1006614:	81000115 	stw	r4,4(r16)
 1006618:	81401c15 	stw	r5,112(r16)
 100661c:	30003626 	beq	r6,zero,10066f8 <_ZNSt9basic_iosIcSt11char_traitsIcEE7copyfmtERKS2_+0x1c0>
 1006620:	80801d43 	ldbu	r2,117(r16)
 1006624:	94401d03 	ldbu	r17,116(r18)
 1006628:	10002c26 	beq	r2,zero,10066dc <_ZNSt9basic_iosIcSt11char_traitsIcEE7copyfmtERKS2_+0x1a4>
 100662c:	84401d05 	stb	r17,116(r16)
 1006630:	d809883a 	mov	r4,sp
 1006634:	84401b04 	addi	r17,r16,108
 1006638:	91401b04 	addi	r5,r18,108
 100663c:	10021b80 	call	10021b8 <_ZNSt6localeC1ERKS_>
 1006640:	d80b883a 	mov	r5,sp
 1006644:	8809883a 	mov	r4,r17
 1006648:	10035740 	call	1003574 <_ZNSt6localeaSERKS_>
 100664c:	d809883a 	mov	r4,sp
 1006650:	10033ac0 	call	10033ac <_ZNSt6localeD1Ev>
 1006654:	880b883a 	mov	r5,r17
 1006658:	8009883a 	mov	r4,r16
 100665c:	1005d300 	call	1005d30 <_ZNSt9basic_iosIcSt11char_traitsIcEE15_M_cache_localeERKSt6locale>
 1006660:	8009883a 	mov	r4,r16
 1006664:	01400084 	movi	r5,2
 1006668:	10397bc0 	call	10397bc <_ZNSt8ios_base17_M_call_callbacksENS_5eventE>
 100666c:	90800417 	ldw	r2,16(r18)
 1006670:	81400517 	ldw	r5,20(r16)
 1006674:	8009883a 	mov	r4,r16
 1006678:	80800415 	stw	r2,16(r16)
 100667c:	10061b40 	call	10061b4 <_ZNSt9basic_iosIcSt11char_traitsIcEE5clearESt12_Ios_Iostate>
 1006680:	8005883a 	mov	r2,r16
 1006684:	dfc00617 	ldw	ra,24(sp)
 1006688:	dd000517 	ldw	r20,20(sp)
 100668c:	dcc00417 	ldw	r19,16(sp)
 1006690:	dc800317 	ldw	r18,12(sp)
 1006694:	dc400217 	ldw	r17,8(sp)
 1006698:	dc000117 	ldw	r16,4(sp)
 100669c:	dec00704 	addi	sp,sp,28
 10066a0:	f800283a 	ret
 10066a4:	200890fa 	slli	r4,r4,3
 10066a8:	1035d7c0 	call	1035d7c <_Znam>
 10066ac:	91001917 	ldw	r4,100(r18)
 10066b0:	1029883a 	mov	r20,r2
 10066b4:	20001726 	beq	r4,zero,1006714 <_ZNSt9basic_iosIcSt11char_traitsIcEE7copyfmtERKS2_+0x1dc>
 10066b8:	0007883a 	mov	r3,zero
 10066bc:	81400904 	addi	r5,r16,36
 10066c0:	18c00044 	addi	r3,r3,1
 10066c4:	10000015 	stw	zero,0(r2)
 10066c8:	10000115 	stw	zero,4(r2)
 10066cc:	10800204 	addi	r2,r2,8
 10066d0:	20fffb1e 	bne	r4,r3,10066c0 <_ZNSt9basic_iosIcSt11char_traitsIcEE7copyfmtERKS2_+0x188>
 10066d4:	2827883a 	mov	r19,r5
 10066d8:	003fa606 	br	1006574 <_ZNSt9basic_iosIcSt11char_traitsIcEE7copyfmtERKS2_+0x3c>
 10066dc:	8009883a 	mov	r4,r16
 10066e0:	01400804 	movi	r5,32
 10066e4:	10063b00 	call	10063b0 <_ZNKSt9basic_iosIcSt11char_traitsIcEE5widenEc>
 10066e8:	80801d05 	stb	r2,116(r16)
 10066ec:	00800044 	movi	r2,1
 10066f0:	80801d45 	stb	r2,117(r16)
 10066f4:	003fcd06 	br	100662c <_ZNSt9basic_iosIcSt11char_traitsIcEE7copyfmtERKS2_+0xf4>
 10066f8:	9009883a 	mov	r4,r18
 10066fc:	01400804 	movi	r5,32
 1006700:	10063b00 	call	10063b0 <_ZNKSt9basic_iosIcSt11char_traitsIcEE5widenEc>
 1006704:	90801d05 	stb	r2,116(r18)
 1006708:	00800044 	movi	r2,1
 100670c:	90801d45 	stb	r2,117(r18)
 1006710:	003fc306 	br	1006620 <_ZNSt9basic_iosIcSt11char_traitsIcEE7copyfmtERKS2_+0xe8>
 1006714:	84c00904 	addi	r19,r16,36
 1006718:	003f9606 	br	1006574 <_ZNSt9basic_iosIcSt11char_traitsIcEE7copyfmtERKS2_+0x3c>

0100671c <_ZNSirsEPFRSiS_E>:
 100671c:	2807883a 	mov	r3,r5
 1006720:	1800683a 	jmp	r3

01006724 <_ZNSirsEPFRSt9basic_iosIcSt11char_traitsIcEES3_E>:
 1006724:	20800017 	ldw	r2,0(r4)
 1006728:	defffe04 	addi	sp,sp,-8
 100672c:	dc400015 	stw	r17,0(sp)
 1006730:	2023883a 	mov	r17,r4
 1006734:	113ffd17 	ldw	r4,-12(r2)
 1006738:	dfc00115 	stw	ra,4(sp)
 100673c:	8909883a 	add	r4,r17,r4
 1006740:	283ee83a 	callr	r5
 1006744:	8805883a 	mov	r2,r17
 1006748:	dfc00117 	ldw	ra,4(sp)
 100674c:	dc400017 	ldw	r17,0(sp)
 1006750:	dec00204 	addi	sp,sp,8
 1006754:	f800283a 	ret

01006758 <_ZNSirsEPFRSt8ios_baseS0_E>:
 1006758:	20800017 	ldw	r2,0(r4)
 100675c:	defffe04 	addi	sp,sp,-8
 1006760:	dc400015 	stw	r17,0(sp)
 1006764:	2023883a 	mov	r17,r4
 1006768:	113ffd17 	ldw	r4,-12(r2)
 100676c:	dfc00115 	stw	ra,4(sp)
 1006770:	8909883a 	add	r4,r17,r4
 1006774:	283ee83a 	callr	r5
 1006778:	8805883a 	mov	r2,r17
 100677c:	dfc00117 	ldw	ra,4(sp)
 1006780:	dc400017 	ldw	r17,0(sp)
 1006784:	dec00204 	addi	sp,sp,8
 1006788:	f800283a 	ret

0100678c <_ZNKSi6gcountEv>:
 100678c:	20800117 	ldw	r2,4(r4)
 1006790:	f800283a 	ret

01006794 <_ZNSiC2Ev>:
 1006794:	28800017 	ldw	r2,0(r5)
 1006798:	29800117 	ldw	r6,4(r5)
 100679c:	10fffd17 	ldw	r3,-12(r2)
 10067a0:	20800015 	stw	r2,0(r4)
 10067a4:	20000115 	stw	zero,4(r4)
 10067a8:	20c9883a 	add	r4,r4,r3
 10067ac:	21800015 	stw	r6,0(r4)
 10067b0:	f800283a 	ret

010067b4 <_ZNKSi6sentrycvbEv>:
 10067b4:	20800003 	ldbu	r2,0(r4)
 10067b8:	f800283a 	ret

010067bc <_ZStrsIcSt11char_traitsIcEERSt13basic_istreamIT_T0_ES6_St12_Setiosflags>:
 10067bc:	21800017 	ldw	r6,0(r4)
 10067c0:	2005883a 	mov	r2,r4
 10067c4:	30fffd17 	ldw	r3,-12(r6)
 10067c8:	20c9883a 	add	r4,r4,r3
 10067cc:	21000304 	addi	r4,r4,12
 10067d0:	20c00017 	ldw	r3,0(r4)
 10067d4:	1946b03a 	or	r3,r3,r5
 10067d8:	20c00015 	stw	r3,0(r4)
 10067dc:	f800283a 	ret

010067e0 <_ZStrsIcSt11char_traitsIcEERSt13basic_istreamIT_T0_ES6_St14_Resetiosflags>:
 10067e0:	21800017 	ldw	r6,0(r4)
 10067e4:	2005883a 	mov	r2,r4
 10067e8:	014a303a 	nor	r5,zero,r5
 10067ec:	30fffd17 	ldw	r3,-12(r6)
 10067f0:	20c9883a 	add	r4,r4,r3
 10067f4:	21000304 	addi	r4,r4,12
 10067f8:	20c00017 	ldw	r3,0(r4)
 10067fc:	1946703a 	and	r3,r3,r5
 1006800:	20c00015 	stw	r3,0(r4)
 1006804:	f800283a 	ret

01006808 <_ZStrsIcSt11char_traitsIcEERSt13basic_istreamIT_T0_ES6_St13_Setprecision>:
 1006808:	21800017 	ldw	r6,0(r4)
 100680c:	2005883a 	mov	r2,r4
 1006810:	30fffd17 	ldw	r3,-12(r6)
 1006814:	20c9883a 	add	r4,r4,r3
 1006818:	21400115 	stw	r5,4(r4)
 100681c:	f800283a 	ret

01006820 <_ZStrsIcSt11char_traitsIcEERSt13basic_istreamIT_T0_ES6_St5_Setw>:
 1006820:	21800017 	ldw	r6,0(r4)
 1006824:	2005883a 	mov	r2,r4
 1006828:	30fffd17 	ldw	r3,-12(r6)
 100682c:	20c9883a 	add	r4,r4,r3
 1006830:	21400215 	stw	r5,8(r4)
 1006834:	f800283a 	ret

01006838 <_ZStrsIcSt11char_traitsIcEERSt13basic_istreamIT_T0_ES6_St8_SetfillIS3_E>:
 1006838:	20800017 	ldw	r2,0(r4)
 100683c:	defffc04 	addi	sp,sp,-16
 1006840:	dc000015 	stw	r16,0(sp)
 1006844:	10fffd17 	ldw	r3,-12(r2)
 1006848:	dc800215 	stw	r18,8(sp)
 100684c:	dc400115 	stw	r17,4(sp)
 1006850:	20e1883a 	add	r16,r4,r3
 1006854:	80801d43 	ldbu	r2,117(r16)
 1006858:	2023883a 	mov	r17,r4
 100685c:	2825883a 	mov	r18,r5
 1006860:	dfc00315 	stw	ra,12(sp)
 1006864:	01400804 	movi	r5,32
 1006868:	8009883a 	mov	r4,r16
 100686c:	1000041e 	bne	r2,zero,1006880 <_ZStrsIcSt11char_traitsIcEERSt13basic_istreamIT_T0_ES6_St8_SetfillIS3_E+0x48>
 1006870:	10063b00 	call	10063b0 <_ZNKSt9basic_iosIcSt11char_traitsIcEE5widenEc>
 1006874:	00c00044 	movi	r3,1
 1006878:	80c01d45 	stb	r3,117(r16)
 100687c:	80801d05 	stb	r2,116(r16)
 1006880:	8805883a 	mov	r2,r17
 1006884:	84801d05 	stb	r18,116(r16)
 1006888:	dfc00317 	ldw	ra,12(sp)
 100688c:	dc800217 	ldw	r18,8(sp)
 1006890:	dc400117 	ldw	r17,4(sp)
 1006894:	dc000017 	ldw	r16,0(sp)
 1006898:	dec00404 	addi	sp,sp,16
 100689c:	f800283a 	ret

010068a0 <_ZStrsISt11char_traitsIcEERSt13basic_istreamIcT_ES5_Pa>:
 10068a0:	100c0901 	jmpi	100c090 <_ZStrsIcSt11char_traitsIcEERSt13basic_istreamIT_T0_ES6_PS3_>

010068a4 <_ZStrsISt11char_traitsIcEERSt13basic_istreamIcT_ES5_Ph>:
 10068a4:	100c0901 	jmpi	100c090 <_ZStrsIcSt11char_traitsIcEERSt13basic_istreamIT_T0_ES6_PS3_>

010068a8 <_ZNSi7getlineEPcl>:
 10068a8:	20800017 	ldw	r2,0(r4)
 10068ac:	defffc04 	addi	sp,sp,-16
 10068b0:	dc400015 	stw	r17,0(sp)
 10068b4:	2023883a 	mov	r17,r4
 10068b8:	113ffd17 	ldw	r4,-12(r2)
 10068bc:	dcc00115 	stw	r19,4(sp)
 10068c0:	2827883a 	mov	r19,r5
 10068c4:	8909883a 	add	r4,r17,r4
 10068c8:	01400284 	movi	r5,10
 10068cc:	dd400215 	stw	r21,8(sp)
 10068d0:	dfc00315 	stw	ra,12(sp)
 10068d4:	302b883a 	mov	r21,r6
 10068d8:	10063b00 	call	10063b0 <_ZNKSt9basic_iosIcSt11char_traitsIcEE5widenEc>
 10068dc:	11c03fcc 	andi	r7,r2,255
 10068e0:	39c0201c 	xori	r7,r7,128
 10068e4:	8809883a 	mov	r4,r17
 10068e8:	980b883a 	mov	r5,r19
 10068ec:	a80d883a 	mov	r6,r21
 10068f0:	39ffe004 	addi	r7,r7,-128
 10068f4:	dfc00317 	ldw	ra,12(sp)
 10068f8:	dd400217 	ldw	r21,8(sp)
 10068fc:	dcc00117 	ldw	r19,4(sp)
 1006900:	dc400017 	ldw	r17,0(sp)
 1006904:	dec00404 	addi	sp,sp,16
 1006908:	100b1ac1 	jmpi	100b1ac <_ZNSi7getlineEPclc>

0100690c <_ZTv0_n12_NSiD1Ev>:
 100690c:	20800017 	ldw	r2,0(r4)
 1006910:	10fffd17 	ldw	r3,-12(r2)
 1006914:	20c9883a 	add	r4,r4,r3
 1006918:	100691c1 	jmpi	100691c <_ZNSiD1Ev>

0100691c <_ZNSiD1Ev>:
 100691c:	00c041b4 	movhi	r3,262
 1006920:	18e15504 	addi	r3,r3,-31404
 1006924:	18800504 	addi	r2,r3,20
 1006928:	21800204 	addi	r6,r4,8
 100692c:	20800215 	stw	r2,8(r4)
 1006930:	20c00015 	stw	r3,0(r4)
 1006934:	008041b4 	movhi	r2,262
 1006938:	10a14404 	addi	r2,r2,-31472
 100693c:	20000115 	stw	zero,4(r4)
 1006940:	3009883a 	mov	r4,r6
 1006944:	30800015 	stw	r2,0(r6)
 1006948:	1039b9c1 	jmpi	1039b9c <_ZNSt8ios_baseD2Ev>

0100694c <_ZNSiC2EPSt15basic_streambufIcSt11char_traitsIcEE>:
 100694c:	2a000017 	ldw	r8,0(r5)
 1006950:	2a400117 	ldw	r9,4(r5)
 1006954:	200f883a 	mov	r7,r4
 1006958:	40bffd17 	ldw	r2,-12(r8)
 100695c:	22000015 	stw	r8,0(r4)
 1006960:	20000115 	stw	zero,4(r4)
 1006964:	2085883a 	add	r2,r4,r2
 1006968:	12400015 	stw	r9,0(r2)
 100696c:	22000017 	ldw	r8,0(r4)
 1006970:	300b883a 	mov	r5,r6
 1006974:	413ffd17 	ldw	r4,-12(r8)
 1006978:	3909883a 	add	r4,r7,r4
 100697c:	1005dc81 	jmpi	1005dc8 <_ZNSt9basic_iosIcSt11char_traitsIcEE4initEPSt15basic_streambufIcS1_E>

01006980 <_ZStrsIcSt11char_traitsIcEERSt13basic_istreamIT_T0_ES6_St8_Setbase>:
 1006980:	20c00017 	ldw	r3,0(r4)
 1006984:	00800204 	movi	r2,8
 1006988:	01801004 	movi	r6,64
 100698c:	18fffd17 	ldw	r3,-12(r3)
 1006990:	28800426 	beq	r5,r2,10069a4 <_ZStrsIcSt11char_traitsIcEERSt13basic_istreamIT_T0_ES6_St8_Setbase+0x24>
 1006994:	00800284 	movi	r2,10
 1006998:	29800420 	cmpeqi	r6,r5,16
 100699c:	28800926 	beq	r5,r2,10069c4 <_ZStrsIcSt11char_traitsIcEERSt13basic_istreamIT_T0_ES6_St8_Setbase+0x44>
 10069a0:	300c90fa 	slli	r6,r6,3
 10069a4:	20c7883a 	add	r3,r4,r3
 10069a8:	2005883a 	mov	r2,r4
 10069ac:	19000317 	ldw	r4,12(r3)
 10069b0:	017fed44 	movi	r5,-75
 10069b4:	2148703a 	and	r4,r4,r5
 10069b8:	3108b03a 	or	r4,r6,r4
 10069bc:	19000315 	stw	r4,12(r3)
 10069c0:	f800283a 	ret
 10069c4:	20c7883a 	add	r3,r4,r3
 10069c8:	2005883a 	mov	r2,r4
 10069cc:	19000317 	ldw	r4,12(r3)
 10069d0:	017fed44 	movi	r5,-75
 10069d4:	01800084 	movi	r6,2
 10069d8:	2148703a 	and	r4,r4,r5
 10069dc:	3108b03a 	or	r4,r6,r4
 10069e0:	19000315 	stw	r4,12(r3)
 10069e4:	f800283a 	ret

010069e8 <_ZNSiC1Ev>:
 10069e8:	defffd04 	addi	sp,sp,-12
 10069ec:	dc000015 	stw	r16,0(sp)
 10069f0:	24000204 	addi	r16,r4,8
 10069f4:	dc800115 	stw	r18,4(sp)
 10069f8:	2025883a 	mov	r18,r4
 10069fc:	8009883a 	mov	r4,r16
 1006a00:	dfc00215 	stw	ra,8(sp)
 1006a04:	1039c7c0 	call	1039c7c <_ZNSt8ios_baseC2Ev>
 1006a08:	00c041b4 	movhi	r3,262
 1006a0c:	18e15504 	addi	r3,r3,-31404
 1006a10:	008041b4 	movhi	r2,262
 1006a14:	10a14404 	addi	r2,r2,-31472
 1006a18:	80800015 	stw	r2,0(r16)
 1006a1c:	80001d05 	stb	zero,116(r16)
 1006a20:	18800504 	addi	r2,r3,20
 1006a24:	80002115 	stw	zero,132(r16)
 1006a28:	90800215 	stw	r2,8(r18)
 1006a2c:	90000115 	stw	zero,4(r18)
 1006a30:	80001c15 	stw	zero,112(r16)
 1006a34:	80001d45 	stb	zero,117(r16)
 1006a38:	80001e15 	stw	zero,120(r16)
 1006a3c:	80001f15 	stw	zero,124(r16)
 1006a40:	80002015 	stw	zero,128(r16)
 1006a44:	90c00015 	stw	r3,0(r18)
 1006a48:	dfc00217 	ldw	ra,8(sp)
 1006a4c:	dc800117 	ldw	r18,4(sp)
 1006a50:	dc000017 	ldw	r16,0(sp)
 1006a54:	dec00304 	addi	sp,sp,12
 1006a58:	f800283a 	ret

01006a5c <_ZNSiD2Ev>:
 1006a5c:	28800017 	ldw	r2,0(r5)
 1006a60:	29800117 	ldw	r6,4(r5)
 1006a64:	10fffd17 	ldw	r3,-12(r2)
 1006a68:	20800015 	stw	r2,0(r4)
 1006a6c:	20000115 	stw	zero,4(r4)
 1006a70:	20c9883a 	add	r4,r4,r3
 1006a74:	21800015 	stw	r6,0(r4)
 1006a78:	f800283a 	ret

01006a7c <_ZNSiC1EPSt15basic_streambufIcSt11char_traitsIcEE>:
 1006a7c:	deffec04 	addi	sp,sp,-80
 1006a80:	008040f4 	movhi	r2,259
 1006a84:	1099dd04 	addi	r2,r2,26484
 1006a88:	00c04174 	movhi	r3,261
 1006a8c:	18dc8904 	addi	r3,r3,29220
 1006a90:	d8800615 	stw	r2,24(sp)
 1006a94:	d9000e15 	stw	r4,56(sp)
 1006a98:	00804034 	movhi	r2,256
 1006a9c:	109ad604 	addi	r2,r2,27480
 1006aa0:	d809883a 	mov	r4,sp
 1006aa4:	d8c00715 	stw	r3,28(sp)
 1006aa8:	d9400f15 	stw	r5,60(sp)
 1006aac:	dfc01315 	stw	ra,76(sp)
 1006ab0:	d8800915 	stw	r2,36(sp)
 1006ab4:	df001215 	stw	fp,72(sp)
 1006ab8:	ddc01115 	stw	r23,68(sp)
 1006abc:	dec00815 	stw	sp,32(sp)
 1006ac0:	dec00a15 	stw	sp,40(sp)
 1006ac4:	10418e00 	call	10418e0 <_Unwind_SjLj_Register>
 1006ac8:	d8800e17 	ldw	r2,56(sp)
 1006acc:	10800204 	addi	r2,r2,8
 1006ad0:	d8800d15 	stw	r2,52(sp)
 1006ad4:	d9000d17 	ldw	r4,52(sp)
 1006ad8:	00bfffc4 	movi	r2,-1
 1006adc:	d8800115 	stw	r2,4(sp)
 1006ae0:	1039c7c0 	call	1039c7c <_ZNSt8ios_baseC2Ev>
 1006ae4:	d8c00d17 	ldw	r3,52(sp)
 1006ae8:	008041b4 	movhi	r2,262
 1006aec:	10a15504 	addi	r2,r2,-31404
 1006af0:	18001d05 	stb	zero,116(r3)
 1006af4:	d8c00e17 	ldw	r3,56(sp)
 1006af8:	d9400f17 	ldw	r5,60(sp)
 1006afc:	18800015 	stw	r2,0(r3)
 1006b00:	d8c00d17 	ldw	r3,52(sp)
 1006b04:	10800504 	addi	r2,r2,20
 1006b08:	18800015 	stw	r2,0(r3)
 1006b0c:	d8800e17 	ldw	r2,56(sp)
 1006b10:	18001c15 	stw	zero,112(r3)
 1006b14:	18001d45 	stb	zero,117(r3)
 1006b18:	10000115 	stw	zero,4(r2)
 1006b1c:	18001e15 	stw	zero,120(r3)
 1006b20:	18001f15 	stw	zero,124(r3)
 1006b24:	18002015 	stw	zero,128(r3)
 1006b28:	18002115 	stw	zero,132(r3)
 1006b2c:	00800044 	movi	r2,1
 1006b30:	d8800115 	stw	r2,4(sp)
 1006b34:	1809883a 	mov	r4,r3
 1006b38:	1005dc80 	call	1005dc8 <_ZNSt9basic_iosIcSt11char_traitsIcEE4initEPSt15basic_streambufIcS1_E>
 1006b3c:	d809883a 	mov	r4,sp
 1006b40:	10418f00 	call	10418f0 <_Unwind_SjLj_Unregister>
 1006b44:	dfc01317 	ldw	ra,76(sp)
 1006b48:	df001217 	ldw	fp,72(sp)
 1006b4c:	ddc01117 	ldw	r23,68(sp)
 1006b50:	dec01404 	addi	sp,sp,80
 1006b54:	f800283a 	ret
 1006b58:	d8c00217 	ldw	r3,8(sp)
 1006b5c:	008041b4 	movhi	r2,262
 1006b60:	10a14404 	addi	r2,r2,-31472
 1006b64:	d8c01015 	stw	r3,64(sp)
 1006b68:	d8c00d17 	ldw	r3,52(sp)
 1006b6c:	18800015 	stw	r2,0(r3)
 1006b70:	1809883a 	mov	r4,r3
 1006b74:	d8000115 	stw	zero,4(sp)
 1006b78:	1039b9c0 	call	1039b9c <_ZNSt8ios_baseD2Ev>
 1006b7c:	d9001017 	ldw	r4,64(sp)
 1006b80:	00bfffc4 	movi	r2,-1
 1006b84:	d8800115 	stw	r2,4(sp)
 1006b88:	1041bac0 	call	1041bac <_Unwind_SjLj_Resume>

01006b8c <_ZTv0_n12_NSiD0Ev>:
 1006b8c:	20800017 	ldw	r2,0(r4)
 1006b90:	10fffd17 	ldw	r3,-12(r2)
 1006b94:	20c9883a 	add	r4,r4,r3
 1006b98:	1006b9c1 	jmpi	1006b9c <_ZNSiD0Ev>

01006b9c <_ZNSiD0Ev>:
 1006b9c:	00c041b4 	movhi	r3,262
 1006ba0:	18e15504 	addi	r3,r3,-31404
 1006ba4:	defffe04 	addi	sp,sp,-8
 1006ba8:	18800504 	addi	r2,r3,20
 1006bac:	20c00015 	stw	r3,0(r4)
 1006bb0:	dc400015 	stw	r17,0(sp)
 1006bb4:	20800215 	stw	r2,8(r4)
 1006bb8:	2023883a 	mov	r17,r4
 1006bbc:	008041b4 	movhi	r2,262
 1006bc0:	10a14404 	addi	r2,r2,-31472
 1006bc4:	21000204 	addi	r4,r4,8
 1006bc8:	20800015 	stw	r2,0(r4)
 1006bcc:	88000115 	stw	zero,4(r17)
 1006bd0:	dfc00115 	stw	ra,4(sp)
 1006bd4:	1039b9c0 	call	1039b9c <_ZNSt8ios_baseD2Ev>
 1006bd8:	8809883a 	mov	r4,r17
 1006bdc:	dfc00117 	ldw	ra,4(sp)
 1006be0:	dc400017 	ldw	r17,0(sp)
 1006be4:	dec00204 	addi	sp,sp,8
 1006be8:	10360001 	jmpi	1036000 <_ZdlPv>

01006bec <_ZNSi5seekgExSt12_Ios_Seekdir>:
 1006bec:	deffdc04 	addi	sp,sp,-144
 1006bf0:	008040f4 	movhi	r2,259
 1006bf4:	1099dd04 	addi	r2,r2,26484
 1006bf8:	d8800c15 	stw	r2,48(sp)
 1006bfc:	00804034 	movhi	r2,256
 1006c00:	109b4b04 	addi	r2,r2,27948
 1006c04:	00c04174 	movhi	r3,261
 1006c08:	18dc8b04 	addi	r3,r3,29228
 1006c0c:	d8800f15 	stw	r2,60(sp)
 1006c10:	d9001415 	stw	r4,80(sp)
 1006c14:	d8800204 	addi	r2,sp,8
 1006c18:	d9000604 	addi	r4,sp,24
 1006c1c:	d8c00d15 	stw	r3,52(sp)
 1006c20:	d8800e15 	stw	r2,56(sp)
 1006c24:	dfc02315 	stw	ra,140(sp)
 1006c28:	df002215 	stw	fp,136(sp)
 1006c2c:	ddc02115 	stw	r23,132(sp)
 1006c30:	dd802015 	stw	r22,128(sp)
 1006c34:	dd401f15 	stw	r21,124(sp)
 1006c38:	dd001e15 	stw	r20,120(sp)
 1006c3c:	dcc01d15 	stw	r19,116(sp)
 1006c40:	dc801c15 	stw	r18,112(sp)
 1006c44:	dc401b15 	stw	r17,108(sp)
 1006c48:	dc001a15 	stw	r16,104(sp)
 1006c4c:	dec01015 	stw	sp,64(sp)
 1006c50:	d9401515 	stw	r5,84(sp)
 1006c54:	d9801615 	stw	r6,88(sp)
 1006c58:	d9c01715 	stw	r7,92(sp)
 1006c5c:	10418e00 	call	10418e0 <_Unwind_SjLj_Register>
 1006c60:	d8c01417 	ldw	r3,80(sp)
 1006c64:	18800017 	ldw	r2,0(r3)
 1006c68:	d8c01315 	stw	r3,76(sp)
 1006c6c:	10fffd17 	ldw	r3,-12(r2)
 1006c70:	d8801417 	ldw	r2,80(sp)
 1006c74:	10c7883a 	add	r3,r2,r3
 1006c78:	18800517 	ldw	r2,20(r3)
 1006c7c:	1080014c 	andi	r2,r2,5
 1006c80:	10000f26 	beq	r2,zero,1006cc0 <_ZNSi5seekgExSt12_Ios_Seekdir+0xd4>
 1006c84:	d9000604 	addi	r4,sp,24
 1006c88:	10418f00 	call	10418f0 <_Unwind_SjLj_Unregister>
 1006c8c:	d8801417 	ldw	r2,80(sp)
 1006c90:	dfc02317 	ldw	ra,140(sp)
 1006c94:	df002217 	ldw	fp,136(sp)
 1006c98:	ddc02117 	ldw	r23,132(sp)
 1006c9c:	dd802017 	ldw	r22,128(sp)
 1006ca0:	dd401f17 	ldw	r21,124(sp)
 1006ca4:	dd001e17 	ldw	r20,120(sp)
 1006ca8:	dcc01d17 	ldw	r19,116(sp)
 1006cac:	dc801c17 	ldw	r18,112(sp)
 1006cb0:	dc401b17 	ldw	r17,108(sp)
 1006cb4:	dc001a17 	ldw	r16,104(sp)
 1006cb8:	dec02404 	addi	sp,sp,144
 1006cbc:	f800283a 	ret
 1006cc0:	19401e17 	ldw	r5,120(r3)
 1006cc4:	d8801717 	ldw	r2,92(sp)
 1006cc8:	d9c01617 	ldw	r7,88(sp)
 1006ccc:	28c00017 	ldw	r3,0(r5)
 1006cd0:	d8800015 	stw	r2,0(sp)
 1006cd4:	00800204 	movi	r2,8
 1006cd8:	d8800115 	stw	r2,4(sp)
 1006cdc:	00800084 	movi	r2,2
 1006ce0:	1a000417 	ldw	r8,16(r3)
 1006ce4:	d8800715 	stw	r2,28(sp)
 1006ce8:	d9000204 	addi	r4,sp,8
 1006cec:	d9801517 	ldw	r6,84(sp)
 1006cf0:	403ee83a 	callr	r8
 1006cf4:	d9800217 	ldw	r6,8(sp)
 1006cf8:	00bfffc4 	movi	r2,-1
 1006cfc:	d9c00317 	ldw	r7,12(sp)
 1006d00:	30bfe01e 	bne	r6,r2,1006c84 <_ZNSi5seekgExSt12_Ios_Seekdir+0x98>
 1006d04:	11ffdf1e 	bne	r2,r7,1006c84 <_ZNSi5seekgExSt12_Ios_Seekdir+0x98>
 1006d08:	d8c01417 	ldw	r3,80(sp)
 1006d0c:	18800017 	ldw	r2,0(r3)
 1006d10:	113ffd17 	ldw	r4,-12(r2)
 1006d14:	1909883a 	add	r4,r3,r4
 1006d18:	21400517 	ldw	r5,20(r4)
 1006d1c:	d9800715 	stw	r6,28(sp)
 1006d20:	29400114 	ori	r5,r5,4
 1006d24:	10061b40 	call	10061b4 <_ZNSt9basic_iosIcSt11char_traitsIcEE5clearESt12_Ios_Iostate>
 1006d28:	003fd606 	br	1006c84 <_ZNSi5seekgExSt12_Ios_Seekdir+0x98>
 1006d2c:	d8800817 	ldw	r2,32(sp)
 1006d30:	d8c00717 	ldw	r3,28(sp)
 1006d34:	d8801815 	stw	r2,96(sp)
 1006d38:	00800044 	movi	r2,1
 1006d3c:	d8c01915 	stw	r3,100(sp)
 1006d40:	18800626 	beq	r3,r2,1006d5c <_ZNSi5seekgExSt12_Ios_Seekdir+0x170>
 1006d44:	d8000715 	stw	zero,28(sp)
 1006d48:	1035e440 	call	1035e44 <__cxa_end_catch>
 1006d4c:	d9001817 	ldw	r4,96(sp)
 1006d50:	00bfffc4 	movi	r2,-1
 1006d54:	d8800715 	stw	r2,28(sp)
 1006d58:	1041bac0 	call	1041bac <_Unwind_SjLj_Resume>
 1006d5c:	d9001817 	ldw	r4,96(sp)
 1006d60:	1035ee80 	call	1035ee8 <__cxa_begin_catch>
 1006d64:	d8801417 	ldw	r2,80(sp)
 1006d68:	10c00017 	ldw	r3,0(r2)
 1006d6c:	193ffd17 	ldw	r4,-12(r3)
 1006d70:	d8c01317 	ldw	r3,76(sp)
 1006d74:	1909883a 	add	r4,r3,r4
 1006d78:	21400504 	addi	r5,r4,20
 1006d7c:	28800017 	ldw	r2,0(r5)
 1006d80:	d8c01917 	ldw	r3,100(sp)
 1006d84:	10c4b03a 	or	r2,r2,r3
 1006d88:	28800015 	stw	r2,0(r5)
 1006d8c:	20c00417 	ldw	r3,16(r4)
 1006d90:	d8801917 	ldw	r2,100(sp)
 1006d94:	1886703a 	and	r3,r3,r2
 1006d98:	1800031e 	bne	r3,zero,1006da8 <_ZNSi5seekgExSt12_Ios_Seekdir+0x1bc>
 1006d9c:	d8000715 	stw	zero,28(sp)
 1006da0:	1035e440 	call	1035e44 <__cxa_end_catch>
 1006da4:	003fb706 	br	1006c84 <_ZNSi5seekgExSt12_Ios_Seekdir+0x98>
 1006da8:	d8800715 	stw	r2,28(sp)
 1006dac:	10353e40 	call	10353e4 <__cxa_rethrow>

01006db0 <_ZNSi5seekgESt4fposI10_mbstate_tE>:
 1006db0:	deffd704 	addi	sp,sp,-164
 1006db4:	008040f4 	movhi	r2,259
 1006db8:	1099dd04 	addi	r2,r2,26484
 1006dbc:	d8801115 	stw	r2,68(sp)
 1006dc0:	00804034 	movhi	r2,256
 1006dc4:	109bc704 	addi	r2,r2,28444
 1006dc8:	00c04174 	movhi	r3,261
 1006dcc:	18dc8f04 	addi	r3,r3,29244
 1006dd0:	d8801415 	stw	r2,80(sp)
 1006dd4:	d9001915 	stw	r4,100(sp)
 1006dd8:	d8800304 	addi	r2,sp,12
 1006ddc:	d9000b04 	addi	r4,sp,44
 1006de0:	d8c01215 	stw	r3,72(sp)
 1006de4:	d8801315 	stw	r2,76(sp)
 1006de8:	dfc02515 	stw	ra,148(sp)
 1006dec:	df002415 	stw	fp,144(sp)
 1006df0:	ddc02315 	stw	r23,140(sp)
 1006df4:	dd802215 	stw	r22,136(sp)
 1006df8:	dd402115 	stw	r21,132(sp)
 1006dfc:	dd002015 	stw	r20,128(sp)
 1006e00:	dcc01f15 	stw	r19,124(sp)
 1006e04:	dc801e15 	stw	r18,120(sp)
 1006e08:	dc401d15 	stw	r17,116(sp)
 1006e0c:	dc001c15 	stw	r16,112(sp)
 1006e10:	d9402615 	stw	r5,152(sp)
 1006e14:	d9802715 	stw	r6,156(sp)
 1006e18:	d9c02815 	stw	r7,160(sp)
 1006e1c:	dec01515 	stw	sp,84(sp)
 1006e20:	10418e00 	call	10418e0 <_Unwind_SjLj_Register>
 1006e24:	d8c01917 	ldw	r3,100(sp)
 1006e28:	18800017 	ldw	r2,0(r3)
 1006e2c:	d8c01815 	stw	r3,96(sp)
 1006e30:	10fffd17 	ldw	r3,-12(r2)
 1006e34:	d8801917 	ldw	r2,100(sp)
 1006e38:	10c7883a 	add	r3,r2,r3
 1006e3c:	18800517 	ldw	r2,20(r3)
 1006e40:	1080014c 	andi	r2,r2,5
 1006e44:	10000f26 	beq	r2,zero,1006e84 <_ZNSi5seekgESt4fposI10_mbstate_tE+0xd4>
 1006e48:	d9000b04 	addi	r4,sp,44
 1006e4c:	10418f00 	call	10418f0 <_Unwind_SjLj_Unregister>
 1006e50:	d8801917 	ldw	r2,100(sp)
 1006e54:	dfc02517 	ldw	ra,148(sp)
 1006e58:	df002417 	ldw	fp,144(sp)
 1006e5c:	ddc02317 	ldw	r23,140(sp)
 1006e60:	dd802217 	ldw	r22,136(sp)
 1006e64:	dd402117 	ldw	r21,132(sp)
 1006e68:	dd002017 	ldw	r20,128(sp)
 1006e6c:	dcc01f17 	ldw	r19,124(sp)
 1006e70:	dc801e17 	ldw	r18,120(sp)
 1006e74:	dc401d17 	ldw	r17,116(sp)
 1006e78:	dc001c17 	ldw	r16,112(sp)
 1006e7c:	dec02904 	addi	sp,sp,164
 1006e80:	f800283a 	ret
 1006e84:	d8802617 	ldw	r2,152(sp)
 1006e88:	19c01e17 	ldw	r7,120(r3)
 1006e8c:	d8c02917 	ldw	r3,164(sp)
 1006e90:	d8800715 	stw	r2,28(sp)
 1006e94:	d8802717 	ldw	r2,156(sp)
 1006e98:	d8c00a15 	stw	r3,40(sp)
 1006e9c:	380b883a 	mov	r5,r7
 1006ea0:	d8800815 	stw	r2,32(sp)
 1006ea4:	d8802817 	ldw	r2,160(sp)
 1006ea8:	d9000304 	addi	r4,sp,12
 1006eac:	d8800915 	stw	r2,36(sp)
 1006eb0:	00800204 	movi	r2,8
 1006eb4:	39800017 	ldw	r6,0(r7)
 1006eb8:	d8c00917 	ldw	r3,36(sp)
 1006ebc:	d8800215 	stw	r2,8(sp)
 1006ec0:	d8800a17 	ldw	r2,40(sp)
 1006ec4:	d8c00015 	stw	r3,0(sp)
 1006ec8:	d9c00817 	ldw	r7,32(sp)
 1006ecc:	d8800115 	stw	r2,4(sp)
 1006ed0:	00800084 	movi	r2,2
 1006ed4:	30c00517 	ldw	r3,20(r6)
 1006ed8:	d8800c15 	stw	r2,48(sp)
 1006edc:	d9800717 	ldw	r6,28(sp)
 1006ee0:	183ee83a 	callr	r3
 1006ee4:	d9800317 	ldw	r6,12(sp)
 1006ee8:	00bfffc4 	movi	r2,-1
 1006eec:	d9c00417 	ldw	r7,16(sp)
 1006ef0:	30bfd51e 	bne	r6,r2,1006e48 <_ZNSi5seekgESt4fposI10_mbstate_tE+0x98>
 1006ef4:	11ffd41e 	bne	r2,r7,1006e48 <_ZNSi5seekgESt4fposI10_mbstate_tE+0x98>
 1006ef8:	d8c01917 	ldw	r3,100(sp)
 1006efc:	18800017 	ldw	r2,0(r3)
 1006f00:	113ffd17 	ldw	r4,-12(r2)
 1006f04:	1909883a 	add	r4,r3,r4
 1006f08:	21400517 	ldw	r5,20(r4)
 1006f0c:	d9800c15 	stw	r6,48(sp)
 1006f10:	29400114 	ori	r5,r5,4
 1006f14:	10061b40 	call	10061b4 <_ZNSt9basic_iosIcSt11char_traitsIcEE5clearESt12_Ios_Iostate>
 1006f18:	003fcb06 	br	1006e48 <_ZNSi5seekgESt4fposI10_mbstate_tE+0x98>
 1006f1c:	d8800d17 	ldw	r2,52(sp)
 1006f20:	d8c00c17 	ldw	r3,48(sp)
 1006f24:	d8801a15 	stw	r2,104(sp)
 1006f28:	00800044 	movi	r2,1
 1006f2c:	d8c01b15 	stw	r3,108(sp)
 1006f30:	18800626 	beq	r3,r2,1006f4c <_ZNSi5seekgESt4fposI10_mbstate_tE+0x19c>
 1006f34:	d8000c15 	stw	zero,48(sp)
 1006f38:	1035e440 	call	1035e44 <__cxa_end_catch>
 1006f3c:	d9001a17 	ldw	r4,104(sp)
 1006f40:	00bfffc4 	movi	r2,-1
 1006f44:	d8800c15 	stw	r2,48(sp)
 1006f48:	1041bac0 	call	1041bac <_Unwind_SjLj_Resume>
 1006f4c:	d9001a17 	ldw	r4,104(sp)
 1006f50:	1035ee80 	call	1035ee8 <__cxa_begin_catch>
 1006f54:	d8801917 	ldw	r2,100(sp)
 1006f58:	10c00017 	ldw	r3,0(r2)
 1006f5c:	193ffd17 	ldw	r4,-12(r3)
 1006f60:	d8c01817 	ldw	r3,96(sp)
 1006f64:	1909883a 	add	r4,r3,r4
 1006f68:	21400504 	addi	r5,r4,20
 1006f6c:	28800017 	ldw	r2,0(r5)
 1006f70:	d8c01b17 	ldw	r3,108(sp)
 1006f74:	10c4b03a 	or	r2,r2,r3
 1006f78:	28800015 	stw	r2,0(r5)
 1006f7c:	20c00417 	ldw	r3,16(r4)
 1006f80:	d8801b17 	ldw	r2,108(sp)
 1006f84:	1886703a 	and	r3,r3,r2
 1006f88:	1800031e 	bne	r3,zero,1006f98 <_ZNSi5seekgESt4fposI10_mbstate_tE+0x1e8>
 1006f8c:	d8000c15 	stw	zero,48(sp)
 1006f90:	1035e440 	call	1035e44 <__cxa_end_catch>
 1006f94:	003fac06 	br	1006e48 <_ZNSi5seekgESt4fposI10_mbstate_tE+0x98>
 1006f98:	d8800c15 	stw	r2,48(sp)
 1006f9c:	10353e40 	call	10353e4 <__cxa_rethrow>

01006fa0 <_ZNSi5tellgEv>:
 1006fa0:	deffe204 	addi	sp,sp,-120
 1006fa4:	008040f4 	movhi	r2,259
 1006fa8:	1099dd04 	addi	r2,r2,26484
 1006fac:	d8800815 	stw	r2,32(sp)
 1006fb0:	00804034 	movhi	r2,256
 1006fb4:	109c3004 	addi	r2,r2,28864
 1006fb8:	d8800b15 	stw	r2,44(sp)
 1006fbc:	d8800204 	addi	r2,sp,8
 1006fc0:	00c04174 	movhi	r3,261
 1006fc4:	18dc9304 	addi	r3,r3,29260
 1006fc8:	d9001015 	stw	r4,64(sp)
 1006fcc:	1009883a 	mov	r4,r2
 1006fd0:	d8c00915 	stw	r3,36(sp)
 1006fd4:	d8800a15 	stw	r2,40(sp)
 1006fd8:	d9401115 	stw	r5,68(sp)
 1006fdc:	dfc01d15 	stw	ra,116(sp)
 1006fe0:	df001c15 	stw	fp,112(sp)
 1006fe4:	ddc01b15 	stw	r23,108(sp)
 1006fe8:	dd801a15 	stw	r22,104(sp)
 1006fec:	dd401915 	stw	r21,100(sp)
 1006ff0:	dd001815 	stw	r20,96(sp)
 1006ff4:	dcc01715 	stw	r19,92(sp)
 1006ff8:	dc801615 	stw	r18,88(sp)
 1006ffc:	dc401515 	stw	r17,84(sp)
 1007000:	dc001415 	stw	r16,80(sp)
 1007004:	dec00c15 	stw	sp,48(sp)
 1007008:	10418e00 	call	10418e0 <_Unwind_SjLj_Register>
 100700c:	d9401017 	ldw	r5,64(sp)
 1007010:	0005883a 	mov	r2,zero
 1007014:	013fffc4 	movi	r4,-1
 1007018:	29000115 	stw	r4,4(r5)
 100701c:	28800215 	stw	r2,8(r5)
 1007020:	29000015 	stw	r4,0(r5)
 1007024:	28000315 	stw	zero,12(r5)
 1007028:	d8801117 	ldw	r2,68(sp)
 100702c:	d8800f15 	stw	r2,60(sp)
 1007030:	10800017 	ldw	r2,0(r2)
 1007034:	d9400f17 	ldw	r5,60(sp)
 1007038:	10fffd17 	ldw	r3,-12(r2)
 100703c:	28c7883a 	add	r3,r5,r3
 1007040:	18800517 	ldw	r2,20(r3)
 1007044:	1080014c 	andi	r2,r2,5
 1007048:	10000f26 	beq	r2,zero,1007088 <_ZNSi5tellgEv+0xe8>
 100704c:	d9000204 	addi	r4,sp,8
 1007050:	10418f00 	call	10418f0 <_Unwind_SjLj_Unregister>
 1007054:	d8801017 	ldw	r2,64(sp)
 1007058:	dfc01d17 	ldw	ra,116(sp)
 100705c:	df001c17 	ldw	fp,112(sp)
 1007060:	ddc01b17 	ldw	r23,108(sp)
 1007064:	dd801a17 	ldw	r22,104(sp)
 1007068:	dd401917 	ldw	r21,100(sp)
 100706c:	dd001817 	ldw	r20,96(sp)
 1007070:	dcc01717 	ldw	r19,92(sp)
 1007074:	dc801617 	ldw	r18,88(sp)
 1007078:	dc401517 	ldw	r17,84(sp)
 100707c:	dc001417 	ldw	r16,80(sp)
 1007080:	dec01e04 	addi	sp,sp,120
 1007084:	f800283a 	ret
 1007088:	19401e17 	ldw	r5,120(r3)
 100708c:	00800044 	movi	r2,1
 1007090:	00c00204 	movi	r3,8
 1007094:	29000017 	ldw	r4,0(r5)
 1007098:	d8800015 	stw	r2,0(sp)
 100709c:	d8c00115 	stw	r3,4(sp)
 10070a0:	00800084 	movi	r2,2
 10070a4:	22000417 	ldw	r8,16(r4)
 10070a8:	d8800315 	stw	r2,12(sp)
 10070ac:	d9001017 	ldw	r4,64(sp)
 10070b0:	000d883a 	mov	r6,zero
 10070b4:	000f883a 	mov	r7,zero
 10070b8:	403ee83a 	callr	r8
 10070bc:	003fe306 	br	100704c <_ZNSi5tellgEv+0xac>
 10070c0:	d8800317 	ldw	r2,12(sp)
 10070c4:	d8c00417 	ldw	r3,16(sp)
 10070c8:	d8801315 	stw	r2,76(sp)
 10070cc:	d9401317 	ldw	r5,76(sp)
 10070d0:	00800044 	movi	r2,1
 10070d4:	d8c01215 	stw	r3,72(sp)
 10070d8:	28800626 	beq	r5,r2,10070f4 <_ZNSi5tellgEv+0x154>
 10070dc:	d8000315 	stw	zero,12(sp)
 10070e0:	1035e440 	call	1035e44 <__cxa_end_catch>
 10070e4:	d9001217 	ldw	r4,72(sp)
 10070e8:	00bfffc4 	movi	r2,-1
 10070ec:	d8800315 	stw	r2,12(sp)
 10070f0:	1041bac0 	call	1041bac <_Unwind_SjLj_Resume>
 10070f4:	d9001217 	ldw	r4,72(sp)
 10070f8:	1035ee80 	call	1035ee8 <__cxa_begin_catch>
 10070fc:	d8801117 	ldw	r2,68(sp)
 1007100:	10c00017 	ldw	r3,0(r2)
 1007104:	193ffd17 	ldw	r4,-12(r3)
 1007108:	d8c00f17 	ldw	r3,60(sp)
 100710c:	1909883a 	add	r4,r3,r4
 1007110:	21400504 	addi	r5,r4,20
 1007114:	28800017 	ldw	r2,0(r5)
 1007118:	d8c01317 	ldw	r3,76(sp)
 100711c:	10c4b03a 	or	r2,r2,r3
 1007120:	28800015 	stw	r2,0(r5)
 1007124:	20c00417 	ldw	r3,16(r4)
 1007128:	d9401317 	ldw	r5,76(sp)
 100712c:	1946703a 	and	r3,r3,r5
 1007130:	1800031e 	bne	r3,zero,1007140 <_ZNSi5tellgEv+0x1a0>
 1007134:	d8000315 	stw	zero,12(sp)
 1007138:	1035e440 	call	1035e44 <__cxa_end_catch>
 100713c:	003fc306 	br	100704c <_ZNSi5tellgEv+0xac>
 1007140:	d9400315 	stw	r5,12(sp)
 1007144:	10353e40 	call	10353e4 <__cxa_rethrow>

01007148 <_ZSt2wsIcSt11char_traitsIcEERSt13basic_istreamIT_T0_ES6_>:
 1007148:	deffea04 	addi	sp,sp,-88
 100714c:	008040f4 	movhi	r2,259
 1007150:	1099dd04 	addi	r2,r2,26484
 1007154:	00c04174 	movhi	r3,261
 1007158:	18dc9704 	addi	r3,r3,29276
 100715c:	d8800715 	stw	r2,28(sp)
 1007160:	d9001115 	stw	r4,68(sp)
 1007164:	00804034 	movhi	r2,256
 1007168:	109cd204 	addi	r2,r2,29512
 100716c:	d9000104 	addi	r4,sp,4
 1007170:	dfc01515 	stw	ra,84(sp)
 1007174:	d8c00815 	stw	r3,32(sp)
 1007178:	d8800a15 	stw	r2,40(sp)
 100717c:	df001415 	stw	fp,80(sp)
 1007180:	ddc01315 	stw	r23,76(sp)
 1007184:	dec00915 	stw	sp,36(sp)
 1007188:	dec00b15 	stw	sp,44(sp)
 100718c:	10418e00 	call	10418e0 <_Unwind_SjLj_Register>
 1007190:	d8c01117 	ldw	r3,68(sp)
 1007194:	d809883a 	mov	r4,sp
 1007198:	18800017 	ldw	r2,0(r3)
 100719c:	117ffd17 	ldw	r5,-12(r2)
 10071a0:	194b883a 	add	r5,r3,r5
 10071a4:	29401b04 	addi	r5,r5,108
 10071a8:	10021b80 	call	10021b8 <_ZNSt6localeC1ERKS_>
 10071ac:	00800044 	movi	r2,1
 10071b0:	d8800215 	stw	r2,8(sp)
 10071b4:	d809883a 	mov	r4,sp
 10071b8:	10381100 	call	1038110 <_ZSt9use_facetISt5ctypeIcEERKT_RKSt6locale>
 10071bc:	d809883a 	mov	r4,sp
 10071c0:	d8800f15 	stw	r2,60(sp)
 10071c4:	10033ac0 	call	10033ac <_ZNSt6localeD1Ev>
 10071c8:	d9001117 	ldw	r4,68(sp)
 10071cc:	20800017 	ldw	r2,0(r4)
 10071d0:	d9001015 	stw	r4,64(sp)
 10071d4:	10fffd17 	ldw	r3,-12(r2)
 10071d8:	20c7883a 	add	r3,r4,r3
 10071dc:	18c01e17 	ldw	r3,120(r3)
 10071e0:	d8c00e15 	stw	r3,56(sp)
 10071e4:	d9000e17 	ldw	r4,56(sp)
 10071e8:	18c00217 	ldw	r3,8(r3)
 10071ec:	20800317 	ldw	r2,12(r4)
 10071f0:	18804c2e 	bgeu	r3,r2,1007324 <_ZSt2wsIcSt11char_traitsIcEERSt13basic_istreamIT_T0_ES6_+0x1dc>
 10071f4:	18c00003 	ldbu	r3,0(r3)
 10071f8:	00bfffc4 	movi	r2,-1
 10071fc:	18802726 	beq	r3,r2,100729c <_ZSt2wsIcSt11char_traitsIcEERSt13basic_istreamIT_T0_ES6_+0x154>
 1007200:	d9000f17 	ldw	r4,60(sp)
 1007204:	18c03fcc 	andi	r3,r3,255
 1007208:	20800617 	ldw	r2,24(r4)
 100720c:	1887883a 	add	r3,r3,r2
 1007210:	19000007 	ldb	r4,0(r3)
 1007214:	2100020c 	andi	r4,r4,8
 1007218:	20001826 	beq	r4,zero,100727c <_ZSt2wsIcSt11char_traitsIcEERSt13basic_istreamIT_T0_ES6_+0x134>
 100721c:	d8800e17 	ldw	r2,56(sp)
 1007220:	10c00217 	ldw	r3,8(r2)
 1007224:	10800317 	ldw	r2,12(r2)
 1007228:	18802e2e 	bgeu	r3,r2,10072e4 <_ZSt2wsIcSt11char_traitsIcEERSt13basic_istreamIT_T0_ES6_+0x19c>
 100722c:	18800044 	addi	r2,r3,1
 1007230:	19000003 	ldbu	r4,0(r3)
 1007234:	d8c00e17 	ldw	r3,56(sp)
 1007238:	18800215 	stw	r2,8(r3)
 100723c:	017fffc4 	movi	r5,-1
 1007240:	21401626 	beq	r4,r5,100729c <_ZSt2wsIcSt11char_traitsIcEERSt13basic_istreamIT_T0_ES6_+0x154>
 1007244:	d8800e17 	ldw	r2,56(sp)
 1007248:	11000217 	ldw	r4,8(r2)
 100724c:	10800317 	ldw	r2,12(r2)
 1007250:	20802c2e 	bgeu	r4,r2,1007304 <_ZSt2wsIcSt11char_traitsIcEERSt13basic_istreamIT_T0_ES6_+0x1bc>
 1007254:	20c00003 	ldbu	r3,0(r4)
 1007258:	00bfffc4 	movi	r2,-1
 100725c:	18800f26 	beq	r3,r2,100729c <_ZSt2wsIcSt11char_traitsIcEERSt13basic_istreamIT_T0_ES6_+0x154>
 1007260:	d9000f17 	ldw	r4,60(sp)
 1007264:	20800617 	ldw	r2,24(r4)
 1007268:	19003fcc 	andi	r4,r3,255
 100726c:	1105883a 	add	r2,r2,r4
 1007270:	10c00007 	ldb	r3,0(r2)
 1007274:	18c0020c 	andi	r3,r3,8
 1007278:	183fe81e 	bne	r3,zero,100721c <_ZSt2wsIcSt11char_traitsIcEERSt13basic_istreamIT_T0_ES6_+0xd4>
 100727c:	d9000104 	addi	r4,sp,4
 1007280:	10418f00 	call	10418f0 <_Unwind_SjLj_Unregister>
 1007284:	d8801117 	ldw	r2,68(sp)
 1007288:	dfc01517 	ldw	ra,84(sp)
 100728c:	df001417 	ldw	fp,80(sp)
 1007290:	ddc01317 	ldw	r23,76(sp)
 1007294:	dec01604 	addi	sp,sp,88
 1007298:	f800283a 	ret
 100729c:	d8c01117 	ldw	r3,68(sp)
 10072a0:	18800017 	ldw	r2,0(r3)
 10072a4:	113ffd17 	ldw	r4,-12(r2)
 10072a8:	d8801017 	ldw	r2,64(sp)
 10072ac:	1109883a 	add	r4,r2,r4
 10072b0:	21400517 	ldw	r5,20(r4)
 10072b4:	00bfffc4 	movi	r2,-1
 10072b8:	d8800215 	stw	r2,8(sp)
 10072bc:	29400094 	ori	r5,r5,2
 10072c0:	10061b40 	call	10061b4 <_ZNSt9basic_iosIcSt11char_traitsIcEE5clearESt12_Ios_Iostate>
 10072c4:	d9000104 	addi	r4,sp,4
 10072c8:	10418f00 	call	10418f0 <_Unwind_SjLj_Unregister>
 10072cc:	d8801117 	ldw	r2,68(sp)
 10072d0:	dfc01517 	ldw	ra,84(sp)
 10072d4:	df001417 	ldw	fp,80(sp)
 10072d8:	ddc01317 	ldw	r23,76(sp)
 10072dc:	dec01604 	addi	sp,sp,88
 10072e0:	f800283a 	ret
 10072e4:	d9000e17 	ldw	r4,56(sp)
 10072e8:	00ffffc4 	movi	r3,-1
 10072ec:	20800017 	ldw	r2,0(r4)
 10072f0:	11400a17 	ldw	r5,40(r2)
 10072f4:	d8c00215 	stw	r3,8(sp)
 10072f8:	283ee83a 	callr	r5
 10072fc:	1009883a 	mov	r4,r2
 1007300:	003fce06 	br	100723c <_ZSt2wsIcSt11char_traitsIcEERSt13basic_istreamIT_T0_ES6_+0xf4>
 1007304:	d8c00e17 	ldw	r3,56(sp)
 1007308:	18800017 	ldw	r2,0(r3)
 100730c:	1809883a 	mov	r4,r3
 1007310:	10c00917 	ldw	r3,36(r2)
 1007314:	d9400215 	stw	r5,8(sp)
 1007318:	183ee83a 	callr	r3
 100731c:	1007883a 	mov	r3,r2
 1007320:	003fcd06 	br	1007258 <_ZSt2wsIcSt11char_traitsIcEERSt13basic_istreamIT_T0_ES6_+0x110>
 1007324:	d8c00e17 	ldw	r3,56(sp)
 1007328:	18800017 	ldw	r2,0(r3)
 100732c:	1809883a 	mov	r4,r3
 1007330:	00ffffc4 	movi	r3,-1
 1007334:	11400917 	ldw	r5,36(r2)
 1007338:	d8c00215 	stw	r3,8(sp)
 100733c:	283ee83a 	callr	r5
 1007340:	1007883a 	mov	r3,r2
 1007344:	003fac06 	br	10071f8 <_ZSt2wsIcSt11char_traitsIcEERSt13basic_istreamIT_T0_ES6_+0xb0>
 1007348:	d8800317 	ldw	r2,12(sp)
 100734c:	d809883a 	mov	r4,sp
 1007350:	d8801215 	stw	r2,72(sp)
 1007354:	10033ac0 	call	10033ac <_ZNSt6localeD1Ev>
 1007358:	d9001217 	ldw	r4,72(sp)
 100735c:	00bfffc4 	movi	r2,-1
 1007360:	d8800215 	stw	r2,8(sp)
 1007364:	1041bac0 	call	1041bac <_Unwind_SjLj_Resume>

01007368 <_ZNSi6sentryC1ERSib>:
 1007368:	29c00017 	ldw	r7,0(r5)
 100736c:	defffb04 	addi	sp,sp,-20
 1007370:	dcc00315 	stw	r19,12(sp)
 1007374:	38fffd17 	ldw	r3,-12(r7)
 1007378:	2027883a 	mov	r19,r4
 100737c:	20000005 	stb	zero,0(r4)
 1007380:	28c9883a 	add	r4,r5,r3
 1007384:	20800517 	ldw	r2,20(r4)
 1007388:	dc400115 	stw	r17,4(sp)
 100738c:	dc000015 	stw	r16,0(sp)
 1007390:	dfc00415 	stw	ra,16(sp)
 1007394:	dc800215 	stw	r18,8(sp)
 1007398:	2823883a 	mov	r17,r5
 100739c:	3021883a 	mov	r16,r6
 10073a0:	1000061e 	bne	r2,zero,10073bc <_ZNSi6sentryC1ERSib+0x54>
 10073a4:	21001c17 	ldw	r4,112(r4)
 10073a8:	20000226 	beq	r4,zero,10073b4 <_ZNSi6sentryC1ERSib+0x4c>
 10073ac:	102af240 	call	102af24 <_ZNSo5flushEv>
 10073b0:	89c00017 	ldw	r7,0(r17)
 10073b4:	80803fcc 	andi	r2,r16,255
 10073b8:	10001826 	beq	r2,zero,100741c <_ZNSi6sentryC1ERSib+0xb4>
 10073bc:	000b883a 	mov	r5,zero
 10073c0:	38bffd17 	ldw	r2,-12(r7)
 10073c4:	8889883a 	add	r4,r17,r2
 10073c8:	20800517 	ldw	r2,20(r4)
 10073cc:	1000011e 	bne	r2,zero,10073d4 <_ZNSi6sentryC1ERSib+0x6c>
 10073d0:	28000926 	beq	r5,zero,10073f8 <_ZNSi6sentryC1ERSib+0x90>
 10073d4:	29400114 	ori	r5,r5,4
 10073d8:	114ab03a 	or	r5,r2,r5
 10073dc:	dfc00417 	ldw	ra,16(sp)
 10073e0:	dcc00317 	ldw	r19,12(sp)
 10073e4:	dc800217 	ldw	r18,8(sp)
 10073e8:	dc400117 	ldw	r17,4(sp)
 10073ec:	dc000017 	ldw	r16,0(sp)
 10073f0:	dec00504 	addi	sp,sp,20
 10073f4:	10061b41 	jmpi	10061b4 <_ZNSt9basic_iosIcSt11char_traitsIcEE5clearESt12_Ios_Iostate>
 10073f8:	00800044 	movi	r2,1
 10073fc:	98800005 	stb	r2,0(r19)
 1007400:	dfc00417 	ldw	ra,16(sp)
 1007404:	dcc00317 	ldw	r19,12(sp)
 1007408:	dc800217 	ldw	r18,8(sp)
 100740c:	dc400117 	ldw	r17,4(sp)
 1007410:	dc000017 	ldw	r16,0(sp)
 1007414:	dec00504 	addi	sp,sp,20
 1007418:	f800283a 	ret
 100741c:	38fffd17 	ldw	r3,-12(r7)
 1007420:	88c9883a 	add	r4,r17,r3
 1007424:	20800317 	ldw	r2,12(r4)
 1007428:	1084000c 	andi	r2,r2,4096
 100742c:	103fe326 	beq	r2,zero,10073bc <_ZNSi6sentryC1ERSib+0x54>
 1007430:	24001e17 	ldw	r16,120(r4)
 1007434:	81000217 	ldw	r4,8(r16)
 1007438:	80800317 	ldw	r2,12(r16)
 100743c:	2080332e 	bgeu	r4,r2,100750c <_ZNSi6sentryC1ERSib+0x1a4>
 1007440:	20c00003 	ldbu	r3,0(r4)
 1007444:	38bffd17 	ldw	r2,-12(r7)
 1007448:	8885883a 	add	r2,r17,r2
 100744c:	14801f17 	ldw	r18,124(r2)
 1007450:	90002d26 	beq	r18,zero,1007508 <_ZNSi6sentryC1ERSib+0x1a0>
 1007454:	00bfffc4 	movi	r2,-1
 1007458:	18801d26 	beq	r3,r2,10074d0 <_ZNSi6sentryC1ERSib+0x168>
 100745c:	90800617 	ldw	r2,24(r18)
 1007460:	19003fcc 	andi	r4,r3,255
 1007464:	1105883a 	add	r2,r2,r4
 1007468:	10c00007 	ldb	r3,0(r2)
 100746c:	18c0020c 	andi	r3,r3,8
 1007470:	183fd226 	beq	r3,zero,10073bc <_ZNSi6sentryC1ERSib+0x54>
 1007474:	80c00217 	ldw	r3,8(r16)
 1007478:	80800317 	ldw	r2,12(r16)
 100747c:	1880162e 	bgeu	r3,r2,10074d8 <_ZNSi6sentryC1ERSib+0x170>
 1007480:	18800044 	addi	r2,r3,1
 1007484:	19000003 	ldbu	r4,0(r3)
 1007488:	80800215 	stw	r2,8(r16)
 100748c:	20bfffe0 	cmpeqi	r2,r4,-1
 1007490:	10000e1e 	bne	r2,zero,10074cc <_ZNSi6sentryC1ERSib+0x164>
 1007494:	81000217 	ldw	r4,8(r16)
 1007498:	80800317 	ldw	r2,12(r16)
 100749c:	2080142e 	bgeu	r4,r2,10074f0 <_ZNSi6sentryC1ERSib+0x188>
 10074a0:	20c00003 	ldbu	r3,0(r4)
 10074a4:	00bfffc4 	movi	r2,-1
 10074a8:	18800826 	beq	r3,r2,10074cc <_ZNSi6sentryC1ERSib+0x164>
 10074ac:	90800617 	ldw	r2,24(r18)
 10074b0:	19003fcc 	andi	r4,r3,255
 10074b4:	1105883a 	add	r2,r2,r4
 10074b8:	10c00007 	ldb	r3,0(r2)
 10074bc:	18c0020c 	andi	r3,r3,8
 10074c0:	183fec1e 	bne	r3,zero,1007474 <_ZNSi6sentryC1ERSib+0x10c>
 10074c4:	89c00017 	ldw	r7,0(r17)
 10074c8:	003fbc06 	br	10073bc <_ZNSi6sentryC1ERSib+0x54>
 10074cc:	89c00017 	ldw	r7,0(r17)
 10074d0:	01400084 	movi	r5,2
 10074d4:	003fba06 	br	10073c0 <_ZNSi6sentryC1ERSib+0x58>
 10074d8:	80800017 	ldw	r2,0(r16)
 10074dc:	8009883a 	mov	r4,r16
 10074e0:	10c00a17 	ldw	r3,40(r2)
 10074e4:	183ee83a 	callr	r3
 10074e8:	1009883a 	mov	r4,r2
 10074ec:	003fe706 	br	100748c <_ZNSi6sentryC1ERSib+0x124>
 10074f0:	80800017 	ldw	r2,0(r16)
 10074f4:	8009883a 	mov	r4,r16
 10074f8:	10c00917 	ldw	r3,36(r2)
 10074fc:	183ee83a 	callr	r3
 1007500:	1007883a 	mov	r3,r2
 1007504:	003fe706 	br	10074a4 <_ZNSi6sentryC1ERSib+0x13c>
 1007508:	10385c80 	call	10385c8 <_ZSt16__throw_bad_castv>
 100750c:	80800017 	ldw	r2,0(r16)
 1007510:	8009883a 	mov	r4,r16
 1007514:	10c00917 	ldw	r3,36(r2)
 1007518:	183ee83a 	callr	r3
 100751c:	89c00017 	ldw	r7,0(r17)
 1007520:	1007883a 	mov	r3,r2
 1007524:	003fc706 	br	1007444 <_ZNSi6sentryC1ERSib+0xdc>

01007528 <_ZStrsIcSt11char_traitsIcEERSt13basic_istreamIT_T0_ES6_RS3_>:
 1007528:	deffe304 	addi	sp,sp,-116
 100752c:	008040f4 	movhi	r2,259
 1007530:	1099dd04 	addi	r2,r2,26484
 1007534:	00c04174 	movhi	r3,261
 1007538:	18dc9904 	addi	r3,r3,29284
 100753c:	d8800715 	stw	r2,28(sp)
 1007540:	d9000f15 	stw	r4,60(sp)
 1007544:	00804034 	movhi	r2,256
 1007548:	109d9e04 	addi	r2,r2,30328
 100754c:	d9000104 	addi	r4,sp,4
 1007550:	dfc01c15 	stw	ra,112(sp)
 1007554:	d8c00815 	stw	r3,32(sp)
 1007558:	d8800a15 	stw	r2,40(sp)
 100755c:	d9401015 	stw	r5,64(sp)
 1007560:	df001b15 	stw	fp,108(sp)
 1007564:	ddc01a15 	stw	r23,104(sp)
 1007568:	dd801915 	stw	r22,100(sp)
 100756c:	dd401815 	stw	r21,96(sp)
 1007570:	dd001715 	stw	r20,92(sp)
 1007574:	dcc01615 	stw	r19,88(sp)
 1007578:	dc801515 	stw	r18,84(sp)
 100757c:	dc401415 	stw	r17,80(sp)
 1007580:	dc001315 	stw	r16,76(sp)
 1007584:	dec00915 	stw	sp,36(sp)
 1007588:	dec00b15 	stw	sp,44(sp)
 100758c:	10418e00 	call	10418e0 <_Unwind_SjLj_Register>
 1007590:	d9400f17 	ldw	r5,60(sp)
 1007594:	00bfffc4 	movi	r2,-1
 1007598:	d809883a 	mov	r4,sp
 100759c:	000d883a 	mov	r6,zero
 10075a0:	d8800215 	stw	r2,8(sp)
 10075a4:	10073680 	call	1007368 <_ZNSi6sentryC1ERSib>
 10075a8:	d8800003 	ldbu	r2,0(sp)
 10075ac:	10000f1e 	bne	r2,zero,10075ec <_ZStrsIcSt11char_traitsIcEERSt13basic_istreamIT_T0_ES6_RS3_+0xc4>
 10075b0:	d9000104 	addi	r4,sp,4
 10075b4:	10418f00 	call	10418f0 <_Unwind_SjLj_Unregister>
 10075b8:	d8800f17 	ldw	r2,60(sp)
 10075bc:	dfc01c17 	ldw	ra,112(sp)
 10075c0:	df001b17 	ldw	fp,108(sp)
 10075c4:	ddc01a17 	ldw	r23,104(sp)
 10075c8:	dd801917 	ldw	r22,100(sp)
 10075cc:	dd401817 	ldw	r21,96(sp)
 10075d0:	dd001717 	ldw	r20,92(sp)
 10075d4:	dcc01617 	ldw	r19,88(sp)
 10075d8:	dc801517 	ldw	r18,84(sp)
 10075dc:	dc401417 	ldw	r17,80(sp)
 10075e0:	dc001317 	ldw	r16,76(sp)
 10075e4:	dec01d04 	addi	sp,sp,116
 10075e8:	f800283a 	ret
 10075ec:	d8c00f17 	ldw	r3,60(sp)
 10075f0:	18800017 	ldw	r2,0(r3)
 10075f4:	d8c00e15 	stw	r3,56(sp)
 10075f8:	10fffd17 	ldw	r3,-12(r2)
 10075fc:	d8800f17 	ldw	r2,60(sp)
 1007600:	10c7883a 	add	r3,r2,r3
 1007604:	19001e17 	ldw	r4,120(r3)
 1007608:	20c00217 	ldw	r3,8(r4)
 100760c:	20800317 	ldw	r2,12(r4)
 1007610:	1880122e 	bgeu	r3,r2,100765c <_ZStrsIcSt11char_traitsIcEERSt13basic_istreamIT_T0_ES6_RS3_+0x134>
 1007614:	18800044 	addi	r2,r3,1
 1007618:	19800003 	ldbu	r6,0(r3)
 100761c:	20800215 	stw	r2,8(r4)
 1007620:	00bfffc4 	movi	r2,-1
 1007624:	30800326 	beq	r6,r2,1007634 <_ZStrsIcSt11char_traitsIcEERSt13basic_istreamIT_T0_ES6_RS3_+0x10c>
 1007628:	d8c01017 	ldw	r3,64(sp)
 100762c:	19800005 	stb	r6,0(r3)
 1007630:	003fdf06 	br	10075b0 <_ZStrsIcSt11char_traitsIcEERSt13basic_istreamIT_T0_ES6_RS3_+0x88>
 1007634:	d8c00f17 	ldw	r3,60(sp)
 1007638:	18800017 	ldw	r2,0(r3)
 100763c:	113ffd17 	ldw	r4,-12(r2)
 1007640:	d8800e17 	ldw	r2,56(sp)
 1007644:	1109883a 	add	r4,r2,r4
 1007648:	21400517 	ldw	r5,20(r4)
 100764c:	d9800215 	stw	r6,8(sp)
 1007650:	29400194 	ori	r5,r5,6
 1007654:	10061b40 	call	10061b4 <_ZNSt9basic_iosIcSt11char_traitsIcEE5clearESt12_Ios_Iostate>
 1007658:	003fd506 	br	10075b0 <_ZStrsIcSt11char_traitsIcEERSt13basic_istreamIT_T0_ES6_RS3_+0x88>
 100765c:	20800017 	ldw	r2,0(r4)
 1007660:	00c00084 	movi	r3,2
 1007664:	11400a17 	ldw	r5,40(r2)
 1007668:	d8c00215 	stw	r3,8(sp)
 100766c:	283ee83a 	callr	r5
 1007670:	100d883a 	mov	r6,r2
 1007674:	003fea06 	br	1007620 <_ZStrsIcSt11char_traitsIcEERSt13basic_istreamIT_T0_ES6_RS3_+0xf8>
 1007678:	d8800317 	ldw	r2,12(sp)
 100767c:	d8c00217 	ldw	r3,8(sp)
 1007680:	d8801115 	stw	r2,68(sp)
 1007684:	00800044 	movi	r2,1
 1007688:	d8c01215 	stw	r3,72(sp)
 100768c:	18800626 	beq	r3,r2,10076a8 <_ZStrsIcSt11char_traitsIcEERSt13basic_istreamIT_T0_ES6_RS3_+0x180>
 1007690:	d8000215 	stw	zero,8(sp)
 1007694:	1035e440 	call	1035e44 <__cxa_end_catch>
 1007698:	d9001117 	ldw	r4,68(sp)
 100769c:	00bfffc4 	movi	r2,-1
 10076a0:	d8800215 	stw	r2,8(sp)
 10076a4:	1041bac0 	call	1041bac <_Unwind_SjLj_Resume>
 10076a8:	d9001117 	ldw	r4,68(sp)
 10076ac:	1035ee80 	call	1035ee8 <__cxa_begin_catch>
 10076b0:	d8800f17 	ldw	r2,60(sp)
 10076b4:	10c00017 	ldw	r3,0(r2)
 10076b8:	193ffd17 	ldw	r4,-12(r3)
 10076bc:	d8c00e17 	ldw	r3,56(sp)
 10076c0:	1909883a 	add	r4,r3,r4
 10076c4:	21400504 	addi	r5,r4,20
 10076c8:	28800017 	ldw	r2,0(r5)
 10076cc:	d8c01217 	ldw	r3,72(sp)
 10076d0:	10c4b03a 	or	r2,r2,r3
 10076d4:	28800015 	stw	r2,0(r5)
 10076d8:	20c00417 	ldw	r3,16(r4)
 10076dc:	d8801217 	ldw	r2,72(sp)
 10076e0:	1886703a 	and	r3,r3,r2
 10076e4:	1800031e 	bne	r3,zero,10076f4 <_ZStrsIcSt11char_traitsIcEERSt13basic_istreamIT_T0_ES6_RS3_+0x1cc>
 10076e8:	d8000215 	stw	zero,8(sp)
 10076ec:	1035e440 	call	1035e44 <__cxa_end_catch>
 10076f0:	003faf06 	br	10075b0 <_ZStrsIcSt11char_traitsIcEERSt13basic_istreamIT_T0_ES6_RS3_+0x88>
 10076f4:	d8800215 	stw	r2,8(sp)
 10076f8:	10353e40 	call	10353e4 <__cxa_rethrow>

010076fc <_ZStrsISt11char_traitsIcEERSt13basic_istreamIcT_ES5_Ra>:
 10076fc:	10075281 	jmpi	1007528 <_ZStrsIcSt11char_traitsIcEERSt13basic_istreamIT_T0_ES6_RS3_>

01007700 <_ZStrsISt11char_traitsIcEERSt13basic_istreamIcT_ES5_Rh>:
 1007700:	10075281 	jmpi	1007528 <_ZStrsIcSt11char_traitsIcEERSt13basic_istreamIT_T0_ES6_RS3_>

01007704 <_ZNSi4syncEv>:
 1007704:	deffe304 	addi	sp,sp,-116
 1007708:	008040f4 	movhi	r2,259
 100770c:	1099dd04 	addi	r2,r2,26484
 1007710:	00c04174 	movhi	r3,261
 1007714:	18dc9d04 	addi	r3,r3,29300
 1007718:	d8800715 	stw	r2,28(sp)
 100771c:	d9001015 	stw	r4,64(sp)
 1007720:	00804034 	movhi	r2,256
 1007724:	109e1004 	addi	r2,r2,30784
 1007728:	d9000104 	addi	r4,sp,4
 100772c:	dfc01c15 	stw	ra,112(sp)
 1007730:	d8c00815 	stw	r3,32(sp)
 1007734:	d8800a15 	stw	r2,40(sp)
 1007738:	df001b15 	stw	fp,108(sp)
 100773c:	ddc01a15 	stw	r23,104(sp)
 1007740:	dd801915 	stw	r22,100(sp)
 1007744:	dd401815 	stw	r21,96(sp)
 1007748:	dd001715 	stw	r20,92(sp)
 100774c:	dcc01615 	stw	r19,88(sp)
 1007750:	dc801515 	stw	r18,84(sp)
 1007754:	dc401415 	stw	r17,80(sp)
 1007758:	dc001315 	stw	r16,76(sp)
 100775c:	dec00915 	stw	sp,36(sp)
 1007760:	dec00b15 	stw	sp,44(sp)
 1007764:	10418e00 	call	10418e0 <_Unwind_SjLj_Register>
 1007768:	d9401017 	ldw	r5,64(sp)
 100776c:	00bfffc4 	movi	r2,-1
 1007770:	d809883a 	mov	r4,sp
 1007774:	01800044 	movi	r6,1
 1007778:	d8800215 	stw	r2,8(sp)
 100777c:	10073680 	call	1007368 <_ZNSi6sentryC1ERSib>
 1007780:	d8800003 	ldbu	r2,0(sp)
 1007784:	10001226 	beq	r2,zero,10077d0 <_ZNSi4syncEv+0xcc>
 1007788:	d8c01017 	ldw	r3,64(sp)
 100778c:	d8c00f15 	stw	r3,60(sp)
 1007790:	18c00017 	ldw	r3,0(r3)
 1007794:	d9000f17 	ldw	r4,60(sp)
 1007798:	18bffd17 	ldw	r2,-12(r3)
 100779c:	2085883a 	add	r2,r4,r2
 10077a0:	11001e17 	ldw	r4,120(r2)
 10077a4:	20000a26 	beq	r4,zero,10077d0 <_ZNSi4syncEv+0xcc>
 10077a8:	20800017 	ldw	r2,0(r4)
 10077ac:	00c00084 	movi	r3,2
 10077b0:	11400617 	ldw	r5,24(r2)
 10077b4:	d8c00215 	stw	r3,8(sp)
 10077b8:	283ee83a 	callr	r5
 10077bc:	1007883a 	mov	r3,r2
 10077c0:	00bfffc4 	movi	r2,-1
 10077c4:	18801326 	beq	r3,r2,1007814 <_ZNSi4syncEv+0x110>
 10077c8:	d8000e15 	stw	zero,56(sp)
 10077cc:	00000206 	br	10077d8 <_ZNSi4syncEv+0xd4>
 10077d0:	00ffffc4 	movi	r3,-1
 10077d4:	d8c00e15 	stw	r3,56(sp)
 10077d8:	d9000104 	addi	r4,sp,4
 10077dc:	10418f00 	call	10418f0 <_Unwind_SjLj_Unregister>
 10077e0:	d8800e17 	ldw	r2,56(sp)
 10077e4:	dfc01c17 	ldw	ra,112(sp)
 10077e8:	df001b17 	ldw	fp,108(sp)
 10077ec:	ddc01a17 	ldw	r23,104(sp)
 10077f0:	dd801917 	ldw	r22,100(sp)
 10077f4:	dd401817 	ldw	r21,96(sp)
 10077f8:	dd001717 	ldw	r20,92(sp)
 10077fc:	dcc01617 	ldw	r19,88(sp)
 1007800:	dc801517 	ldw	r18,84(sp)
 1007804:	dc401417 	ldw	r17,80(sp)
 1007808:	dc001317 	ldw	r16,76(sp)
 100780c:	dec01d04 	addi	sp,sp,116
 1007810:	f800283a 	ret
 1007814:	d9000f17 	ldw	r4,60(sp)
 1007818:	d8c00e15 	stw	r3,56(sp)
 100781c:	20800017 	ldw	r2,0(r4)
 1007820:	113ffd17 	ldw	r4,-12(r2)
 1007824:	d8800f17 	ldw	r2,60(sp)
 1007828:	1109883a 	add	r4,r2,r4
 100782c:	21400517 	ldw	r5,20(r4)
 1007830:	d8c00215 	stw	r3,8(sp)
 1007834:	29400054 	ori	r5,r5,1
 1007838:	10061b40 	call	10061b4 <_ZNSt9basic_iosIcSt11char_traitsIcEE5clearESt12_Ios_Iostate>
 100783c:	003fe606 	br	10077d8 <_ZNSi4syncEv+0xd4>
 1007840:	d8800217 	ldw	r2,8(sp)
 1007844:	d8c00317 	ldw	r3,12(sp)
 1007848:	d8801215 	stw	r2,72(sp)
 100784c:	d9001217 	ldw	r4,72(sp)
 1007850:	00800044 	movi	r2,1
 1007854:	d8c01115 	stw	r3,68(sp)
 1007858:	20800626 	beq	r4,r2,1007874 <_ZNSi4syncEv+0x170>
 100785c:	d8000215 	stw	zero,8(sp)
 1007860:	1035e440 	call	1035e44 <__cxa_end_catch>
 1007864:	d9001117 	ldw	r4,68(sp)
 1007868:	00bfffc4 	movi	r2,-1
 100786c:	d8800215 	stw	r2,8(sp)
 1007870:	1041bac0 	call	1041bac <_Unwind_SjLj_Resume>
 1007874:	d9001117 	ldw	r4,68(sp)
 1007878:	1035ee80 	call	1035ee8 <__cxa_begin_catch>
 100787c:	d9001017 	ldw	r4,64(sp)
 1007880:	d8800f17 	ldw	r2,60(sp)
 1007884:	20c00017 	ldw	r3,0(r4)
 1007888:	193ffd17 	ldw	r4,-12(r3)
 100788c:	d8c01217 	ldw	r3,72(sp)
 1007890:	1109883a 	add	r4,r2,r4
 1007894:	21400504 	addi	r5,r4,20
 1007898:	28800017 	ldw	r2,0(r5)
 100789c:	10c4b03a 	or	r2,r2,r3
 10078a0:	28800015 	stw	r2,0(r5)
 10078a4:	20c00417 	ldw	r3,16(r4)
 10078a8:	d9001217 	ldw	r4,72(sp)
 10078ac:	1906703a 	and	r3,r3,r4
 10078b0:	1800051e 	bne	r3,zero,10078c8 <_ZNSi4syncEv+0x1c4>
 10078b4:	d8000215 	stw	zero,8(sp)
 10078b8:	1035e440 	call	1035e44 <__cxa_end_catch>
 10078bc:	00bfffc4 	movi	r2,-1
 10078c0:	d8800e15 	stw	r2,56(sp)
 10078c4:	003fc406 	br	10077d8 <_ZNSi4syncEv+0xd4>
 10078c8:	d9000215 	stw	r4,8(sp)
 10078cc:	10353e40 	call	10353e4 <__cxa_rethrow>

010078d0 <_ZNSi5ungetEv>:
 10078d0:	deffe404 	addi	sp,sp,-112
 10078d4:	008040f4 	movhi	r2,259
 10078d8:	1099dd04 	addi	r2,r2,26484
 10078dc:	00c04174 	movhi	r3,261
 10078e0:	18dca104 	addi	r3,r3,29316
 10078e4:	d8800715 	stw	r2,28(sp)
 10078e8:	d9000f15 	stw	r4,60(sp)
 10078ec:	00804034 	movhi	r2,256
 10078f0:	109e8804 	addi	r2,r2,31264
 10078f4:	d9000104 	addi	r4,sp,4
 10078f8:	dfc01b15 	stw	ra,108(sp)
 10078fc:	d8c00815 	stw	r3,32(sp)
 1007900:	d8800a15 	stw	r2,40(sp)
 1007904:	df001a15 	stw	fp,104(sp)
 1007908:	ddc01915 	stw	r23,100(sp)
 100790c:	dd801815 	stw	r22,96(sp)
 1007910:	dd401715 	stw	r21,92(sp)
 1007914:	dd001615 	stw	r20,88(sp)
 1007918:	dcc01515 	stw	r19,84(sp)
 100791c:	dc801415 	stw	r18,80(sp)
 1007920:	dc401315 	stw	r17,76(sp)
 1007924:	dc001215 	stw	r16,72(sp)
 1007928:	dec00915 	stw	sp,36(sp)
 100792c:	dec00b15 	stw	sp,44(sp)
 1007930:	10418e00 	call	10418e0 <_Unwind_SjLj_Register>
 1007934:	d8800f17 	ldw	r2,60(sp)
 1007938:	00ffffc4 	movi	r3,-1
 100793c:	d809883a 	mov	r4,sp
 1007940:	10000115 	stw	zero,4(r2)
 1007944:	100b883a 	mov	r5,r2
 1007948:	01800044 	movi	r6,1
 100794c:	d8c00215 	stw	r3,8(sp)
 1007950:	10073680 	call	1007368 <_ZNSi6sentryC1ERSib>
 1007954:	d8800003 	ldbu	r2,0(sp)
 1007958:	10001a26 	beq	r2,zero,10079c4 <_ZNSi5ungetEv+0xf4>
 100795c:	d9400f17 	ldw	r5,60(sp)
 1007960:	28c00017 	ldw	r3,0(r5)
 1007964:	d9400e15 	stw	r5,56(sp)
 1007968:	18bffd17 	ldw	r2,-12(r3)
 100796c:	2885883a 	add	r2,r5,r2
 1007970:	11001e17 	ldw	r4,120(r2)
 1007974:	20000926 	beq	r4,zero,100799c <_ZNSi5ungetEv+0xcc>
 1007978:	20c00217 	ldw	r3,8(r4)
 100797c:	20800117 	ldw	r2,4(r4)
 1007980:	10c01f2e 	bgeu	r2,r3,1007a00 <_ZNSi5ungetEv+0x130>
 1007984:	01400044 	movi	r5,1
 1007988:	1945c83a 	sub	r2,r3,r5
 100798c:	20800215 	stw	r2,8(r4)
 1007990:	10c00003 	ldbu	r3,0(r2)
 1007994:	00bfffc4 	movi	r2,-1
 1007998:	18800a1e 	bne	r3,r2,10079c4 <_ZNSi5ungetEv+0xf4>
 100799c:	d8c00f17 	ldw	r3,60(sp)
 10079a0:	d9400e17 	ldw	r5,56(sp)
 10079a4:	18800017 	ldw	r2,0(r3)
 10079a8:	113ffd17 	ldw	r4,-12(r2)
 10079ac:	00bfffc4 	movi	r2,-1
 10079b0:	2909883a 	add	r4,r5,r4
 10079b4:	21400517 	ldw	r5,20(r4)
 10079b8:	d8800215 	stw	r2,8(sp)
 10079bc:	29400054 	ori	r5,r5,1
 10079c0:	10061b40 	call	10061b4 <_ZNSt9basic_iosIcSt11char_traitsIcEE5clearESt12_Ios_Iostate>
 10079c4:	d9000104 	addi	r4,sp,4
 10079c8:	10418f00 	call	10418f0 <_Unwind_SjLj_Unregister>
 10079cc:	d8800f17 	ldw	r2,60(sp)
 10079d0:	dfc01b17 	ldw	ra,108(sp)
 10079d4:	df001a17 	ldw	fp,104(sp)
 10079d8:	ddc01917 	ldw	r23,100(sp)
 10079dc:	dd801817 	ldw	r22,96(sp)
 10079e0:	dd401717 	ldw	r21,92(sp)
 10079e4:	dd001617 	ldw	r20,88(sp)
 10079e8:	dcc01517 	ldw	r19,84(sp)
 10079ec:	dc801417 	ldw	r18,80(sp)
 10079f0:	dc401317 	ldw	r17,76(sp)
 10079f4:	dc001217 	ldw	r16,72(sp)
 10079f8:	dec01c04 	addi	sp,sp,112
 10079fc:	f800283a 	ret
 1007a00:	20800017 	ldw	r2,0(r4)
 1007a04:	00c00084 	movi	r3,2
 1007a08:	017fffc4 	movi	r5,-1
 1007a0c:	11800b17 	ldw	r6,44(r2)
 1007a10:	d8c00215 	stw	r3,8(sp)
 1007a14:	303ee83a 	callr	r6
 1007a18:	1007883a 	mov	r3,r2
 1007a1c:	003fdd06 	br	1007994 <_ZNSi5ungetEv+0xc4>
 1007a20:	d8800217 	ldw	r2,8(sp)
 1007a24:	d8c00317 	ldw	r3,12(sp)
 1007a28:	d8801115 	stw	r2,68(sp)
 1007a2c:	d9401117 	ldw	r5,68(sp)
 1007a30:	00800044 	movi	r2,1
 1007a34:	d8c01015 	stw	r3,64(sp)
 1007a38:	28800626 	beq	r5,r2,1007a54 <_ZNSi5ungetEv+0x184>
 1007a3c:	d8000215 	stw	zero,8(sp)
 1007a40:	1035e440 	call	1035e44 <__cxa_end_catch>
 1007a44:	d9001017 	ldw	r4,64(sp)
 1007a48:	00bfffc4 	movi	r2,-1
 1007a4c:	d8800215 	stw	r2,8(sp)
 1007a50:	1041bac0 	call	1041bac <_Unwind_SjLj_Resume>
 1007a54:	d9001017 	ldw	r4,64(sp)
 1007a58:	1035ee80 	call	1035ee8 <__cxa_begin_catch>
 1007a5c:	d8800f17 	ldw	r2,60(sp)
 1007a60:	10c00017 	ldw	r3,0(r2)
 1007a64:	193ffd17 	ldw	r4,-12(r3)
 1007a68:	d8c00e17 	ldw	r3,56(sp)
 1007a6c:	1909883a 	add	r4,r3,r4
 1007a70:	21400504 	addi	r5,r4,20
 1007a74:	28800017 	ldw	r2,0(r5)
 1007a78:	d8c01117 	ldw	r3,68(sp)
 1007a7c:	10c4b03a 	or	r2,r2,r3
 1007a80:	28800015 	stw	r2,0(r5)
 1007a84:	20c00417 	ldw	r3,16(r4)
 1007a88:	d9401117 	ldw	r5,68(sp)
 1007a8c:	1946703a 	and	r3,r3,r5
 1007a90:	1800031e 	bne	r3,zero,1007aa0 <_ZNSi5ungetEv+0x1d0>
 1007a94:	d8000215 	stw	zero,8(sp)
 1007a98:	1035e440 	call	1035e44 <__cxa_end_catch>
 1007a9c:	003fc906 	br	10079c4 <_ZNSi5ungetEv+0xf4>
 1007aa0:	d9400215 	stw	r5,8(sp)
 1007aa4:	10353e40 	call	10353e4 <__cxa_rethrow>

01007aa8 <_ZNSi7putbackEc>:
 1007aa8:	deffe304 	addi	sp,sp,-116
 1007aac:	008040f4 	movhi	r2,259
 1007ab0:	1099dd04 	addi	r2,r2,26484
 1007ab4:	00c04174 	movhi	r3,261
 1007ab8:	18dca504 	addi	r3,r3,29332
 1007abc:	d8800715 	stw	r2,28(sp)
 1007ac0:	d9000f15 	stw	r4,60(sp)
 1007ac4:	00804034 	movhi	r2,256
 1007ac8:	109f0904 	addi	r2,r2,31780
 1007acc:	d9000104 	addi	r4,sp,4
 1007ad0:	dfc01c15 	stw	ra,112(sp)
 1007ad4:	d8c00815 	stw	r3,32(sp)
 1007ad8:	d8800a15 	stw	r2,40(sp)
 1007adc:	d9401005 	stb	r5,64(sp)
 1007ae0:	df001b15 	stw	fp,108(sp)
 1007ae4:	ddc01a15 	stw	r23,104(sp)
 1007ae8:	dd801915 	stw	r22,100(sp)
 1007aec:	dd401815 	stw	r21,96(sp)
 1007af0:	dd001715 	stw	r20,92(sp)
 1007af4:	dcc01615 	stw	r19,88(sp)
 1007af8:	dc801515 	stw	r18,84(sp)
 1007afc:	dc401415 	stw	r17,80(sp)
 1007b00:	dc001315 	stw	r16,76(sp)
 1007b04:	dec00915 	stw	sp,36(sp)
 1007b08:	dec00b15 	stw	sp,44(sp)
 1007b0c:	10418e00 	call	10418e0 <_Unwind_SjLj_Register>
 1007b10:	d8800f17 	ldw	r2,60(sp)
 1007b14:	d9400f17 	ldw	r5,60(sp)
 1007b18:	d809883a 	mov	r4,sp
 1007b1c:	10000115 	stw	zero,4(r2)
 1007b20:	01800044 	movi	r6,1
 1007b24:	00bfffc4 	movi	r2,-1
 1007b28:	d8800215 	stw	r2,8(sp)
 1007b2c:	10073680 	call	1007368 <_ZNSi6sentryC1ERSib>
 1007b30:	d8800003 	ldbu	r2,0(sp)
 1007b34:	10001e26 	beq	r2,zero,1007bb0 <_ZNSi7putbackEc+0x108>
 1007b38:	d8800f17 	ldw	r2,60(sp)
 1007b3c:	10c00017 	ldw	r3,0(r2)
 1007b40:	d8800e15 	stw	r2,56(sp)
 1007b44:	18bffd17 	ldw	r2,-12(r3)
 1007b48:	d8c00f17 	ldw	r3,60(sp)
 1007b4c:	1885883a 	add	r2,r3,r2
 1007b50:	11001e17 	ldw	r4,120(r2)
 1007b54:	20000c26 	beq	r4,zero,1007b88 <_ZNSi7putbackEc+0xe0>
 1007b58:	21800217 	ldw	r6,8(r4)
 1007b5c:	20800117 	ldw	r2,4(r4)
 1007b60:	d9401003 	ldbu	r5,64(sp)
 1007b64:	11802136 	bltu	r2,r6,1007bec <_ZNSi7putbackEc+0x144>
 1007b68:	00800044 	movi	r2,1
 1007b6c:	1005003a 	cmpeq	r2,r2,zero
 1007b70:	10002426 	beq	r2,zero,1007c04 <_ZNSi7putbackEc+0x15c>
 1007b74:	30bfffc4 	addi	r2,r6,-1
 1007b78:	20800215 	stw	r2,8(r4)
 1007b7c:	10c00003 	ldbu	r3,0(r2)
 1007b80:	00bfffc4 	movi	r2,-1
 1007b84:	18800a1e 	bne	r3,r2,1007bb0 <_ZNSi7putbackEc+0x108>
 1007b88:	d8c00f17 	ldw	r3,60(sp)
 1007b8c:	18800017 	ldw	r2,0(r3)
 1007b90:	113ffd17 	ldw	r4,-12(r2)
 1007b94:	d8800e17 	ldw	r2,56(sp)
 1007b98:	1109883a 	add	r4,r2,r4
 1007b9c:	21400517 	ldw	r5,20(r4)
 1007ba0:	00bfffc4 	movi	r2,-1
 1007ba4:	d8800215 	stw	r2,8(sp)
 1007ba8:	29400054 	ori	r5,r5,1
 1007bac:	10061b40 	call	10061b4 <_ZNSt9basic_iosIcSt11char_traitsIcEE5clearESt12_Ios_Iostate>
 1007bb0:	d9000104 	addi	r4,sp,4
 1007bb4:	10418f00 	call	10418f0 <_Unwind_SjLj_Unregister>
 1007bb8:	d8800f17 	ldw	r2,60(sp)
 1007bbc:	dfc01c17 	ldw	ra,112(sp)
 1007bc0:	df001b17 	ldw	fp,108(sp)
 1007bc4:	ddc01a17 	ldw	r23,104(sp)
 1007bc8:	dd801917 	ldw	r22,100(sp)
 1007bcc:	dd401817 	ldw	r21,96(sp)
 1007bd0:	dd001717 	ldw	r20,92(sp)
 1007bd4:	dcc01617 	ldw	r19,88(sp)
 1007bd8:	dc801517 	ldw	r18,84(sp)
 1007bdc:	dc401417 	ldw	r17,80(sp)
 1007be0:	dc001317 	ldw	r16,76(sp)
 1007be4:	dec01d04 	addi	sp,sp,116
 1007be8:	f800283a 	ret
 1007bec:	30ffffc7 	ldb	r3,-1(r6)
 1007bf0:	28803fcc 	andi	r2,r5,255
 1007bf4:	1080201c 	xori	r2,r2,128
 1007bf8:	10bfe004 	addi	r2,r2,-128
 1007bfc:	10c4c03a 	cmpne	r2,r2,r3
 1007c00:	003fda06 	br	1007b6c <_ZNSi7putbackEc+0xc4>
 1007c04:	20800017 	ldw	r2,0(r4)
 1007c08:	00c00084 	movi	r3,2
 1007c0c:	29403fcc 	andi	r5,r5,255
 1007c10:	11800b17 	ldw	r6,44(r2)
 1007c14:	d8c00215 	stw	r3,8(sp)
 1007c18:	303ee83a 	callr	r6
 1007c1c:	1007883a 	mov	r3,r2
 1007c20:	003fd706 	br	1007b80 <_ZNSi7putbackEc+0xd8>
 1007c24:	d8800317 	ldw	r2,12(sp)
 1007c28:	d8c00217 	ldw	r3,8(sp)
 1007c2c:	d8801115 	stw	r2,68(sp)
 1007c30:	00800044 	movi	r2,1
 1007c34:	d8c01215 	stw	r3,72(sp)
 1007c38:	18800626 	beq	r3,r2,1007c54 <_ZNSi7putbackEc+0x1ac>
 1007c3c:	d8000215 	stw	zero,8(sp)
 1007c40:	1035e440 	call	1035e44 <__cxa_end_catch>
 1007c44:	d9001117 	ldw	r4,68(sp)
 1007c48:	00bfffc4 	movi	r2,-1
 1007c4c:	d8800215 	stw	r2,8(sp)
 1007c50:	1041bac0 	call	1041bac <_Unwind_SjLj_Resume>
 1007c54:	d9001117 	ldw	r4,68(sp)
 1007c58:	1035ee80 	call	1035ee8 <__cxa_begin_catch>
 1007c5c:	d8800f17 	ldw	r2,60(sp)
 1007c60:	10c00017 	ldw	r3,0(r2)
 1007c64:	193ffd17 	ldw	r4,-12(r3)
 1007c68:	d8c00e17 	ldw	r3,56(sp)
 1007c6c:	1909883a 	add	r4,r3,r4
 1007c70:	21400504 	addi	r5,r4,20
 1007c74:	28800017 	ldw	r2,0(r5)
 1007c78:	d8c01217 	ldw	r3,72(sp)
 1007c7c:	10c4b03a 	or	r2,r2,r3
 1007c80:	28800015 	stw	r2,0(r5)
 1007c84:	20c00417 	ldw	r3,16(r4)
 1007c88:	d8801217 	ldw	r2,72(sp)
 1007c8c:	1886703a 	and	r3,r3,r2
 1007c90:	1800031e 	bne	r3,zero,1007ca0 <_ZNSi7putbackEc+0x1f8>
 1007c94:	d8000215 	stw	zero,8(sp)
 1007c98:	1035e440 	call	1035e44 <__cxa_end_catch>
 1007c9c:	003fc406 	br	1007bb0 <_ZNSi7putbackEc+0x108>
 1007ca0:	d8800215 	stw	r2,8(sp)
 1007ca4:	10353e40 	call	10353e4 <__cxa_rethrow>

01007ca8 <_ZNSi8readsomeEPcl>:
 1007ca8:	deffdf04 	addi	sp,sp,-132
 1007cac:	008040f4 	movhi	r2,259
 1007cb0:	1099dd04 	addi	r2,r2,26484
 1007cb4:	00c04174 	movhi	r3,261
 1007cb8:	18dca904 	addi	r3,r3,29348
 1007cbc:	d8800915 	stw	r2,36(sp)
 1007cc0:	d9001215 	stw	r4,72(sp)
 1007cc4:	00804034 	movhi	r2,256
 1007cc8:	109f9d04 	addi	r2,r2,32372
 1007ccc:	d9000304 	addi	r4,sp,12
 1007cd0:	dfc02015 	stw	ra,128(sp)
 1007cd4:	d9800215 	stw	r6,8(sp)
 1007cd8:	d8c00a15 	stw	r3,40(sp)
 1007cdc:	d8800c15 	stw	r2,48(sp)
 1007ce0:	d9401315 	stw	r5,76(sp)
 1007ce4:	df001f15 	stw	fp,124(sp)
 1007ce8:	ddc01e15 	stw	r23,120(sp)
 1007cec:	dd801d15 	stw	r22,116(sp)
 1007cf0:	dd401c15 	stw	r21,112(sp)
 1007cf4:	dd001b15 	stw	r20,108(sp)
 1007cf8:	dcc01a15 	stw	r19,104(sp)
 1007cfc:	dc801915 	stw	r18,100(sp)
 1007d00:	dc401815 	stw	r17,96(sp)
 1007d04:	dc001715 	stw	r16,92(sp)
 1007d08:	dec00b15 	stw	sp,44(sp)
 1007d0c:	dec00d15 	stw	sp,52(sp)
 1007d10:	10418e00 	call	10418e0 <_Unwind_SjLj_Register>
 1007d14:	d8801217 	ldw	r2,72(sp)
 1007d18:	00ffffc4 	movi	r3,-1
 1007d1c:	d809883a 	mov	r4,sp
 1007d20:	10000115 	stw	zero,4(r2)
 1007d24:	100b883a 	mov	r5,r2
 1007d28:	01800044 	movi	r6,1
 1007d2c:	d8c00415 	stw	r3,16(sp)
 1007d30:	10073680 	call	1007368 <_ZNSi6sentryC1ERSib>
 1007d34:	d8800003 	ldbu	r2,0(sp)
 1007d38:	10002d26 	beq	r2,zero,1007df0 <_ZNSi8readsomeEPcl+0x148>
 1007d3c:	d8801217 	ldw	r2,72(sp)
 1007d40:	d8001015 	stw	zero,64(sp)
 1007d44:	10c00017 	ldw	r3,0(r2)
 1007d48:	d8801115 	stw	r2,68(sp)
 1007d4c:	18bffd17 	ldw	r2,-12(r3)
 1007d50:	d8c01217 	ldw	r3,72(sp)
 1007d54:	1885883a 	add	r2,r3,r2
 1007d58:	11001e17 	ldw	r4,120(r2)
 1007d5c:	20c00317 	ldw	r3,12(r4)
 1007d60:	20800217 	ldw	r2,8(r4)
 1007d64:	188bc83a 	sub	r5,r3,r2
 1007d68:	28003526 	beq	r5,zero,1007e40 <_ZNSi8readsomeEPcl+0x198>
 1007d6c:	d9400115 	stw	r5,4(sp)
 1007d70:	01403b0e 	bge	zero,r5,1007e60 <_ZNSi8readsomeEPcl+0x1b8>
 1007d74:	d8c01217 	ldw	r3,72(sp)
 1007d78:	18800017 	ldw	r2,0(r3)
 1007d7c:	10fffd17 	ldw	r3,-12(r2)
 1007d80:	d8801217 	ldw	r2,72(sp)
 1007d84:	10c7883a 	add	r3,r2,r3
 1007d88:	d8800217 	ldw	r2,8(sp)
 1007d8c:	19001e17 	ldw	r4,120(r3)
 1007d90:	1140290e 	bge	r2,r5,1007e38 <_ZNSi8readsomeEPcl+0x190>
 1007d94:	d9800204 	addi	r6,sp,8
 1007d98:	20800017 	ldw	r2,0(r4)
 1007d9c:	00c00084 	movi	r3,2
 1007da0:	d9401317 	ldw	r5,76(sp)
 1007da4:	11c00817 	ldw	r7,32(r2)
 1007da8:	d8c00415 	stw	r3,16(sp)
 1007dac:	31800017 	ldw	r6,0(r6)
 1007db0:	383ee83a 	callr	r7
 1007db4:	d8c01217 	ldw	r3,72(sp)
 1007db8:	18800115 	stw	r2,4(r3)
 1007dbc:	d8c01017 	ldw	r3,64(sp)
 1007dc0:	18000b26 	beq	r3,zero,1007df0 <_ZNSi8readsomeEPcl+0x148>
 1007dc4:	d8c01217 	ldw	r3,72(sp)
 1007dc8:	18800017 	ldw	r2,0(r3)
 1007dcc:	d8c01017 	ldw	r3,64(sp)
 1007dd0:	113ffd17 	ldw	r4,-12(r2)
 1007dd4:	d8801117 	ldw	r2,68(sp)
 1007dd8:	1109883a 	add	r4,r2,r4
 1007ddc:	21400517 	ldw	r5,20(r4)
 1007de0:	00bfffc4 	movi	r2,-1
 1007de4:	d8800415 	stw	r2,16(sp)
 1007de8:	194ab03a 	or	r5,r3,r5
 1007dec:	10061b40 	call	10061b4 <_ZNSt9basic_iosIcSt11char_traitsIcEE5clearESt12_Ios_Iostate>
 1007df0:	d8801217 	ldw	r2,72(sp)
 1007df4:	d9000304 	addi	r4,sp,12
 1007df8:	10800117 	ldw	r2,4(r2)
 1007dfc:	d8801515 	stw	r2,84(sp)
 1007e00:	10418f00 	call	10418f0 <_Unwind_SjLj_Unregister>
 1007e04:	d8801517 	ldw	r2,84(sp)
 1007e08:	dfc02017 	ldw	ra,128(sp)
 1007e0c:	df001f17 	ldw	fp,124(sp)
 1007e10:	ddc01e17 	ldw	r23,120(sp)
 1007e14:	dd801d17 	ldw	r22,116(sp)
 1007e18:	dd401c17 	ldw	r21,112(sp)
 1007e1c:	dd001b17 	ldw	r20,108(sp)
 1007e20:	dcc01a17 	ldw	r19,104(sp)
 1007e24:	dc801917 	ldw	r18,100(sp)
 1007e28:	dc401817 	ldw	r17,96(sp)
 1007e2c:	dc001717 	ldw	r16,92(sp)
 1007e30:	dec02104 	addi	sp,sp,132
 1007e34:	f800283a 	ret
 1007e38:	d9800104 	addi	r6,sp,4
 1007e3c:	003fd606 	br	1007d98 <_ZNSi8readsomeEPcl+0xf0>
 1007e40:	20800017 	ldw	r2,0(r4)
 1007e44:	00c00084 	movi	r3,2
 1007e48:	11400717 	ldw	r5,28(r2)
 1007e4c:	d8c00415 	stw	r3,16(sp)
 1007e50:	283ee83a 	callr	r5
 1007e54:	100b883a 	mov	r5,r2
 1007e58:	d9400115 	stw	r5,4(sp)
 1007e5c:	017fc516 	blt	zero,r5,1007d74 <_ZNSi8readsomeEPcl+0xcc>
 1007e60:	00bfffc4 	movi	r2,-1
 1007e64:	28bfd51e 	bne	r5,r2,1007dbc <_ZNSi8readsomeEPcl+0x114>
 1007e68:	00c00084 	movi	r3,2
 1007e6c:	d8c01015 	stw	r3,64(sp)
 1007e70:	003fd406 	br	1007dc4 <_ZNSi8readsomeEPcl+0x11c>
 1007e74:	d8800517 	ldw	r2,20(sp)
 1007e78:	d8c00417 	ldw	r3,16(sp)
 1007e7c:	d8801415 	stw	r2,80(sp)
 1007e80:	00800044 	movi	r2,1
 1007e84:	d8c01615 	stw	r3,88(sp)
 1007e88:	18800626 	beq	r3,r2,1007ea4 <_ZNSi8readsomeEPcl+0x1fc>
 1007e8c:	d8000415 	stw	zero,16(sp)
 1007e90:	1035e440 	call	1035e44 <__cxa_end_catch>
 1007e94:	d9001417 	ldw	r4,80(sp)
 1007e98:	00bfffc4 	movi	r2,-1
 1007e9c:	d8800415 	stw	r2,16(sp)
 1007ea0:	1041bac0 	call	1041bac <_Unwind_SjLj_Resume>
 1007ea4:	d9001417 	ldw	r4,80(sp)
 1007ea8:	1035ee80 	call	1035ee8 <__cxa_begin_catch>
 1007eac:	d8801217 	ldw	r2,72(sp)
 1007eb0:	10c00017 	ldw	r3,0(r2)
 1007eb4:	193ffd17 	ldw	r4,-12(r3)
 1007eb8:	d8c01117 	ldw	r3,68(sp)
 1007ebc:	1909883a 	add	r4,r3,r4
 1007ec0:	21400504 	addi	r5,r4,20
 1007ec4:	28800017 	ldw	r2,0(r5)
 1007ec8:	d8c01617 	ldw	r3,88(sp)
 1007ecc:	10c4b03a 	or	r2,r2,r3
 1007ed0:	28800015 	stw	r2,0(r5)
 1007ed4:	20c00417 	ldw	r3,16(r4)
 1007ed8:	d8801617 	ldw	r2,88(sp)
 1007edc:	1886703a 	and	r3,r3,r2
 1007ee0:	1800031e 	bne	r3,zero,1007ef0 <_ZNSi8readsomeEPcl+0x248>
 1007ee4:	d8000415 	stw	zero,16(sp)
 1007ee8:	1035e440 	call	1035e44 <__cxa_end_catch>
 1007eec:	003fb306 	br	1007dbc <_ZNSi8readsomeEPcl+0x114>
 1007ef0:	d8800415 	stw	r2,16(sp)
 1007ef4:	10353e40 	call	10353e4 <__cxa_rethrow>

01007ef8 <_ZNSi4readEPcl>:
 1007ef8:	deffe204 	addi	sp,sp,-120
 1007efc:	008040f4 	movhi	r2,259
 1007f00:	1099dd04 	addi	r2,r2,26484
 1007f04:	00c04174 	movhi	r3,261
 1007f08:	18dcad04 	addi	r3,r3,29364
 1007f0c:	d8800715 	stw	r2,28(sp)
 1007f10:	d9000f15 	stw	r4,60(sp)
 1007f14:	00804074 	movhi	r2,257
 1007f18:	10a00e04 	addi	r2,r2,-32712
 1007f1c:	d9000104 	addi	r4,sp,4
 1007f20:	dfc01d15 	stw	ra,116(sp)
 1007f24:	d8c00815 	stw	r3,32(sp)
 1007f28:	d8800a15 	stw	r2,40(sp)
 1007f2c:	d9401015 	stw	r5,64(sp)
 1007f30:	d9801115 	stw	r6,68(sp)
 1007f34:	df001c15 	stw	fp,112(sp)
 1007f38:	ddc01b15 	stw	r23,108(sp)
 1007f3c:	dd801a15 	stw	r22,104(sp)
 1007f40:	dd401915 	stw	r21,100(sp)
 1007f44:	dd001815 	stw	r20,96(sp)
 1007f48:	dcc01715 	stw	r19,92(sp)
 1007f4c:	dc801615 	stw	r18,88(sp)
 1007f50:	dc401515 	stw	r17,84(sp)
 1007f54:	dc001415 	stw	r16,80(sp)
 1007f58:	dec00915 	stw	sp,36(sp)
 1007f5c:	dec00b15 	stw	sp,44(sp)
 1007f60:	10418e00 	call	10418e0 <_Unwind_SjLj_Register>
 1007f64:	d8800f17 	ldw	r2,60(sp)
 1007f68:	00ffffc4 	movi	r3,-1
 1007f6c:	d809883a 	mov	r4,sp
 1007f70:	10000115 	stw	zero,4(r2)
 1007f74:	100b883a 	mov	r5,r2
 1007f78:	01800044 	movi	r6,1
 1007f7c:	d8c00215 	stw	r3,8(sp)
 1007f80:	10073680 	call	1007368 <_ZNSi6sentryC1ERSib>
 1007f84:	d8800003 	ldbu	r2,0(sp)
 1007f88:	10000f1e 	bne	r2,zero,1007fc8 <_ZNSi4readEPcl+0xd0>
 1007f8c:	d9000104 	addi	r4,sp,4
 1007f90:	10418f00 	call	10418f0 <_Unwind_SjLj_Unregister>
 1007f94:	d8800f17 	ldw	r2,60(sp)
 1007f98:	dfc01d17 	ldw	ra,116(sp)
 1007f9c:	df001c17 	ldw	fp,112(sp)
 1007fa0:	ddc01b17 	ldw	r23,108(sp)
 1007fa4:	dd801a17 	ldw	r22,104(sp)
 1007fa8:	dd401917 	ldw	r21,100(sp)
 1007fac:	dd001817 	ldw	r20,96(sp)
 1007fb0:	dcc01717 	ldw	r19,92(sp)
 1007fb4:	dc801617 	ldw	r18,88(sp)
 1007fb8:	dc401517 	ldw	r17,84(sp)
 1007fbc:	dc001417 	ldw	r16,80(sp)
 1007fc0:	dec01e04 	addi	sp,sp,120
 1007fc4:	f800283a 	ret
 1007fc8:	d8800f17 	ldw	r2,60(sp)
 1007fcc:	d9401017 	ldw	r5,64(sp)
 1007fd0:	d9801117 	ldw	r6,68(sp)
 1007fd4:	10c00017 	ldw	r3,0(r2)
 1007fd8:	18bffd17 	ldw	r2,-12(r3)
 1007fdc:	d8c00f17 	ldw	r3,60(sp)
 1007fe0:	1885883a 	add	r2,r3,r2
 1007fe4:	11001e17 	ldw	r4,120(r2)
 1007fe8:	d8c00e15 	stw	r3,56(sp)
 1007fec:	00800084 	movi	r2,2
 1007ff0:	20c00017 	ldw	r3,0(r4)
 1007ff4:	19c00817 	ldw	r7,32(r3)
 1007ff8:	d8800215 	stw	r2,8(sp)
 1007ffc:	383ee83a 	callr	r7
 1008000:	d8c00f17 	ldw	r3,60(sp)
 1008004:	18800115 	stw	r2,4(r3)
 1008008:	d8c01117 	ldw	r3,68(sp)
 100800c:	18bfdf26 	beq	r3,r2,1007f8c <_ZNSi4readEPcl+0x94>
 1008010:	d8c00f17 	ldw	r3,60(sp)
 1008014:	18800017 	ldw	r2,0(r3)
 1008018:	113ffd17 	ldw	r4,-12(r2)
 100801c:	00bfffc4 	movi	r2,-1
 1008020:	1909883a 	add	r4,r3,r4
 1008024:	21400517 	ldw	r5,20(r4)
 1008028:	d8800215 	stw	r2,8(sp)
 100802c:	29400194 	ori	r5,r5,6
 1008030:	10061b40 	call	10061b4 <_ZNSt9basic_iosIcSt11char_traitsIcEE5clearESt12_Ios_Iostate>
 1008034:	003fd506 	br	1007f8c <_ZNSi4readEPcl+0x94>
 1008038:	d8800317 	ldw	r2,12(sp)
 100803c:	d8c00217 	ldw	r3,8(sp)
 1008040:	d8801215 	stw	r2,72(sp)
 1008044:	00800044 	movi	r2,1
 1008048:	d8c01315 	stw	r3,76(sp)
 100804c:	18800626 	beq	r3,r2,1008068 <_ZNSi4readEPcl+0x170>
 1008050:	d8000215 	stw	zero,8(sp)
 1008054:	1035e440 	call	1035e44 <__cxa_end_catch>
 1008058:	d9001217 	ldw	r4,72(sp)
 100805c:	00bfffc4 	movi	r2,-1
 1008060:	d8800215 	stw	r2,8(sp)
 1008064:	1041bac0 	call	1041bac <_Unwind_SjLj_Resume>
 1008068:	d9001217 	ldw	r4,72(sp)
 100806c:	1035ee80 	call	1035ee8 <__cxa_begin_catch>
 1008070:	d8800f17 	ldw	r2,60(sp)
 1008074:	10c00017 	ldw	r3,0(r2)
 1008078:	193ffd17 	ldw	r4,-12(r3)
 100807c:	d8c00e17 	ldw	r3,56(sp)
 1008080:	1909883a 	add	r4,r3,r4
 1008084:	21400504 	addi	r5,r4,20
 1008088:	28800017 	ldw	r2,0(r5)
 100808c:	d8c01317 	ldw	r3,76(sp)
 1008090:	10c4b03a 	or	r2,r2,r3
 1008094:	28800015 	stw	r2,0(r5)
 1008098:	20c00417 	ldw	r3,16(r4)
 100809c:	d8801317 	ldw	r2,76(sp)
 10080a0:	1886703a 	and	r3,r3,r2
 10080a4:	1800031e 	bne	r3,zero,10080b4 <_ZNSi4readEPcl+0x1bc>
 10080a8:	d8000215 	stw	zero,8(sp)
 10080ac:	1035e440 	call	1035e44 <__cxa_end_catch>
 10080b0:	003fb606 	br	1007f8c <_ZNSi4readEPcl+0x94>
 10080b4:	d8800215 	stw	r2,8(sp)
 10080b8:	10353e40 	call	10353e4 <__cxa_rethrow>

010080bc <_ZNSi4peekEv>:
 10080bc:	deffe304 	addi	sp,sp,-116
 10080c0:	008040f4 	movhi	r2,259
 10080c4:	1099dd04 	addi	r2,r2,26484
 10080c8:	00c04174 	movhi	r3,261
 10080cc:	18dcb104 	addi	r3,r3,29380
 10080d0:	d8800715 	stw	r2,28(sp)
 10080d4:	d9001015 	stw	r4,64(sp)
 10080d8:	00804074 	movhi	r2,257
 10080dc:	10a08404 	addi	r2,r2,-32240
 10080e0:	d9000104 	addi	r4,sp,4
 10080e4:	dfc01c15 	stw	ra,112(sp)
 10080e8:	d8c00815 	stw	r3,32(sp)
 10080ec:	d8800a15 	stw	r2,40(sp)
 10080f0:	df001b15 	stw	fp,108(sp)
 10080f4:	ddc01a15 	stw	r23,104(sp)
 10080f8:	dd801915 	stw	r22,100(sp)
 10080fc:	dd401815 	stw	r21,96(sp)
 1008100:	dd001715 	stw	r20,92(sp)
 1008104:	dcc01615 	stw	r19,88(sp)
 1008108:	dc801515 	stw	r18,84(sp)
 100810c:	dc401415 	stw	r17,80(sp)
 1008110:	dc001315 	stw	r16,76(sp)
 1008114:	dec00915 	stw	sp,36(sp)
 1008118:	dec00b15 	stw	sp,44(sp)
 100811c:	10418e00 	call	10418e0 <_Unwind_SjLj_Register>
 1008120:	d8801017 	ldw	r2,64(sp)
 1008124:	00ffffc4 	movi	r3,-1
 1008128:	d809883a 	mov	r4,sp
 100812c:	10000115 	stw	zero,4(r2)
 1008130:	100b883a 	mov	r5,r2
 1008134:	01800044 	movi	r6,1
 1008138:	d8c00215 	stw	r3,8(sp)
 100813c:	10073680 	call	1007368 <_ZNSi6sentryC1ERSib>
 1008140:	d8800003 	ldbu	r2,0(sp)
 1008144:	1000111e 	bne	r2,zero,100818c <_ZNSi4peekEv+0xd0>
 1008148:	00bfffc4 	movi	r2,-1
 100814c:	d8800e15 	stw	r2,56(sp)
 1008150:	d9000104 	addi	r4,sp,4
 1008154:	10418f00 	call	10418f0 <_Unwind_SjLj_Unregister>
 1008158:	d8800e17 	ldw	r2,56(sp)
 100815c:	dfc01c17 	ldw	ra,112(sp)
 1008160:	df001b17 	ldw	fp,108(sp)
 1008164:	ddc01a17 	ldw	r23,104(sp)
 1008168:	dd801917 	ldw	r22,100(sp)
 100816c:	dd401817 	ldw	r21,96(sp)
 1008170:	dd001717 	ldw	r20,92(sp)
 1008174:	dcc01617 	ldw	r19,88(sp)
 1008178:	dc801517 	ldw	r18,84(sp)
 100817c:	dc401417 	ldw	r17,80(sp)
 1008180:	dc001317 	ldw	r16,76(sp)
 1008184:	dec01d04 	addi	sp,sp,116
 1008188:	f800283a 	ret
 100818c:	d8c01017 	ldw	r3,64(sp)
 1008190:	18800017 	ldw	r2,0(r3)
 1008194:	d8c00f15 	stw	r3,60(sp)
 1008198:	10fffd17 	ldw	r3,-12(r2)
 100819c:	d8800f17 	ldw	r2,60(sp)
 10081a0:	10c7883a 	add	r3,r2,r3
 10081a4:	19001e17 	ldw	r4,120(r3)
 10081a8:	20c00217 	ldw	r3,8(r4)
 10081ac:	20800317 	ldw	r2,12(r4)
 10081b0:	1880102e 	bgeu	r3,r2,10081f4 <_ZNSi4peekEv+0x138>
 10081b4:	18c00003 	ldbu	r3,0(r3)
 10081b8:	d8c00e15 	stw	r3,56(sp)
 10081bc:	d8c00e17 	ldw	r3,56(sp)
 10081c0:	00bfffc4 	movi	r2,-1
 10081c4:	18bfe21e 	bne	r3,r2,1008150 <_ZNSi4peekEv+0x94>
 10081c8:	d8c01017 	ldw	r3,64(sp)
 10081cc:	18800017 	ldw	r2,0(r3)
 10081d0:	d8c00e17 	ldw	r3,56(sp)
 10081d4:	113ffd17 	ldw	r4,-12(r2)
 10081d8:	d8800f17 	ldw	r2,60(sp)
 10081dc:	1109883a 	add	r4,r2,r4
 10081e0:	21400517 	ldw	r5,20(r4)
 10081e4:	d8c00215 	stw	r3,8(sp)
 10081e8:	29400094 	ori	r5,r5,2
 10081ec:	10061b40 	call	10061b4 <_ZNSt9basic_iosIcSt11char_traitsIcEE5clearESt12_Ios_Iostate>
 10081f0:	003fd706 	br	1008150 <_ZNSi4peekEv+0x94>
 10081f4:	20800017 	ldw	r2,0(r4)
 10081f8:	00c00084 	movi	r3,2
 10081fc:	11400917 	ldw	r5,36(r2)
 1008200:	d8c00215 	stw	r3,8(sp)
 1008204:	283ee83a 	callr	r5
 1008208:	d8800e15 	stw	r2,56(sp)
 100820c:	003feb06 	br	10081bc <_ZNSi4peekEv+0x100>
 1008210:	d8800317 	ldw	r2,12(sp)
 1008214:	d8c00217 	ldw	r3,8(sp)
 1008218:	d8801115 	stw	r2,68(sp)
 100821c:	00800044 	movi	r2,1
 1008220:	d8c01215 	stw	r3,72(sp)
 1008224:	18800626 	beq	r3,r2,1008240 <_ZNSi4peekEv+0x184>
 1008228:	d8000215 	stw	zero,8(sp)
 100822c:	1035e440 	call	1035e44 <__cxa_end_catch>
 1008230:	d9001117 	ldw	r4,68(sp)
 1008234:	00bfffc4 	movi	r2,-1
 1008238:	d8800215 	stw	r2,8(sp)
 100823c:	1041bac0 	call	1041bac <_Unwind_SjLj_Resume>
 1008240:	d9001117 	ldw	r4,68(sp)
 1008244:	1035ee80 	call	1035ee8 <__cxa_begin_catch>
 1008248:	d8801017 	ldw	r2,64(sp)
 100824c:	10c00017 	ldw	r3,0(r2)
 1008250:	193ffd17 	ldw	r4,-12(r3)
 1008254:	d8c00f17 	ldw	r3,60(sp)
 1008258:	1909883a 	add	r4,r3,r4
 100825c:	21400504 	addi	r5,r4,20
 1008260:	28800017 	ldw	r2,0(r5)
 1008264:	d8c01217 	ldw	r3,72(sp)
 1008268:	10c4b03a 	or	r2,r2,r3
 100826c:	28800015 	stw	r2,0(r5)
 1008270:	20c00417 	ldw	r3,16(r4)
 1008274:	d8801217 	ldw	r2,72(sp)
 1008278:	1886703a 	and	r3,r3,r2
 100827c:	1800051e 	bne	r3,zero,1008294 <_ZNSi4peekEv+0x1d8>
 1008280:	d8000215 	stw	zero,8(sp)
 1008284:	1035e440 	call	1035e44 <__cxa_end_catch>
 1008288:	00ffffc4 	movi	r3,-1
 100828c:	d8c00e15 	stw	r3,56(sp)
 1008290:	003faf06 	br	1008150 <_ZNSi4peekEv+0x94>
 1008294:	d8800215 	stw	r2,8(sp)
 1008298:	10353e40 	call	10353e4 <__cxa_rethrow>

0100829c <_ZNSi6ignoreEv>:
 100829c:	deffe404 	addi	sp,sp,-112
 10082a0:	008040f4 	movhi	r2,259
 10082a4:	1099dd04 	addi	r2,r2,26484
 10082a8:	00c04174 	movhi	r3,261
 10082ac:	18dcb504 	addi	r3,r3,29396
 10082b0:	d8800715 	stw	r2,28(sp)
 10082b4:	d9000f15 	stw	r4,60(sp)
 10082b8:	00804074 	movhi	r2,257
 10082bc:	10a0fd04 	addi	r2,r2,-31756
 10082c0:	d9000104 	addi	r4,sp,4
 10082c4:	dfc01b15 	stw	ra,108(sp)
 10082c8:	d8c00815 	stw	r3,32(sp)
 10082cc:	d8800a15 	stw	r2,40(sp)
 10082d0:	df001a15 	stw	fp,104(sp)
 10082d4:	ddc01915 	stw	r23,100(sp)
 10082d8:	dd801815 	stw	r22,96(sp)
 10082dc:	dd401715 	stw	r21,92(sp)
 10082e0:	dd001615 	stw	r20,88(sp)
 10082e4:	dcc01515 	stw	r19,84(sp)
 10082e8:	dc801415 	stw	r18,80(sp)
 10082ec:	dc401315 	stw	r17,76(sp)
 10082f0:	dc001215 	stw	r16,72(sp)
 10082f4:	dec00915 	stw	sp,36(sp)
 10082f8:	dec00b15 	stw	sp,44(sp)
 10082fc:	10418e00 	call	10418e0 <_Unwind_SjLj_Register>
 1008300:	d8800f17 	ldw	r2,60(sp)
 1008304:	d9400f17 	ldw	r5,60(sp)
 1008308:	d809883a 	mov	r4,sp
 100830c:	10000115 	stw	zero,4(r2)
 1008310:	01800044 	movi	r6,1
 1008314:	00bfffc4 	movi	r2,-1
 1008318:	d8800215 	stw	r2,8(sp)
 100831c:	10073680 	call	1007368 <_ZNSi6sentryC1ERSib>
 1008320:	d8800003 	ldbu	r2,0(sp)
 1008324:	10000f1e 	bne	r2,zero,1008364 <_ZNSi6ignoreEv+0xc8>
 1008328:	d9000104 	addi	r4,sp,4
 100832c:	10418f00 	call	10418f0 <_Unwind_SjLj_Unregister>
 1008330:	d8800f17 	ldw	r2,60(sp)
 1008334:	dfc01b17 	ldw	ra,108(sp)
 1008338:	df001a17 	ldw	fp,104(sp)
 100833c:	ddc01917 	ldw	r23,100(sp)
 1008340:	dd801817 	ldw	r22,96(sp)
 1008344:	dd401717 	ldw	r21,92(sp)
 1008348:	dd001617 	ldw	r20,88(sp)
 100834c:	dcc01517 	ldw	r19,84(sp)
 1008350:	dc801417 	ldw	r18,80(sp)
 1008354:	dc401317 	ldw	r17,76(sp)
 1008358:	dc001217 	ldw	r16,72(sp)
 100835c:	dec01c04 	addi	sp,sp,112
 1008360:	f800283a 	ret
 1008364:	d8c00f17 	ldw	r3,60(sp)
 1008368:	18800017 	ldw	r2,0(r3)
 100836c:	d8c00e15 	stw	r3,56(sp)
 1008370:	10fffd17 	ldw	r3,-12(r2)
 1008374:	d8800f17 	ldw	r2,60(sp)
 1008378:	10c7883a 	add	r3,r2,r3
 100837c:	19001e17 	ldw	r4,120(r3)
 1008380:	20c00217 	ldw	r3,8(r4)
 1008384:	20800317 	ldw	r2,12(r4)
 1008388:	1880132e 	bgeu	r3,r2,10083d8 <_ZNSi6ignoreEv+0x13c>
 100838c:	18800044 	addi	r2,r3,1
 1008390:	19800003 	ldbu	r6,0(r3)
 1008394:	20800215 	stw	r2,8(r4)
 1008398:	00bfffc4 	movi	r2,-1
 100839c:	30800a1e 	bne	r6,r2,10083c8 <_ZNSi6ignoreEv+0x12c>
 10083a0:	d8c00f17 	ldw	r3,60(sp)
 10083a4:	18800017 	ldw	r2,0(r3)
 10083a8:	113ffd17 	ldw	r4,-12(r2)
 10083ac:	d8800e17 	ldw	r2,56(sp)
 10083b0:	1109883a 	add	r4,r2,r4
 10083b4:	21400517 	ldw	r5,20(r4)
 10083b8:	d9800215 	stw	r6,8(sp)
 10083bc:	29400094 	ori	r5,r5,2
 10083c0:	10061b40 	call	10061b4 <_ZNSt9basic_iosIcSt11char_traitsIcEE5clearESt12_Ios_Iostate>
 10083c4:	003fd806 	br	1008328 <_ZNSi6ignoreEv+0x8c>
 10083c8:	d8c00f17 	ldw	r3,60(sp)
 10083cc:	00800044 	movi	r2,1
 10083d0:	18800115 	stw	r2,4(r3)
 10083d4:	003fd406 	br	1008328 <_ZNSi6ignoreEv+0x8c>
 10083d8:	20800017 	ldw	r2,0(r4)
 10083dc:	00c00084 	movi	r3,2
 10083e0:	11400a17 	ldw	r5,40(r2)
 10083e4:	d8c00215 	stw	r3,8(sp)
 10083e8:	283ee83a 	callr	r5
 10083ec:	100d883a 	mov	r6,r2
 10083f0:	003fe906 	br	1008398 <_ZNSi6ignoreEv+0xfc>
 10083f4:	d8800317 	ldw	r2,12(sp)
 10083f8:	d8c00217 	ldw	r3,8(sp)
 10083fc:	d8801015 	stw	r2,64(sp)
 1008400:	00800044 	movi	r2,1
 1008404:	d8c01115 	stw	r3,68(sp)
 1008408:	18800626 	beq	r3,r2,1008424 <_ZNSi6ignoreEv+0x188>
 100840c:	d8000215 	stw	zero,8(sp)
 1008410:	1035e440 	call	1035e44 <__cxa_end_catch>
 1008414:	d9001017 	ldw	r4,64(sp)
 1008418:	00bfffc4 	movi	r2,-1
 100841c:	d8800215 	stw	r2,8(sp)
 1008420:	1041bac0 	call	1041bac <_Unwind_SjLj_Resume>
 1008424:	d9001017 	ldw	r4,64(sp)
 1008428:	1035ee80 	call	1035ee8 <__cxa_begin_catch>
 100842c:	d8800f17 	ldw	r2,60(sp)
 1008430:	10c00017 	ldw	r3,0(r2)
 1008434:	193ffd17 	ldw	r4,-12(r3)
 1008438:	d8c00e17 	ldw	r3,56(sp)
 100843c:	1909883a 	add	r4,r3,r4
 1008440:	21400504 	addi	r5,r4,20
 1008444:	28800017 	ldw	r2,0(r5)
 1008448:	d8c01117 	ldw	r3,68(sp)
 100844c:	10c4b03a 	or	r2,r2,r3
 1008450:	28800015 	stw	r2,0(r5)
 1008454:	20c00417 	ldw	r3,16(r4)
 1008458:	d8801117 	ldw	r2,68(sp)
 100845c:	1886703a 	and	r3,r3,r2
 1008460:	1800031e 	bne	r3,zero,1008470 <_ZNSi6ignoreEv+0x1d4>
 1008464:	d8000215 	stw	zero,8(sp)
 1008468:	1035e440 	call	1035e44 <__cxa_end_catch>
 100846c:	003fae06 	br	1008328 <_ZNSi6ignoreEv+0x8c>
 1008470:	d8800215 	stw	r2,8(sp)
 1008474:	10353e40 	call	10353e4 <__cxa_rethrow>

01008478 <_ZNSi3getERSt15basic_streambufIcSt11char_traitsIcEEc>:
 1008478:	deffdc04 	addi	sp,sp,-144
 100847c:	008040f4 	movhi	r2,259
 1008480:	1099dd04 	addi	r2,r2,26484
 1008484:	00c04174 	movhi	r3,261
 1008488:	18dcb904 	addi	r3,r3,29412
 100848c:	d8800715 	stw	r2,28(sp)
 1008490:	d9001515 	stw	r4,84(sp)
 1008494:	00804074 	movhi	r2,257
 1008498:	10a1dc04 	addi	r2,r2,-30864
 100849c:	d9000104 	addi	r4,sp,4
 10084a0:	dfc02315 	stw	ra,140(sp)
 10084a4:	d8c00815 	stw	r3,32(sp)
 10084a8:	d8800a15 	stw	r2,40(sp)
 10084ac:	d9401615 	stw	r5,88(sp)
 10084b0:	d9801715 	stw	r6,92(sp)
 10084b4:	df002215 	stw	fp,136(sp)
 10084b8:	ddc02115 	stw	r23,132(sp)
 10084bc:	dd802015 	stw	r22,128(sp)
 10084c0:	dd401f15 	stw	r21,124(sp)
 10084c4:	dd001e15 	stw	r20,120(sp)
 10084c8:	dcc01d15 	stw	r19,116(sp)
 10084cc:	dc801c15 	stw	r18,112(sp)
 10084d0:	dc401b15 	stw	r17,108(sp)
 10084d4:	dc001a15 	stw	r16,104(sp)
 10084d8:	dec00915 	stw	sp,36(sp)
 10084dc:	dec00b15 	stw	sp,44(sp)
 10084e0:	10418e00 	call	10418e0 <_Unwind_SjLj_Register>
 10084e4:	d8801517 	ldw	r2,84(sp)
 10084e8:	d9401517 	ldw	r5,84(sp)
 10084ec:	d809883a 	mov	r4,sp
 10084f0:	10000115 	stw	zero,4(r2)
 10084f4:	01800044 	movi	r6,1
 10084f8:	00bfffc4 	movi	r2,-1
 10084fc:	d8800215 	stw	r2,8(sp)
 1008500:	10073680 	call	1007368 <_ZNSi6sentryC1ERSib>
 1008504:	d8800003 	ldbu	r2,0(sp)
 1008508:	d8001415 	stw	zero,80(sp)
 100850c:	1000221e 	bne	r2,zero,1008598 <_ZNSi3getERSt15basic_streambufIcSt11char_traitsIcEEc+0x120>
 1008510:	d9401517 	ldw	r5,84(sp)
 1008514:	28800117 	ldw	r2,4(r5)
 1008518:	10001c1e 	bne	r2,zero,100858c <_ZNSi3getERSt15basic_streambufIcSt11char_traitsIcEEc+0x114>
 100851c:	d9c01417 	ldw	r7,80(sp)
 1008520:	39c00114 	ori	r7,r7,4
 1008524:	d9c01415 	stw	r7,80(sp)
 1008528:	d8c01517 	ldw	r3,84(sp)
 100852c:	d9c01417 	ldw	r7,80(sp)
 1008530:	18800017 	ldw	r2,0(r3)
 1008534:	113ffd17 	ldw	r4,-12(r2)
 1008538:	00bfffc4 	movi	r2,-1
 100853c:	1909883a 	add	r4,r3,r4
 1008540:	21400517 	ldw	r5,20(r4)
 1008544:	d8800215 	stw	r2,8(sp)
 1008548:	394ab03a 	or	r5,r7,r5
 100854c:	10061b40 	call	10061b4 <_ZNSt9basic_iosIcSt11char_traitsIcEE5clearESt12_Ios_Iostate>
 1008550:	d9000104 	addi	r4,sp,4
 1008554:	10418f00 	call	10418f0 <_Unwind_SjLj_Unregister>
 1008558:	d8801517 	ldw	r2,84(sp)
 100855c:	dfc02317 	ldw	ra,140(sp)
 1008560:	df002217 	ldw	fp,136(sp)
 1008564:	ddc02117 	ldw	r23,132(sp)
 1008568:	dd802017 	ldw	r22,128(sp)
 100856c:	dd401f17 	ldw	r21,124(sp)
 1008570:	dd001e17 	ldw	r20,120(sp)
 1008574:	dcc01d17 	ldw	r19,116(sp)
 1008578:	dc801c17 	ldw	r18,112(sp)
 100857c:	dc401b17 	ldw	r17,108(sp)
 1008580:	dc001a17 	ldw	r16,104(sp)
 1008584:	dec02404 	addi	sp,sp,144
 1008588:	f800283a 	ret
 100858c:	d8801417 	ldw	r2,80(sp)
 1008590:	103fe51e 	bne	r2,zero,1008528 <_ZNSi3getERSt15basic_streambufIcSt11char_traitsIcEEc+0xb0>
 1008594:	003fee06 	br	1008550 <_ZNSi3getERSt15basic_streambufIcSt11char_traitsIcEEc+0xd8>
 1008598:	d8c01517 	ldw	r3,84(sp)
 100859c:	d9401517 	ldw	r5,84(sp)
 10085a0:	d9001717 	ldw	r4,92(sp)
 10085a4:	18800017 	ldw	r2,0(r3)
 10085a8:	d8c00e15 	stw	r3,56(sp)
 10085ac:	d9001005 	stb	r4,64(sp)
 10085b0:	10fffd17 	ldw	r3,-12(r2)
 10085b4:	28c7883a 	add	r3,r5,r3
 10085b8:	18c01e17 	ldw	r3,120(r3)
 10085bc:	d8c01215 	stw	r3,72(sp)
 10085c0:	d9c01217 	ldw	r7,72(sp)
 10085c4:	18c00217 	ldw	r3,8(r3)
 10085c8:	38800317 	ldw	r2,12(r7)
 10085cc:	18805f2e 	bgeu	r3,r2,100874c <_ZNSi3getERSt15basic_streambufIcSt11char_traitsIcEEc+0x2d4>
 10085d0:	18c00003 	ldbu	r3,0(r3)
 10085d4:	d8c01115 	stw	r3,68(sp)
 10085d8:	d9001117 	ldw	r4,68(sp)
 10085dc:	00bfffc4 	movi	r2,-1
 10085e0:	20803926 	beq	r4,r2,10086c8 <_ZNSi3getERSt15basic_streambufIcSt11char_traitsIcEEc+0x250>
 10085e4:	d9401003 	ldbu	r5,64(sp)
 10085e8:	d9401315 	stw	r5,76(sp)
 10085ec:	21403926 	beq	r4,r5,10086d4 <_ZNSi3getERSt15basic_streambufIcSt11char_traitsIcEEc+0x25c>
 10085f0:	2007883a 	mov	r3,r4
 10085f4:	d8001415 	stw	zero,80(sp)
 10085f8:	00002006 	br	100867c <_ZNSi3getERSt15basic_streambufIcSt11char_traitsIcEEc+0x204>
 10085fc:	d8c01517 	ldw	r3,84(sp)
 1008600:	d9401217 	ldw	r5,72(sp)
 1008604:	d9c01517 	ldw	r7,84(sp)
 1008608:	18800117 	ldw	r2,4(r3)
 100860c:	29000217 	ldw	r4,8(r5)
 1008610:	28c00317 	ldw	r3,12(r5)
 1008614:	01400044 	movi	r5,1
 1008618:	1145883a 	add	r2,r2,r5
 100861c:	38800115 	stw	r2,4(r7)
 1008620:	d9800f15 	stw	r6,60(sp)
